
arch/arm/mach-sunxi/pm/standby/resume1.elf:     file format elf32-littlearm


Disassembly of section .text:

00000000 <__resume1_start>:
       0:	ea00000a 	b	30 <_start>
       4:	4e4f4765 	cdpmi	7, 4, cr4, cr15, cr5, {3}
       8:	3054422e 	subscc	r4, r4, lr, lsr #4
       c:	5f0a6c39 	svcpl	0x000a6c39
      10:	00000400 	andeq	r0, r0, r0, lsl #8
      14:	00000030 	andeq	r0, r0, r0, lsr r0
      18:	30303131 	eorscc	r3, r0, r1, lsr r1
      1c:	30333231 	eorscc	r3, r3, r1, lsr r2
      20:	30333231 	eorscc	r3, r3, r1, lsr r2
      24:	30303131 	eorscc	r3, r0, r1, lsr r1
	...

00000030 <_start>:
      30:	e10f0000 	mrs	r0, CPSR
      34:	e3c0001f 	bic	r0, r0, #31
      38:	e3800013 	orr	r0, r0, #19
      3c:	e38000c0 	orr	r0, r0, #192	; 0xc0
      40:	e3c00c02 	bic	r0, r0, #512	; 0x200
      44:	e121f000 	msr	CPSR_c, r0
      48:	ee110f10 	mrc	15, 0, r0, cr1, cr0, {0}
      4c:	e3c00005 	bic	r0, r0, #5
      50:	e3c00b06 	bic	r0, r0, #6144	; 0x1800
      54:	e3c00002 	bic	r0, r0, #2
      58:	ee010f10 	mcr	15, 0, r0, cr1, cr0, {0}
      5c:	f57ff04f 	dsb	sy
      60:	f57ff06f 	isb	sy
      64:	e59f0068 	ldr	r0, [pc, #104]	; d4 <config_end+0x28>
      68:	e5901000 	ldr	r1, [r0]
      6c:	e3811902 	orr	r1, r1, #32768	; 0x8000
      70:	e5801000 	str	r1, [r0]
      74:	e5901000 	ldr	r1, [r0]
      78:	e1a02821 	lsr	r2, r1, #16
      7c:	e59f3054 	ldr	r3, [pc, #84]	; d8 <config_end+0x2c>
      80:	e1520003 	cmp	r2, r3
      84:	0a000004 	beq	9c <config_61>

00000088 <config_50>:
      88:	e59f004c 	ldr	r0, [pc, #76]	; dc <config_end+0x30>
      8c:	e5901000 	ldr	r1, [r0]
      90:	e3811b06 	orr	r1, r1, #6144	; 0x1800
      94:	e5801000 	str	r1, [r0]
      98:	ea000003 	b	ac <config_end>

0000009c <config_61>:
      9c:	e59f0038 	ldr	r0, [pc, #56]	; dc <config_end+0x30>
      a0:	e5901000 	ldr	r1, [r0]
      a4:	e38110c0 	orr	r1, r1, #192	; 0xc0
      a8:	e5801000 	str	r1, [r0]

000000ac <config_end>:
      ac:	ee100fb0 	mrc	15, 0, r0, cr0, cr0, {5}
      b0:	e7e10050 	ubfx	r0, r0, #0, #2
      b4:	e2800001 	add	r0, r0, #1
      b8:	e1a00400 	lsl	r0, r0, #8
      bc:	e280db0f 	add	sp, r0, #15360	; 0x3c00
      c0:	f57ff04f 	dsb	sy
      c4:	f57ff06f 	isb	sy
      c8:	eb00006c 	bl	280 <set_pll>
      cc:	eb000018 	bl	134 <resume1_c_part>
      d0:	eafffffe 	b	d0 <config_end+0x24>
      d4:	01c00024 	biceq	r0, r0, r4, lsr #32
      d8:	00001661 	andeq	r1, r0, r1, ror #12
      dc:	01c00044 	biceq	r0, r0, r4, asr #32

000000e0 <mem_memcpy>:
      e0:	e2822003 	add	r2, r2, #3
      e4:	e1a02142 	asr	r2, r2, #2
      e8:	e3520000 	cmp	r2, #0
      ec:	d12fff1e 	bxle	lr
      f0:	e2400004 	sub	r0, r0, #4
      f4:	e0812102 	add	r2, r1, r2, lsl #2
      f8:	e4913004 	ldr	r3, [r1], #4
      fc:	e1510002 	cmp	r1, r2
     100:	e5a03004 	str	r3, [r0, #4]!
     104:	1afffffb 	bne	f8 <mem_memcpy+0x18>
     108:	e12fff1e 	bx	lr

0000010c <mem_delay>:
     10c:	e92d000f 	push	{r0, r1, r2, r3}
     110:	e3a01011 	mov	r1, #17
     114:	e1a03000 	mov	r3, r0

00000118 <loop2>:
     118:	e2500001 	subs	r0, r0, #1
     11c:	8afffffd 	bhi	118 <loop2>
     120:	e1a00003 	mov	r0, r3
     124:	e2511001 	subs	r1, r1, #1
     128:	8afffffa 	bhi	118 <loop2>
     12c:	e8bd000f 	pop	{r0, r1, r2, r3}
     130:	e1a0f00e 	mov	pc, lr

00000134 <resume1_c_part>:
     134:	e92d4070 	push	{r4, r5, r6, lr}
     138:	e3a00047 	mov	r0, #71	; 0x47
     13c:	eb0000db 	bl	4b0 <save_mem_status_nommu>
     140:	e3024f90 	movw	r4, #12176	; 0x2f90
     144:	eb0004d1 	bl	1490 <set_copro_default>
     148:	e3a00048 	mov	r0, #72	; 0x48
     14c:	e3404000 	movt	r4, #0
     150:	eb0000d6 	bl	4b0 <save_mem_status_nommu>
     154:	e2840054 	add	r0, r4, #84	; 0x54
     158:	eb0009ee 	bl	2918 <mem_clk_setdiv>
     15c:	e2840080 	add	r0, r4, #128	; 0x80
     160:	eb000a1d 	bl	29dc <mem_clk_set_pll_factor>
     164:	eb00011f 	bl	5e8 <change_runtime_env>
     168:	e5940018 	ldr	r0, [r4, #24]
     16c:	eb00014e 	bl	6ac <delay_ms>
     170:	e5943014 	ldr	r3, [r4, #20]
     174:	e3130002 	tst	r3, #2
     178:	1a000016 	bne	1d8 <resume1_c_part+0xa4>
     17c:	e3a00049 	mov	r0, #73	; 0x49
     180:	e3025f90 	movw	r5, #12176	; 0x2f90
     184:	eb0000c9 	bl	4b0 <save_mem_status_nommu>
     188:	e59f00e8 	ldr	r0, [pc, #232]	; 278 <resume1_c_part+0x144>
     18c:	eb00019d 	bl	808 <restore_mmu_state>
     190:	e3a0004a 	mov	r0, #74	; 0x4a
     194:	eb0000a9 	bl	440 <save_mem_status>
     198:	e3a0004b 	mov	r0, #75	; 0x4b
     19c:	eb0000a7 	bl	440 <save_mem_status>
     1a0:	e3405000 	movt	r5, #0
     1a4:	eb000258 	bl	b0c <mem_flush_tlb>
     1a8:	e3a00001 	mov	r0, #1
     1ac:	eb0009ad 	bl	2868 <mem_clk_init>
     1b0:	e5943014 	ldr	r3, [r4, #20]
     1b4:	e3130002 	tst	r3, #2
     1b8:	1a00000a 	bne	1e8 <resume1_c_part+0xb4>
     1bc:	e3a0004e 	mov	r0, #78	; 0x4e
     1c0:	eb00009e 	bl	440 <save_mem_status>
     1c4:	e59f10b0 	ldr	r1, [pc, #176]	; 27c <resume1_c_part+0x148>
     1c8:	e511001c 	ldr	r0, [r1, #-28]	; 0xffffffe4
     1cc:	eb0002bf 	bl	cd0 <jump_to_resume>
     1d0:	e3a00000 	mov	r0, #0
     1d4:	e8bd8070 	pop	{r4, r5, r6, pc}
     1d8:	e3020c28 	movw	r0, #11304	; 0x2c28
     1dc:	e3400000 	movt	r0, #0
     1e0:	eb00053d 	bl	16dc <serial_puts_nommu>
     1e4:	eaffffe4 	b	17c <resume1_c_part+0x48>
     1e8:	e3020c4c 	movw	r0, #11340	; 0x2c4c
     1ec:	e3400000 	movt	r0, #0
     1f0:	eb0005bc 	bl	18e8 <serial_puts>
     1f4:	eb0001a5 	bl	890 <get_cur_cluster_id>
     1f8:	e1a01000 	mov	r1, r0
     1fc:	e3020c7c 	movw	r0, #11388	; 0x2c7c
     200:	e3400000 	movt	r0, #0
     204:	eb00069c 	bl	1c7c <printk>
     208:	e3020c98 	movw	r0, #11416	; 0x2c98
     20c:	e5951014 	ldr	r1, [r5, #20]
     210:	e3400000 	movt	r0, #0
     214:	eb000698 	bl	1c7c <printk>
     218:	e3020cbc 	movw	r0, #11452	; 0x2cbc
     21c:	e3400000 	movt	r0, #0
     220:	e5951018 	ldr	r1, [r5, #24]
     224:	eb000694 	bl	1c7c <printk>
     228:	e5953014 	ldr	r3, [r5, #20]
     22c:	e3130008 	tst	r3, #8
     230:	e3a03000 	mov	r3, #0
     234:	0a000007 	beq	258 <resume1_c_part+0x124>
     238:	e34f31c2 	movt	r3, #61890	; 0xf1c2
     23c:	e30018b4 	movw	r1, #2228	; 0x8b4
     240:	e3020cec 	movw	r0, #11500	; 0x2cec
     244:	e59328b4 	ldr	r2, [r3, #2228]	; 0x8b4
     248:	e34f11c2 	movt	r1, #61890	; 0xf1c2
     24c:	e3400000 	movt	r0, #0
     250:	eb000689 	bl	1c7c <printk>
     254:	eaffffd8 	b	1bc <resume1_c_part+0x88>
     258:	e34f31c2 	movt	r3, #61890	; 0xf1c2
     25c:	e3a01b02 	mov	r1, #2048	; 0x800
     260:	e3020d04 	movw	r0, #11524	; 0x2d04
     264:	e5932800 	ldr	r2, [r3, #2048]	; 0x800
     268:	e34f11c2 	movt	r1, #61890	; 0xf1c2
     26c:	e3400000 	movt	r0, #0
     270:	eb000681 	bl	1c7c <printk>
     274:	eaffffd0 	b	1bc <resume1_c_part+0x88>
     278:	00003018 	andeq	r3, r0, r8, lsl r0
     27c:	00002fac 	andeq	r2, r0, ip, lsr #31

00000280 <set_pll>:
     280:	e92d4070 	push	{r4, r5, r6, lr}
     284:	ee102fb0 	mrc	15, 0, r2, cr0, cr0, {5}
     288:	e2122003 	ands	r2, r2, #3
     28c:	1a00003a 	bne	37c <set_pll+0xfc>
     290:	e302cda8 	movw	ip, #11688	; 0x2da8
     294:	e303117c 	movw	r1, #12668	; 0x317c
     298:	e340c000 	movt	ip, #0
     29c:	e3401000 	movt	r1, #0
     2a0:	e59c3000 	ldr	r3, [ip]
     2a4:	e4832004 	str	r2, [r3], #4
     2a8:	e1530001 	cmp	r3, r1
     2ac:	9afffffc 	bls	2a4 <set_pll+0x24>
     2b0:	e3a00000 	mov	r0, #0
     2b4:	e58c3000 	str	r3, [ip]
     2b8:	eb00096a 	bl	2868 <mem_clk_init>
     2bc:	e3025f90 	movw	r5, #12176	; 0x2f90
     2c0:	e3405000 	movt	r5, #0
     2c4:	e1a04000 	mov	r4, r0
     2c8:	eb000052 	bl	418 <mem_status_init_nommu>
     2cc:	e3a00020 	mov	r0, #32
     2d0:	eb000076 	bl	4b0 <save_mem_status_nommu>
     2d4:	e3a01000 	mov	r1, #0
     2d8:	e3a03801 	mov	r3, #65536	; 0x10000
     2dc:	e1a00005 	mov	r0, r5
     2e0:	e5843050 	str	r3, [r4, #80]	; 0x50
     2e4:	e3441308 	movt	r1, #17160	; 0x4308
     2e8:	e3a020d0 	mov	r2, #208	; 0xd0
     2ec:	ebffff7b 	bl	e0 <mem_memcpy>
     2f0:	e3a00021 	mov	r0, #33	; 0x21
     2f4:	eb00006d 	bl	4b0 <save_mem_status_nommu>
     2f8:	e5953014 	ldr	r3, [r5, #20]
     2fc:	e3130004 	tst	r3, #4
     300:	1a00002e 	bne	3c0 <set_pll+0x140>
     304:	e59f00dc 	ldr	r0, [pc, #220]	; 3e8 <set_pll+0x168>
     308:	eb0009e2 	bl	2a98 <mem_clk_set_misc>
     30c:	e3a00023 	mov	r0, #35	; 0x23
     310:	eb000066 	bl	4b0 <save_mem_status_nommu>
     314:	e3a03a01 	mov	r3, #4096	; 0x1000
     318:	e3483000 	movt	r3, #32768	; 0x8000
     31c:	e3a00024 	mov	r0, #36	; 0x24
     320:	e5843000 	str	r3, [r4]
     324:	eb000061 	bl	4b0 <save_mem_status_nommu>
     328:	e3a01000 	mov	r1, #0
     32c:	e3a00001 	mov	r0, #1
     330:	eb00008b 	bl	564 <init_perfcounters>
     334:	eb0000ab 	bl	5e8 <change_runtime_env>
     338:	e3a0000a 	mov	r0, #10
     33c:	eb0000da 	bl	6ac <delay_ms>
     340:	e5950014 	ldr	r0, [r5, #20]
     344:	e3100002 	tst	r0, #2
     348:	1a000016 	bne	3a8 <set_pll+0x128>
     34c:	e3a00026 	mov	r0, #38	; 0x26
     350:	eb000056 	bl	4b0 <save_mem_status_nommu>
     354:	e5943050 	ldr	r3, [r4, #80]	; 0x50
     358:	e3a00027 	mov	r0, #39	; 0x27
     35c:	e3c33803 	bic	r3, r3, #196608	; 0x30000
     360:	e3833802 	orr	r3, r3, #131072	; 0x20000
     364:	e5843050 	str	r3, [r4, #80]	; 0x50
     368:	eb000050 	bl	4b0 <save_mem_status_nommu>
     36c:	eb00009d 	bl	5e8 <change_runtime_env>
     370:	e3a00064 	mov	r0, #100	; 0x64
     374:	e8bd4070 	pop	{r4, r5, r6, lr}
     378:	ea0000a6 	b	618 <delay_us>
     37c:	e3a03000 	mov	r3, #0
     380:	ee083f33 	mcr	15, 0, r3, cr8, cr3, {1}
     384:	f57ff04f 	dsb	sy
     388:	e282271f 	add	r2, r2, #8126464	; 0x7c0000
     38c:	e3a030ff 	mov	r3, #255	; 0xff
     390:	e2822041 	add	r2, r2, #65	; 0x41
     394:	e1a02102 	lsl	r2, r2, #2
     398:	e5823000 	str	r3, [r2]
     39c:	f57ff04f 	dsb	sy
     3a0:	e320f004 	sev
     3a4:	eaffffe8 	b	34c <set_pll+0xcc>
     3a8:	e2000008 	and	r0, r0, #8
     3ac:	eb0004a2 	bl	163c <serial_init_nommu>
     3b0:	e3020d1c 	movw	r0, #11548	; 0x2d1c
     3b4:	e3400000 	movt	r0, #0
     3b8:	eb0004c7 	bl	16dc <serial_puts_nommu>
     3bc:	eaffffe2 	b	34c <set_pll+0xcc>
     3c0:	e3130008 	tst	r3, #8
     3c4:	e3a03000 	mov	r3, #0
     3c8:	13032033 	movwne	r2, #12339	; 0x3033
     3cc:	134031c2 	movtne	r3, #450	; 0x1c2
     3d0:	034031c2 	movteq	r3, #450	; 0x1c2
     3d4:	13402030 	movtne	r2, #48	; 0x30
     3d8:	03032333 	movweq	r2, #13107	; 0x3333
     3dc:	158328b4 	strne	r2, [r3, #2228]	; 0x8b4
     3e0:	05832800 	streq	r2, [r3, #2048]	; 0x800
     3e4:	eaffffc6 	b	304 <set_pll+0x84>
     3e8:	00002fec 	andeq	r2, r0, ip, ror #31

000003ec <busy_waiting>:
     3ec:	e24dd008 	sub	sp, sp, #8
     3f0:	e3a03001 	mov	r3, #1
     3f4:	e58d3004 	str	r3, [sp, #4]
     3f8:	e59d3004 	ldr	r3, [sp, #4]
     3fc:	e3530001 	cmp	r3, #1
     400:	0afffffc 	beq	3f8 <busy_waiting+0xc>
     404:	e28dd008 	add	sp, sp, #8
     408:	e12fff1e 	bx	lr

0000040c <save_mem_flag>:
     40c:	e12fff1e 	bx	lr

00000410 <clear_mem_flag>:
     410:	e12fff1e 	bx	lr

00000414 <mem_status_init>:
     414:	e12fff1e 	bx	lr

00000418 <mem_status_init_nommu>:
     418:	e12fff1e 	bx	lr

0000041c <mem_status_clear>:
     41c:	e3a03000 	mov	r3, #0
     420:	e1a02003 	mov	r2, r3
     424:	e34f31f0 	movt	r3, #61936	; 0xf1f0
     428:	e5832100 	str	r2, [r3, #256]	; 0x100
     42c:	e5832104 	str	r2, [r3, #260]	; 0x104
     430:	e5832108 	str	r2, [r3, #264]	; 0x108
     434:	e583210c 	str	r2, [r3, #268]	; 0x10c
     438:	e12fff1e 	bx	lr

0000043c <mem_status_exit>:
     43c:	e12fff1e 	bx	lr

00000440 <save_mem_status>:
     440:	e24dd008 	sub	sp, sp, #8
     444:	e3a03000 	mov	r3, #0
     448:	e34f31f0 	movt	r3, #61936	; 0xf1f0
     44c:	e58d0004 	str	r0, [sp, #4]
     450:	e59d2004 	ldr	r2, [sp, #4]
     454:	e5832104 	str	r2, [r3, #260]	; 0x104
     458:	f57ff04f 	dsb	sy
     45c:	f57ff06f 	isb	sy
     460:	e28dd008 	add	sp, sp, #8
     464:	e12fff1e 	bx	lr

00000468 <get_mem_status>:
     468:	e3a03000 	mov	r3, #0
     46c:	e34f31f0 	movt	r3, #61936	; 0xf1f0
     470:	e5930104 	ldr	r0, [r3, #260]	; 0x104
     474:	e12fff1e 	bx	lr

00000478 <show_mem_status>:
     478:	e92d4070 	push	{r4, r5, r6, lr}
     47c:	e3a04c01 	mov	r4, #256	; 0x100
     480:	e3a05e11 	mov	r5, #272	; 0x110
     484:	e34f41f0 	movt	r4, #61936	; 0xf1f0
     488:	e34f51f0 	movt	r5, #61936	; 0xf1f0
     48c:	e3020d30 	movw	r0, #11568	; 0x2d30
     490:	e5942000 	ldr	r2, [r4]
     494:	e1a01004 	mov	r1, r4
     498:	e3400000 	movt	r0, #0
     49c:	e2844004 	add	r4, r4, #4
     4a0:	eb0005f5 	bl	1c7c <printk>
     4a4:	e1540005 	cmp	r4, r5
     4a8:	1afffff7 	bne	48c <show_mem_status+0x14>
     4ac:	e8bd8070 	pop	{r4, r5, r6, pc}

000004b0 <save_mem_status_nommu>:
     4b0:	e24dd008 	sub	sp, sp, #8
     4b4:	e3a0361f 	mov	r3, #32505856	; 0x1f00000
     4b8:	e58d0004 	str	r0, [sp, #4]
     4bc:	e59d2004 	ldr	r2, [sp, #4]
     4c0:	e5832104 	str	r2, [r3, #260]	; 0x104
     4c4:	e28dd008 	add	sp, sp, #8
     4c8:	e12fff1e 	bx	lr

000004cc <save_cpux_mem_status_nommu>:
     4cc:	e24dd008 	sub	sp, sp, #8
     4d0:	e3a0361f 	mov	r3, #32505856	; 0x1f00000
     4d4:	e58d0004 	str	r0, [sp, #4]
     4d8:	e59d2004 	ldr	r2, [sp, #4]
     4dc:	e5832100 	str	r2, [r3, #256]	; 0x100
     4e0:	e28dd008 	add	sp, sp, #8
     4e4:	e12fff1e 	bx	lr

000004e8 <io_init>:
     4e8:	e3a03000 	mov	r3, #0
     4ec:	e3012111 	movw	r2, #4369	; 0x1111
     4f0:	e34f31c2 	movt	r3, #61890	; 0xf1c2
     4f4:	e3402011 	movt	r2, #17
     4f8:	e5832890 	str	r2, [r3, #2192]	; 0x890
     4fc:	e12fff1e 	bx	lr

00000500 <io_init_high>:
     500:	e3a03000 	mov	r3, #0
     504:	e34f31c2 	movt	r3, #61890	; 0xf1c2
     508:	e59328a0 	ldr	r2, [r3, #2208]	; 0x8a0
     50c:	e382203f 	orr	r2, r2, #63	; 0x3f
     510:	e58328a0 	str	r2, [r3, #2208]	; 0x8a0
     514:	e12fff1e 	bx	lr

00000518 <io_init_low>:
     518:	e3a03000 	mov	r3, #0
     51c:	e34f31c2 	movt	r3, #61890	; 0xf1c2
     520:	e59328a0 	ldr	r2, [r3, #2208]	; 0x8a0
     524:	e3c2203f 	bic	r2, r2, #63	; 0x3f
     528:	e58328a0 	str	r2, [r3, #2208]	; 0x8a0
     52c:	e12fff1e 	bx	lr

00000530 <io_high>:
     530:	e92d4070 	push	{r4, r5, r6, lr}
     534:	e3a05000 	mov	r5, #0
     538:	e34f51c2 	movt	r5, #61890	; 0xf1c2
     53c:	e3a04001 	mov	r4, #1
     540:	e1a06014 	lsl	r6, r4, r0
     544:	e59548a0 	ldr	r4, [r5, #2208]	; 0x8a0
     548:	e3020710 	movw	r0, #10000	; 0x2710
     54c:	e1c44006 	bic	r4, r4, r6
     550:	e58548a0 	str	r4, [r5, #2208]	; 0x8a0
     554:	eb00002f 	bl	618 <delay_us>
     558:	e1864004 	orr	r4, r6, r4
     55c:	e58548a0 	str	r4, [r5, #2208]	; 0x8a0
     560:	e8bd8070 	pop	{r4, r5, r6, pc}

00000564 <init_perfcounters>:
     564:	e3500000 	cmp	r0, #0
     568:	13a03007 	movne	r3, #7
     56c:	03a03001 	moveq	r3, #1
     570:	e3510000 	cmp	r1, #0
     574:	13833008 	orrne	r3, r3, #8
     578:	e3833010 	orr	r3, r3, #16
     57c:	ee093f1c 	mcr	15, 0, r3, cr9, cr12, {0}
     580:	e3a0313e 	mov	r3, #-2147483633	; 0x8000000f
     584:	ee093f3c 	mcr	15, 0, r3, cr9, cr12, {1}
     588:	ee093f7c 	mcr	15, 0, r3, cr9, cr12, {3}
     58c:	f57ff04f 	dsb	sy
     590:	f57ff06f 	isb	sy
     594:	e12fff1e 	bx	lr

00000598 <backup_perfcounter>:
     598:	ee192f1c 	mrc	15, 0, r2, cr9, cr12, {0}
     59c:	e3023db0 	movw	r3, #11696	; 0x2db0
     5a0:	e3403000 	movt	r3, #0
     5a4:	e5832000 	str	r2, [r3]
     5a8:	ee192f3c 	mrc	15, 0, r2, cr9, cr12, {1}
     5ac:	e5832004 	str	r2, [r3, #4]
     5b0:	e12fff1e 	bx	lr

000005b4 <restore_perfcounter>:
     5b4:	e3023db0 	movw	r3, #11696	; 0x2db0
     5b8:	e3403000 	movt	r3, #0
     5bc:	e5932000 	ldr	r2, [r3]
     5c0:	ee092f1c 	mcr	15, 0, r2, cr9, cr12, {0}
     5c4:	e5933004 	ldr	r3, [r3, #4]
     5c8:	ee093f3c 	mcr	15, 0, r3, cr9, cr12, {1}
     5cc:	e12fff1e 	bx	lr

000005d0 <get_cyclecount>:
     5d0:	ee190f1d 	mrc	15, 0, r0, cr9, cr13, {0}
     5d4:	e12fff1e 	bx	lr

000005d8 <reset_counter>:
     5d8:	ee193f1c 	mrc	15, 0, r3, cr9, cr12, {0}
     5dc:	e3833004 	orr	r3, r3, #4
     5e0:	ee093f1c 	mcr	15, 0, r3, cr9, cr12, {0}
     5e4:	e12fff1e 	bx	lr

000005e8 <change_runtime_env>:
     5e8:	e92d4010 	push	{r4, lr}
     5ec:	ee193f1d 	mrc	15, 0, r3, cr9, cr13, {0}
     5f0:	ee192f1d 	mrc	15, 0, r2, cr9, cr13, {0}
     5f4:	e3024db0 	movw	r4, #11696	; 0x2db0
     5f8:	e1530002 	cmp	r3, r2
     5fc:	82422001 	subhi	r2, r2, #1
     600:	e3404000 	movt	r4, #0
     604:	e0633002 	rsb	r3, r3, r2
     608:	e5843008 	str	r3, [r4, #8]
     60c:	eb00095f 	bl	2b90 <mem_clk_get_cpu_freq>
     610:	e584000c 	str	r0, [r4, #12]
     614:	e8bd8010 	pop	{r4, pc}

00000618 <delay_us>:
     618:	e92d4070 	push	{r4, r5, r6, lr}
     61c:	e3025db0 	movw	r5, #11696	; 0x2db0
     620:	e3405000 	movt	r5, #0
     624:	e595300c 	ldr	r3, [r5, #12]
     628:	e3530ffa 	cmp	r3, #1000	; 0x3e8
     62c:	8a000002 	bhi	63c <delay_us+0x24>
     630:	f57ff05f 	dmb	sy
     634:	f57ff06f 	isb	sy
     638:	e8bd8070 	pop	{r4, r5, r6, pc}
     63c:	e1a04000 	mov	r4, r0
     640:	e3a01ffa 	mov	r1, #1000	; 0x3e8
     644:	e1a00003 	mov	r0, r3
     648:	eb000783 	bl	245c <raw_lib_udiv>
     64c:	ee193f1d 	mrc	15, 0, r3, cr9, cr13, {0}
     650:	e0204490 	mla	r0, r0, r4, r4
     654:	e5952008 	ldr	r2, [r5, #8]
     658:	e0622003 	rsb	r2, r2, r3
     65c:	e0800002 	add	r0, r0, r2
     660:	ee192f3c 	mrc	15, 0, r2, cr9, cr12, {1}
     664:	e202213e 	and	r2, r2, #-2147483633	; 0x8000000f
     668:	e352013e 	cmp	r2, #-2147483633	; 0x8000000f
     66c:	0a000006 	beq	68c <delay_us+0x74>
     670:	e3a02017 	mov	r2, #23
     674:	ee092f1c 	mcr	15, 0, r2, cr9, cr12, {0}
     678:	e3a0213e 	mov	r2, #-2147483633	; 0x8000000f
     67c:	ee092f3c 	mcr	15, 0, r2, cr9, cr12, {1}
     680:	ee092f7c 	mcr	15, 0, r2, cr9, cr12, {3}
     684:	f57ff04f 	dsb	sy
     688:	f57ff06f 	isb	sy
     68c:	e0603003 	rsb	r3, r0, r3
     690:	e3530000 	cmp	r3, #0
     694:	aaffffe5 	bge	630 <delay_us+0x18>
     698:	ee193f1d 	mrc	15, 0, r3, cr9, cr13, {0}
     69c:	e0603003 	rsb	r3, r0, r3
     6a0:	e3530000 	cmp	r3, #0
     6a4:	bafffffb 	blt	698 <delay_us+0x80>
     6a8:	eaffffe0 	b	630 <delay_us+0x18>

000006ac <delay_ms>:
     6ac:	e350000a 	cmp	r0, #10
     6b0:	e92d4010 	push	{r4, lr}
     6b4:	e1a04000 	mov	r4, r0
     6b8:	9a000004 	bls	6d0 <delay_ms+0x24>
     6bc:	e244400a 	sub	r4, r4, #10
     6c0:	e3020710 	movw	r0, #10000	; 0x2710
     6c4:	ebffffd3 	bl	618 <delay_us>
     6c8:	e354000a 	cmp	r4, #10
     6cc:	8afffffa 	bhi	6bc <delay_ms+0x10>
     6d0:	e3a00ffa 	mov	r0, #1000	; 0x3e8
     6d4:	e0000490 	mul	r0, r0, r4
     6d8:	e8bd4010 	pop	{r4, lr}
     6dc:	eaffffcd 	b	618 <delay_us>

000006e0 <init_event_counter>:
     6e0:	e3500000 	cmp	r0, #0
     6e4:	13a03007 	movne	r3, #7
     6e8:	03a03001 	moveq	r3, #1
     6ec:	e3510000 	cmp	r1, #0
     6f0:	13833008 	orrne	r3, r3, #8
     6f4:	e3833010 	orr	r3, r3, #16
     6f8:	ee093f1c 	mcr	15, 0, r3, cr9, cr12, {0}
     6fc:	e3a0313e 	mov	r3, #-2147483633	; 0x8000000f
     700:	ee093f3c 	mcr	15, 0, r3, cr9, cr12, {1}
     704:	ee093f7c 	mcr	15, 0, r3, cr9, cr12, {3}
     708:	e12fff1e 	bx	lr

0000070c <set_event_counter>:
     70c:	e2403002 	sub	r3, r0, #2
     710:	e3530003 	cmp	r3, #3
     714:	93022c0c 	movwls	r2, #11276	; 0x2c0c
     718:	83a03000 	movhi	r3, #0
     71c:	93402000 	movtls	r2, #0
     720:	97923103 	ldrls	r3, [r2, r3, lsl #2]
     724:	ee093fbc 	mcr	15, 0, r3, cr9, cr12, {5}
     728:	ee090f3d 	mcr	15, 0, r0, cr9, cr13, {1}
     72c:	f57ff04f 	dsb	sy
     730:	f57ff06f 	isb	sy
     734:	e12fff1e 	bx	lr

00000738 <get_event_counter>:
     738:	e2400002 	sub	r0, r0, #2
     73c:	e3500003 	cmp	r0, #3
     740:	93023c0c 	movwls	r3, #11276	; 0x2c0c
     744:	83a03000 	movhi	r3, #0
     748:	93403000 	movtls	r3, #0
     74c:	97933100 	ldrls	r3, [r3, r0, lsl #2]
     750:	ee093fbc 	mcr	15, 0, r3, cr9, cr12, {5}
     754:	ee190f5d 	mrc	15, 0, r0, cr9, cr13, {2}
     758:	f57ff04f 	dsb	sy
     75c:	f57ff06f 	isb	sy
     760:	e12fff1e 	bx	lr
	...

00000780 <save_mmu_state>:
     780:	ee503f10 	mrc	15, 2, r3, cr0, cr0, {0}
     784:	e5803000 	str	r3, [r0]
     788:	ee113f50 	mrc	15, 0, r3, cr1, cr0, {2}
     78c:	e5803008 	str	r3, [r0, #8]
     790:	ee133f10 	mrc	15, 0, r3, cr3, cr0, {0}
     794:	e5803018 	str	r3, [r0, #24]
     798:	ee123f10 	mrc	15, 0, r3, cr2, cr0, {0}
     79c:	e580300c 	str	r3, [r0, #12]
     7a0:	ee123f30 	mrc	15, 0, r3, cr2, cr0, {1}
     7a4:	e5803010 	str	r3, [r0, #16]
     7a8:	ee123f50 	mrc	15, 0, r3, cr2, cr0, {2}
     7ac:	e5803014 	str	r3, [r0, #20]
     7b0:	ee113f10 	mrc	15, 0, r3, cr1, cr0, {0}
     7b4:	e5803004 	str	r3, [r0, #4]
     7b8:	e12fff1e 	bx	lr

000007bc <restore_secure_mmu_state>:
     7bc:	e5903000 	ldr	r3, [r0]
     7c0:	ee403f10 	mcr	15, 2, r3, cr0, cr0, {0}
     7c4:	e5903008 	ldr	r3, [r0, #8]
     7c8:	ee013f50 	mcr	15, 0, r3, cr1, cr0, {2}
     7cc:	e5903018 	ldr	r3, [r0, #24]
     7d0:	ee033f10 	mcr	15, 0, r3, cr3, cr0, {0}
     7d4:	e590300c 	ldr	r3, [r0, #12]
     7d8:	ee023f10 	mcr	15, 0, r3, cr2, cr0, {0}
     7dc:	e5903010 	ldr	r3, [r0, #16]
     7e0:	ee023f30 	mcr	15, 0, r3, cr2, cr0, {1}
     7e4:	e5903014 	ldr	r3, [r0, #20]
     7e8:	ee023f50 	mcr	15, 0, r3, cr2, cr0, {2}
     7ec:	e5903004 	ldr	r3, [r0, #4]
     7f0:	ee013f10 	mcr	15, 0, r3, cr1, cr0, {0}
     7f4:	ee103f10 	mrc	15, 0, r3, cr0, cr0, {0}
     7f8:	e1a03003 	mov	r3, r3
     7fc:	e1a03003 	mov	r3, r3
     800:	f57ff06f 	isb	sy
     804:	e12fff1e 	bx	lr

00000808 <restore_mmu_state>:
     808:	e5903000 	ldr	r3, [r0]
     80c:	ee403f10 	mcr	15, 2, r3, cr0, cr0, {0}
     810:	e5903008 	ldr	r3, [r0, #8]
     814:	ee013f50 	mcr	15, 0, r3, cr1, cr0, {2}
     818:	e5903018 	ldr	r3, [r0, #24]
     81c:	ee033f10 	mcr	15, 0, r3, cr3, cr0, {0}
     820:	e5903010 	ldr	r3, [r0, #16]
     824:	ee023f10 	mcr	15, 0, r3, cr2, cr0, {0}
     828:	ee023f30 	mcr	15, 0, r3, cr2, cr0, {1}
     82c:	e5903014 	ldr	r3, [r0, #20]
     830:	ee023f50 	mcr	15, 0, r3, cr2, cr0, {2}
     834:	ea000001 	b	840 <__turn_mmu_on>
     838:	e320f000 	nop	{0}
     83c:	e320f000 	nop	{0}

00000840 <__turn_mmu_on>:
     840:	e1a00000 	nop			; (mov r0, r0)
     844:	e5903004 	ldr	r3, [r0, #4]
     848:	ee013f10 	mcr	15, 0, r3, cr1, cr0, {0}
     84c:	ee103f10 	mrc	15, 0, r3, cr0, cr0, {0}
     850:	e1a03003 	mov	r3, r3
     854:	e1a03003 	mov	r3, r3
     858:	f57ff06f 	isb	sy
     85c:	e12fff1e 	bx	lr

00000860 <save_sp>:
     860:	e1a0000d 	mov	r0, sp
     864:	e59fd4bc 	ldr	sp, [pc, #1212]	; d28 <jump_to_resume0_nommu+0x28>
     868:	e1a0f00e 	mov	pc, lr

0000086c <save_sp_nommu>:
     86c:	e1a0000d 	mov	r0, sp
     870:	e59fd4b4 	ldr	sp, [pc, #1204]	; d2c <jump_to_resume0_nommu+0x2c>
     874:	e1a0f00e 	mov	pc, lr

00000878 <restore_sp>:
     878:	e1a0d000 	mov	sp, r0
     87c:	e1a0f00e 	mov	pc, lr

00000880 <get_sp>:
     880:	e1a0000d 	mov	r0, sp
     884:	e1a0f00e 	mov	pc, lr
     888:	e320f000 	nop	{0}
     88c:	e320f000 	nop	{0}

00000890 <get_cur_cluster_id>:
     890:	ee100fb0 	mrc	15, 0, r0, cr0, cr0, {5}
     894:	e7e30450 	ubfx	r0, r0, #8, #4
     898:	e1a0f00e 	mov	pc, lr
     89c:	e320f000 	nop	{0}

000008a0 <invalidate_dcache>:
     8a0:	f57ff05f 	dmb	sy
     8a4:	ee300f30 	mrc	15, 1, r0, cr0, cr0, {1}
     8a8:	e2103407 	ands	r3, r0, #117440512	; 0x7000000
     8ac:	e1a03ba3 	lsr	r3, r3, #23
     8b0:	0a00001a 	beq	920 <inv_finished>
     8b4:	e3a0a000 	mov	sl, #0

000008b8 <inv_loop1>:
     8b8:	e08a20aa 	add	r2, sl, sl, lsr #1
     8bc:	e1a01230 	lsr	r1, r0, r2
     8c0:	e2011007 	and	r1, r1, #7
     8c4:	e3510002 	cmp	r1, #2
     8c8:	ba000011 	blt	914 <inv_skip>
     8cc:	ee40af10 	mcr	15, 2, sl, cr0, cr0, {0}
     8d0:	f57ff06f 	isb	sy
     8d4:	ee301f10 	mrc	15, 1, r1, cr0, cr0, {0}
     8d8:	e2012007 	and	r2, r1, #7
     8dc:	e2822004 	add	r2, r2, #4
     8e0:	e59f4448 	ldr	r4, [pc, #1096]	; d30 <jump_to_resume0_nommu+0x30>
     8e4:	e01441a1 	ands	r4, r4, r1, lsr #3
     8e8:	e16f5f14 	clz	r5, r4
     8ec:	e59f7440 	ldr	r7, [pc, #1088]	; d34 <jump_to_resume0_nommu+0x34>
     8f0:	e01776a1 	ands	r7, r7, r1, lsr #13

000008f4 <inv_loop2>:
     8f4:	e1a09004 	mov	r9, r4

000008f8 <inv_loop3>:
     8f8:	e18ab519 	orr	fp, sl, r9, lsl r5
     8fc:	e18bb217 	orr	fp, fp, r7, lsl r2
     900:	ee07bf56 	mcr	15, 0, fp, cr7, cr6, {2}
     904:	e2599001 	subs	r9, r9, #1
     908:	aafffffa 	bge	8f8 <inv_loop3>
     90c:	e2577001 	subs	r7, r7, #1
     910:	aafffff7 	bge	8f4 <inv_loop2>

00000914 <inv_skip>:
     914:	e28aa002 	add	sl, sl, #2
     918:	e153000a 	cmp	r3, sl
     91c:	caffffe5 	bgt	8b8 <inv_loop1>

00000920 <inv_finished>:
     920:	e3a0a000 	mov	sl, #0
     924:	ee40af10 	mcr	15, 2, sl, cr0, cr0, {0}
     928:	f57ff04f 	dsb	sy
     92c:	f57ff06f 	isb	sy
     930:	e1a0f00e 	mov	pc, lr

00000934 <invalidate_icache>:
     934:	e3a00000 	mov	r0, #0
     938:	ee070f11 	mcr	15, 0, r0, cr7, cr1, {0}
     93c:	ee070f15 	mcr	15, 0, r0, cr7, cr5, {0}
     940:	f57ff04f 	dsb	sy
     944:	f57ff06f 	isb	sy
     948:	e1a0f00e 	mov	pc, lr

0000094c <flush_dcache>:
     94c:	e92d1fff 	push	{r0, r1, r2, r3, r4, r5, r6, r7, r8, r9, sl, fp, ip}
     950:	f57ff05f 	dmb	sy
     954:	ee300f30 	mrc	15, 1, r0, cr0, cr0, {1}
     958:	e2103407 	ands	r3, r0, #117440512	; 0x7000000
     95c:	e1a03ba3 	lsr	r3, r3, #23
     960:	0a00001a 	beq	9d0 <finished>
     964:	e3a0a000 	mov	sl, #0

00000968 <loop1>:
     968:	e08a20aa 	add	r2, sl, sl, lsr #1
     96c:	e1a01230 	lsr	r1, r0, r2
     970:	e2011007 	and	r1, r1, #7
     974:	e3510002 	cmp	r1, #2
     978:	ba000011 	blt	9c4 <skip>
     97c:	ee40af10 	mcr	15, 2, sl, cr0, cr0, {0}
     980:	f57ff06f 	isb	sy
     984:	ee301f10 	mrc	15, 1, r1, cr0, cr0, {0}
     988:	e2012007 	and	r2, r1, #7
     98c:	e2822004 	add	r2, r2, #4
     990:	e59f4398 	ldr	r4, [pc, #920]	; d30 <jump_to_resume0_nommu+0x30>
     994:	e01441a1 	ands	r4, r4, r1, lsr #3
     998:	e16f5f14 	clz	r5, r4
     99c:	e59f7390 	ldr	r7, [pc, #912]	; d34 <jump_to_resume0_nommu+0x34>
     9a0:	e01776a1 	ands	r7, r7, r1, lsr #13

000009a4 <loop2>:
     9a4:	e1a09004 	mov	r9, r4

000009a8 <loop3>:
     9a8:	e18ab519 	orr	fp, sl, r9, lsl r5
     9ac:	e18bb217 	orr	fp, fp, r7, lsl r2
     9b0:	ee07bf5e 	mcr	15, 0, fp, cr7, cr14, {2}
     9b4:	e2599001 	subs	r9, r9, #1
     9b8:	aafffffa 	bge	9a8 <loop3>
     9bc:	e2577001 	subs	r7, r7, #1
     9c0:	aafffff7 	bge	9a4 <loop2>

000009c4 <skip>:
     9c4:	e28aa002 	add	sl, sl, #2
     9c8:	e153000a 	cmp	r3, sl
     9cc:	caffffe5 	bgt	968 <loop1>

000009d0 <finished>:
     9d0:	e3a0a000 	mov	sl, #0
     9d4:	ee40af10 	mcr	15, 2, sl, cr0, cr0, {0}
     9d8:	f57ff04f 	dsb	sy
     9dc:	f57ff06f 	isb	sy
     9e0:	e8bd1fff 	pop	{r0, r1, r2, r3, r4, r5, r6, r7, r8, r9, sl, fp, ip}
     9e4:	e1a0f00e 	mov	pc, lr

000009e8 <flush_icache>:
     9e8:	e92d000f 	push	{r0, r1, r2, r3}
     9ec:	e3a00000 	mov	r0, #0
     9f0:	ee070f15 	mcr	15, 0, r0, cr7, cr5, {0}
     9f4:	ee070f11 	mcr	15, 0, r0, cr7, cr1, {0}
     9f8:	ee070fd1 	mcr	15, 0, r0, cr7, cr1, {6}
     9fc:	f57ff06f 	isb	sy
     a00:	f57ff04f 	dsb	sy
     a04:	e8bd000f 	pop	{r0, r1, r2, r3}
     a08:	e1a0f00e 	mov	pc, lr

00000a0c <disable_cache>:
     a0c:	e92d000f 	push	{r0, r1, r2, r3}
     a10:	ee110f10 	mrc	15, 0, r0, cr1, cr0, {0}
     a14:	e3c00a01 	bic	r0, r0, #4096	; 0x1000
     a18:	e3c00004 	bic	r0, r0, #4
     a1c:	ee010f10 	mcr	15, 0, r0, cr1, cr0, {0}
     a20:	f57ff06f 	isb	sy
     a24:	e8bd000f 	pop	{r0, r1, r2, r3}
     a28:	e1a0f00e 	mov	pc, lr

00000a2c <disable_dcache>:
     a2c:	e92d000f 	push	{r0, r1, r2, r3}
     a30:	ee110f10 	mrc	15, 0, r0, cr1, cr0, {0}
     a34:	e3c00004 	bic	r0, r0, #4
     a38:	ee010f10 	mcr	15, 0, r0, cr1, cr0, {0}
     a3c:	f57ff06f 	isb	sy
     a40:	e8bd000f 	pop	{r0, r1, r2, r3}
     a44:	e1a0f00e 	mov	pc, lr

00000a48 <disable_icache>:
     a48:	e92d000f 	push	{r0, r1, r2, r3}
     a4c:	ee110f10 	mrc	15, 0, r0, cr1, cr0, {0}
     a50:	e3c00a01 	bic	r0, r0, #4096	; 0x1000
     a54:	ee010f10 	mcr	15, 0, r0, cr1, cr0, {0}
     a58:	f57ff06f 	isb	sy
     a5c:	e8bd000f 	pop	{r0, r1, r2, r3}
     a60:	e1a0f00e 	mov	pc, lr

00000a64 <disable_l2cache>:
     a64:	e92d000f 	push	{r0, r1, r2, r3}
     a68:	ee110f30 	mrc	15, 0, r0, cr1, cr0, {1}
     a6c:	e3c00002 	bic	r0, r0, #2
     a70:	ee010f30 	mcr	15, 0, r0, cr1, cr0, {1}
     a74:	f57ff06f 	isb	sy
     a78:	e8bd000f 	pop	{r0, r1, r2, r3}
     a7c:	e1a0f00e 	mov	pc, lr

00000a80 <enable_cache>:
     a80:	e92d000f 	push	{r0, r1, r2, r3}
     a84:	ee110f10 	mrc	15, 0, r0, cr1, cr0, {0}
     a88:	e3800a01 	orr	r0, r0, #4096	; 0x1000
     a8c:	e3800004 	orr	r0, r0, #4
     a90:	ee010f10 	mcr	15, 0, r0, cr1, cr0, {0}
     a94:	f57ff06f 	isb	sy
     a98:	e8bd000f 	pop	{r0, r1, r2, r3}
     a9c:	e1a0f00e 	mov	pc, lr

00000aa0 <enable_icache>:
     aa0:	e92d000f 	push	{r0, r1, r2, r3}
     aa4:	ee110f10 	mrc	15, 0, r0, cr1, cr0, {0}
     aa8:	e3800a01 	orr	r0, r0, #4096	; 0x1000
     aac:	ee010f10 	mcr	15, 0, r0, cr1, cr0, {0}
     ab0:	f57ff06f 	isb	sy
     ab4:	e8bd000f 	pop	{r0, r1, r2, r3}
     ab8:	e1a0f00e 	mov	pc, lr

00000abc <invalidate_branch_predictor>:
     abc:	e92d000f 	push	{r0, r1, r2, r3}
     ac0:	e3a00000 	mov	r0, #0
     ac4:	ee070fd5 	mcr	15, 0, r0, cr7, cr5, {6}
     ac8:	f57ff06f 	isb	sy
     acc:	e8bd000f 	pop	{r0, r1, r2, r3}
     ad0:	e1a0f00e 	mov	pc, lr

00000ad4 <disable_program_flow_prediction>:
     ad4:	e92d000f 	push	{r0, r1, r2, r3}
     ad8:	ee110f10 	mrc	15, 0, r0, cr1, cr0, {0}
     adc:	e3c00b02 	bic	r0, r0, #2048	; 0x800
     ae0:	ee010f10 	mcr	15, 0, r0, cr1, cr0, {0}
     ae4:	f57ff06f 	isb	sy
     ae8:	e8bd000f 	pop	{r0, r1, r2, r3}
     aec:	e1a0f00e 	mov	pc, lr

00000af0 <enable_program_flow_prediction>:
     af0:	e92d000f 	push	{r0, r1, r2, r3}
     af4:	ee110f10 	mrc	15, 0, r0, cr1, cr0, {0}
     af8:	e3800b02 	orr	r0, r0, #2048	; 0x800
     afc:	ee010f10 	mcr	15, 0, r0, cr1, cr0, {0}
     b00:	f57ff06f 	isb	sy
     b04:	e8bd000f 	pop	{r0, r1, r2, r3}
     b08:	e1a0f00e 	mov	pc, lr

00000b0c <mem_flush_tlb>:
     b0c:	e92d000f 	push	{r0, r1, r2, r3}
     b10:	e3a00000 	mov	r0, #0
     b14:	ee080f15 	mcr	15, 0, r0, cr8, cr5, {0}
     b18:	ee080f16 	mcr	15, 0, r0, cr8, cr6, {0}
     b1c:	ee080f13 	mcr	15, 0, r0, cr8, cr3, {0}
     b20:	f57ff04f 	dsb	sy
     b24:	f57ff06f 	isb	sy
     b28:	e8bd000f 	pop	{r0, r1, r2, r3}
     b2c:	e1a0f00e 	mov	pc, lr

00000b30 <mem_preload_tlb>:
     b30:	e92d000f 	push	{r0, r1, r2, r3}
     b34:	e3a0020f 	mov	r0, #-268435456	; 0xf0000000
     b38:	e5901000 	ldr	r1, [r0]
     b3c:	e59f01f4 	ldr	r0, [pc, #500]	; d38 <jump_to_resume0_nommu+0x38>
     b40:	e5901000 	ldr	r1, [r0]
     b44:	e59f01f0 	ldr	r0, [pc, #496]	; d3c <jump_to_resume0_nommu+0x3c>
     b48:	e5901000 	ldr	r1, [r0]
     b4c:	e59f01ec 	ldr	r0, [pc, #492]	; d40 <jump_to_resume0_nommu+0x40>
     b50:	e5901000 	ldr	r1, [r0]
     b54:	e59f01e8 	ldr	r0, [pc, #488]	; d44 <jump_to_resume0_nommu+0x44>
     b58:	e5901000 	ldr	r1, [r0]
     b5c:	e59f01e4 	ldr	r0, [pc, #484]	; d48 <jump_to_resume0_nommu+0x48>
     b60:	e5901000 	ldr	r1, [r0]
     b64:	e59f01e0 	ldr	r0, [pc, #480]	; d4c <jump_to_resume0_nommu+0x4c>
     b68:	e5901000 	ldr	r1, [r0]
     b6c:	e59f01dc 	ldr	r0, [pc, #476]	; d50 <jump_to_resume0_nommu+0x50>
     b70:	e5901000 	ldr	r1, [r0]
     b74:	e59f01d8 	ldr	r0, [pc, #472]	; d54 <jump_to_resume0_nommu+0x54>
     b78:	e5901000 	ldr	r1, [r0]
     b7c:	e59f01d4 	ldr	r0, [pc, #468]	; d58 <jump_to_resume0_nommu+0x58>
     b80:	e5901000 	ldr	r1, [r0]
     b84:	e59f01d0 	ldr	r0, [pc, #464]	; d5c <jump_to_resume0_nommu+0x5c>
     b88:	e5901000 	ldr	r1, [r0]
     b8c:	e59f01cc 	ldr	r0, [pc, #460]	; d60 <jump_to_resume0_nommu+0x60>
     b90:	e5901000 	ldr	r1, [r0]
     b94:	e59f01c8 	ldr	r0, [pc, #456]	; d64 <jump_to_resume0_nommu+0x64>
     b98:	e5901000 	ldr	r1, [r0]
     b9c:	e59f01c4 	ldr	r0, [pc, #452]	; d68 <jump_to_resume0_nommu+0x68>
     ba0:	e5901000 	ldr	r1, [r0]
     ba4:	e59f01c0 	ldr	r0, [pc, #448]	; d6c <jump_to_resume0_nommu+0x6c>
     ba8:	e5901000 	ldr	r1, [r0]
     bac:	e59f01bc 	ldr	r0, [pc, #444]	; d70 <jump_to_resume0_nommu+0x70>
     bb0:	e5901000 	ldr	r1, [r0]
     bb4:	e59f01b8 	ldr	r0, [pc, #440]	; d74 <jump_to_resume0_nommu+0x74>
     bb8:	e5901000 	ldr	r1, [r0]
     bbc:	e59f01b4 	ldr	r0, [pc, #436]	; d78 <jump_to_resume0_nommu+0x78>
     bc0:	e5901000 	ldr	r1, [r0]
     bc4:	e59f01b0 	ldr	r0, [pc, #432]	; d7c <jump_to_resume0_nommu+0x7c>
     bc8:	e5901000 	ldr	r1, [r0]
     bcc:	e59f01ac 	ldr	r0, [pc, #428]	; d80 <jump_to_resume0_nommu+0x80>
     bd0:	e5901000 	ldr	r1, [r0]
     bd4:	e59f01a8 	ldr	r0, [pc, #424]	; d84 <jump_to_resume0_nommu+0x84>
     bd8:	e5901000 	ldr	r1, [r0]
     bdc:	e59f01a4 	ldr	r0, [pc, #420]	; d88 <jump_to_resume0_nommu+0x88>
     be0:	e5901000 	ldr	r1, [r0]
     be4:	e59f01a0 	ldr	r0, [pc, #416]	; d8c <jump_to_resume0_nommu+0x8c>
     be8:	e5901000 	ldr	r1, [r0]
     bec:	e59f019c 	ldr	r0, [pc, #412]	; d90 <jump_to_resume0_nommu+0x90>
     bf0:	e5901000 	ldr	r1, [r0]
     bf4:	e59f0198 	ldr	r0, [pc, #408]	; d94 <jump_to_resume0_nommu+0x94>
     bf8:	e5901000 	ldr	r1, [r0]
     bfc:	e59f0194 	ldr	r0, [pc, #404]	; d98 <jump_to_resume0_nommu+0x98>
     c00:	e5901000 	ldr	r1, [r0]
     c04:	e59f0190 	ldr	r0, [pc, #400]	; d9c <jump_to_resume0_nommu+0x9c>
     c08:	e5901000 	ldr	r1, [r0]
     c0c:	e59f018c 	ldr	r0, [pc, #396]	; da0 <jump_to_resume0_nommu+0xa0>
     c10:	e5901000 	ldr	r1, [r0]
     c14:	e59f0188 	ldr	r0, [pc, #392]	; da4 <jump_to_resume0_nommu+0xa4>
     c18:	e5901000 	ldr	r1, [r0]
     c1c:	e59f0184 	ldr	r0, [pc, #388]	; da8 <jump_to_resume0_nommu+0xa8>
     c20:	e5901000 	ldr	r1, [r0]
     c24:	e59f0180 	ldr	r0, [pc, #384]	; dac <jump_to_resume0_nommu+0xac>
     c28:	e5901000 	ldr	r1, [r0]
     c2c:	f57ff04f 	dsb	sy
     c30:	f57ff06f 	isb	sy
     c34:	e8bd000f 	pop	{r0, r1, r2, r3}
     c38:	e1a0f00e 	mov	pc, lr

00000c3c <disable_mmu>:
     c3c:	ee111f10 	mrc	15, 0, r1, cr1, cr0, {0}
     c40:	e3c11a01 	bic	r1, r1, #4096	; 0x1000
     c44:	e3c11005 	bic	r1, r1, #5
     c48:	ea000004 	b	c60 <__turn_mmu_off>
     c4c:	e320f000 	nop	{0}
     c50:	e320f000 	nop	{0}
     c54:	e320f000 	nop	{0}
     c58:	e320f000 	nop	{0}
     c5c:	e320f000 	nop	{0}

00000c60 <__turn_mmu_off>:
     c60:	ee011f10 	mcr	15, 0, r1, cr1, cr0, {0}
     c64:	ee103f10 	mrc	15, 0, r3, cr0, cr0, {0}
     c68:	e1a03003 	mov	r3, r3
     c6c:	e1a03003 	mov	r3, r3
     c70:	e1a0f00e 	mov	pc, lr

00000c74 <enable_mmu>:
     c74:	ee111f10 	mrc	15, 0, r1, cr1, cr0, {0}
     c78:	e3811a01 	orr	r1, r1, #4096	; 0x1000
     c7c:	e3811005 	orr	r1, r1, #5
     c80:	ea000006 	b	ca0 <__turn_mmu_on>
     c84:	e320f000 	nop	{0}
     c88:	e320f000 	nop	{0}
     c8c:	e320f000 	nop	{0}
     c90:	e320f000 	nop	{0}
     c94:	e320f000 	nop	{0}
     c98:	e320f000 	nop	{0}
     c9c:	e320f000 	nop	{0}

00000ca0 <__turn_mmu_on>:
     ca0:	ee011f10 	mcr	15, 0, r1, cr1, cr0, {0}
     ca4:	ee103f10 	mrc	15, 0, r3, cr0, cr0, {0}
     ca8:	e1a03003 	mov	r3, r3
     cac:	e1a03003 	mov	r3, r3
     cb0:	e1a0f00e 	mov	pc, lr

00000cb4 <jump_to_suspend>:
     cb4:	ee020f10 	mcr	15, 0, r0, cr2, cr0, {0}
     cb8:	f57ff04f 	dsb	sy
     cbc:	f57ff06f 	isb	sy
     cc0:	e1a0f001 	mov	pc, r1
     cc4:	e320f000 	nop	{0}
     cc8:	e320f000 	nop	{0}
     ccc:	e320f000 	nop	{0}

00000cd0 <jump_to_resume>:
     cd0:	e1a0c000 	mov	ip, r0
     cd4:	e1a08001 	mov	r8, r1
     cd8:	ebfffef0 	bl	8a0 <invalidate_dcache>
     cdc:	e1a01008 	mov	r1, r8
     ce0:	e1a0e00c 	mov	lr, ip
     ce4:	e8913fff 	ldm	r1, {r0, r1, r2, r3, r4, r5, r6, r7, r8, r9, sl, fp, ip, sp}
     ce8:	e1a0f00e 	mov	pc, lr
     cec:	e320f000 	nop	{0}

00000cf0 <jump_to_resume0>:
     cf0:	e1a0e000 	mov	lr, r0
     cf4:	e1a0f00e 	mov	pc, lr
     cf8:	e320f000 	nop	{0}
     cfc:	e320f000 	nop	{0}

00000d00 <jump_to_resume0_nommu>:
     d00:	ee111f10 	mrc	15, 0, r1, cr1, cr0, {0}
     d04:	e3c11a01 	bic	r1, r1, #4096	; 0x1000
     d08:	e3c11007 	bic	r1, r1, #7
     d0c:	ee011f10 	mcr	15, 0, r1, cr1, cr0, {0}
     d10:	ee103f10 	mrc	15, 0, r3, cr0, cr0, {0}
     d14:	e1a03003 	mov	r3, r3
     d18:	e1a03003 	mov	r3, r3
     d1c:	e1a0e000 	mov	lr, r0
     d20:	f57ff06f 	isb	sy
     d24:	e1a0f00e 	mov	pc, lr
     d28:	f0003ffc 			; <UNDEFINED> instruction: 0xf0003ffc
     d2c:	00003ffc 	strdeq	r3, [r0], -ip
     d30:	000003ff 	strdeq	r0, [r0], -pc	; <UNPREDICTABLE>
     d34:	00007fff 	strdeq	r7, [r0], -pc	; <UNPREDICTABLE>
     d38:	f0001000 			; <UNDEFINED> instruction: 0xf0001000
     d3c:	f0002000 			; <UNDEFINED> instruction: 0xf0002000
     d40:	f0003000 			; <UNDEFINED> instruction: 0xf0003000
     d44:	f0040000 			; <UNDEFINED> instruction: 0xf0040000
     d48:	f0041000 			; <UNDEFINED> instruction: 0xf0041000
     d4c:	f0042000 			; <UNDEFINED> instruction: 0xf0042000
     d50:	f0043000 			; <UNDEFINED> instruction: 0xf0043000
     d54:	f0044000 			; <UNDEFINED> instruction: 0xf0044000
     d58:	f0045000 			; <UNDEFINED> instruction: 0xf0045000
     d5c:	f0046000 			; <UNDEFINED> instruction: 0xf0046000
     d60:	f0047000 			; <UNDEFINED> instruction: 0xf0047000
     d64:	f0048000 			; <UNDEFINED> instruction: 0xf0048000
     d68:	f0049000 			; <UNDEFINED> instruction: 0xf0049000
     d6c:	f004a000 			; <UNDEFINED> instruction: 0xf004a000
     d70:	f004b000 			; <UNDEFINED> instruction: 0xf004b000
     d74:	f004c000 			; <UNDEFINED> instruction: 0xf004c000
     d78:	f004d000 			; <UNDEFINED> instruction: 0xf004d000
     d7c:	f004e000 			; <UNDEFINED> instruction: 0xf004e000
     d80:	f004f000 			; <UNDEFINED> instruction: 0xf004f000
     d84:	f0050000 			; <UNDEFINED> instruction: 0xf0050000
     d88:	f0051000 			; <UNDEFINED> instruction: 0xf0051000
     d8c:	f0052000 			; <UNDEFINED> instruction: 0xf0052000
     d90:	f0053000 			; <UNDEFINED> instruction: 0xf0053000
     d94:	f1c17000 			; <UNDEFINED> instruction: 0xf1c17000
     d98:	f1c18000 			; <UNDEFINED> instruction: 0xf1c18000
     d9c:	f1c20800 			; <UNDEFINED> instruction: 0xf1c20800
     da0:	f1f01400 			; <UNDEFINED> instruction: 0xf1f01400
     da4:	f1c28000 			; <UNDEFINED> instruction: 0xf1c28000
     da8:	f1f00000 			; <UNDEFINED> instruction: 0xf1f00000
     dac:	f1c20000 			; <UNDEFINED> instruction: 0xf1c20000

00000db0 <__save_processor_state>:
     db0:	ee503f10 	mrc	15, 2, r3, cr0, cr0, {0}
     db4:	e7e71453 	ubfx	r1, r3, #8, #8
     db8:	e7e72853 	ubfx	r2, r3, #16, #8
     dbc:	e5c03000 	strb	r3, [r0]
     dc0:	e1a03c23 	lsr	r3, r3, #24
     dc4:	e5c01001 	strb	r1, [r0, #1]
     dc8:	e5c02002 	strb	r2, [r0, #2]
     dcc:	e5c03003 	strb	r3, [r0, #3]
     dd0:	ee113f10 	mrc	15, 0, r3, cr1, cr0, {0}
     dd4:	e7e71453 	ubfx	r1, r3, #8, #8
     dd8:	e7e72853 	ubfx	r2, r3, #16, #8
     ddc:	e5c03004 	strb	r3, [r0, #4]
     de0:	e1a03c23 	lsr	r3, r3, #24
     de4:	e5c01005 	strb	r1, [r0, #5]
     de8:	e5c02006 	strb	r2, [r0, #6]
     dec:	e5c03007 	strb	r3, [r0, #7]
     df0:	ee113f50 	mrc	15, 0, r3, cr1, cr0, {2}
     df4:	e7e71453 	ubfx	r1, r3, #8, #8
     df8:	e7e72853 	ubfx	r2, r3, #16, #8
     dfc:	e5c0300c 	strb	r3, [r0, #12]
     e00:	e1a03c23 	lsr	r3, r3, #24
     e04:	e5c0100d 	strb	r1, [r0, #13]
     e08:	e5c0200e 	strb	r2, [r0, #14]
     e0c:	e5c0300f 	strb	r3, [r0, #15]
     e10:	ee123f10 	mrc	15, 0, r3, cr2, cr0, {0}
     e14:	e7e71453 	ubfx	r1, r3, #8, #8
     e18:	e7e72853 	ubfx	r2, r3, #16, #8
     e1c:	e5c0301c 	strb	r3, [r0, #28]
     e20:	e1a03c23 	lsr	r3, r3, #24
     e24:	e5c0101d 	strb	r1, [r0, #29]
     e28:	e5c0201e 	strb	r2, [r0, #30]
     e2c:	e5c0301f 	strb	r3, [r0, #31]
     e30:	ee123f30 	mrc	15, 0, r3, cr2, cr0, {1}
     e34:	e7e71453 	ubfx	r1, r3, #8, #8
     e38:	e7e72853 	ubfx	r2, r3, #16, #8
     e3c:	e5c03020 	strb	r3, [r0, #32]
     e40:	e1a03c23 	lsr	r3, r3, #24
     e44:	e5c01021 	strb	r1, [r0, #33]	; 0x21
     e48:	e5c02022 	strb	r2, [r0, #34]	; 0x22
     e4c:	e5c03023 	strb	r3, [r0, #35]	; 0x23
     e50:	ee123f50 	mrc	15, 0, r3, cr2, cr0, {2}
     e54:	e7e71453 	ubfx	r1, r3, #8, #8
     e58:	e7e72853 	ubfx	r2, r3, #16, #8
     e5c:	e5c03024 	strb	r3, [r0, #36]	; 0x24
     e60:	e1a03c23 	lsr	r3, r3, #24
     e64:	e5c01025 	strb	r1, [r0, #37]	; 0x25
     e68:	e5c02026 	strb	r2, [r0, #38]	; 0x26
     e6c:	e5c03027 	strb	r3, [r0, #39]	; 0x27
     e70:	ee133f10 	mrc	15, 0, r3, cr3, cr0, {0}
     e74:	e7e71453 	ubfx	r1, r3, #8, #8
     e78:	e7e72853 	ubfx	r2, r3, #16, #8
     e7c:	e5c03028 	strb	r3, [r0, #40]	; 0x28
     e80:	e1a03c23 	lsr	r3, r3, #24
     e84:	e5c01029 	strb	r1, [r0, #41]	; 0x29
     e88:	e5c0202a 	strb	r2, [r0, #42]	; 0x2a
     e8c:	e5c0302b 	strb	r3, [r0, #43]	; 0x2b
     e90:	ee153f10 	mrc	15, 0, r3, cr5, cr0, {0}
     e94:	e7e71453 	ubfx	r1, r3, #8, #8
     e98:	e7e72853 	ubfx	r2, r3, #16, #8
     e9c:	e5c0302c 	strb	r3, [r0, #44]	; 0x2c
     ea0:	e1a03c23 	lsr	r3, r3, #24
     ea4:	e5c0102d 	strb	r1, [r0, #45]	; 0x2d
     ea8:	e5c0202e 	strb	r2, [r0, #46]	; 0x2e
     eac:	e5c0302f 	strb	r3, [r0, #47]	; 0x2f
     eb0:	ee153f30 	mrc	15, 0, r3, cr5, cr0, {1}
     eb4:	e7e71453 	ubfx	r1, r3, #8, #8
     eb8:	e7e72853 	ubfx	r2, r3, #16, #8
     ebc:	e5c03030 	strb	r3, [r0, #48]	; 0x30
     ec0:	e1a03c23 	lsr	r3, r3, #24
     ec4:	e5c01031 	strb	r1, [r0, #49]	; 0x31
     ec8:	e5c02032 	strb	r2, [r0, #50]	; 0x32
     ecc:	e5c03033 	strb	r3, [r0, #51]	; 0x33
     ed0:	ee153f11 	mrc	15, 0, r3, cr5, cr1, {0}
     ed4:	e7e71453 	ubfx	r1, r3, #8, #8
     ed8:	e7e72853 	ubfx	r2, r3, #16, #8
     edc:	e5c03034 	strb	r3, [r0, #52]	; 0x34
     ee0:	e1a03c23 	lsr	r3, r3, #24
     ee4:	e5c01035 	strb	r1, [r0, #53]	; 0x35
     ee8:	e5c02036 	strb	r2, [r0, #54]	; 0x36
     eec:	e5c03037 	strb	r3, [r0, #55]	; 0x37
     ef0:	ee153f31 	mrc	15, 0, r3, cr5, cr1, {1}
     ef4:	e7e71453 	ubfx	r1, r3, #8, #8
     ef8:	e7e72853 	ubfx	r2, r3, #16, #8
     efc:	e5c03038 	strb	r3, [r0, #56]	; 0x38
     f00:	e1a03c23 	lsr	r3, r3, #24
     f04:	e5c01039 	strb	r1, [r0, #57]	; 0x39
     f08:	e5c0203a 	strb	r2, [r0, #58]	; 0x3a
     f0c:	e5c0303b 	strb	r3, [r0, #59]	; 0x3b
     f10:	ee163f10 	mrc	15, 0, r3, cr6, cr0, {0}
     f14:	e7e71453 	ubfx	r1, r3, #8, #8
     f18:	e7e72853 	ubfx	r2, r3, #16, #8
     f1c:	e5c0303c 	strb	r3, [r0, #60]	; 0x3c
     f20:	e1a03c23 	lsr	r3, r3, #24
     f24:	e5c0103d 	strb	r1, [r0, #61]	; 0x3d
     f28:	e5c0203e 	strb	r2, [r0, #62]	; 0x3e
     f2c:	e5c0303f 	strb	r3, [r0, #63]	; 0x3f
     f30:	ee163f50 	mrc	15, 0, r3, cr6, cr0, {2}
     f34:	e7e71453 	ubfx	r1, r3, #8, #8
     f38:	e7e72853 	ubfx	r2, r3, #16, #8
     f3c:	e5c03040 	strb	r3, [r0, #64]	; 0x40
     f40:	e1a03c23 	lsr	r3, r3, #24
     f44:	e5c01041 	strb	r1, [r0, #65]	; 0x41
     f48:	e5c02042 	strb	r2, [r0, #66]	; 0x42
     f4c:	e5c03043 	strb	r3, [r0, #67]	; 0x43
     f50:	ee173f14 	mrc	15, 0, r3, cr7, cr4, {0}
     f54:	e7e71453 	ubfx	r1, r3, #8, #8
     f58:	e7e72853 	ubfx	r2, r3, #16, #8
     f5c:	e5c03044 	strb	r3, [r0, #68]	; 0x44
     f60:	e1a03c23 	lsr	r3, r3, #24
     f64:	e5c01045 	strb	r1, [r0, #69]	; 0x45
     f68:	e5c02046 	strb	r2, [r0, #70]	; 0x46
     f6c:	e5c03047 	strb	r3, [r0, #71]	; 0x47
     f70:	ee193f1c 	mrc	15, 0, r3, cr9, cr12, {0}
     f74:	e7e71453 	ubfx	r1, r3, #8, #8
     f78:	e7e72853 	ubfx	r2, r3, #16, #8
     f7c:	e5c03048 	strb	r3, [r0, #72]	; 0x48
     f80:	e1a03c23 	lsr	r3, r3, #24
     f84:	e5c01049 	strb	r1, [r0, #73]	; 0x49
     f88:	e5c0204a 	strb	r2, [r0, #74]	; 0x4a
     f8c:	e5c0304b 	strb	r3, [r0, #75]	; 0x4b
     f90:	ee193f3c 	mrc	15, 0, r3, cr9, cr12, {1}
     f94:	e7e71453 	ubfx	r1, r3, #8, #8
     f98:	e7e72853 	ubfx	r2, r3, #16, #8
     f9c:	e5c0304c 	strb	r3, [r0, #76]	; 0x4c
     fa0:	e1a03c23 	lsr	r3, r3, #24
     fa4:	e5c0104d 	strb	r1, [r0, #77]	; 0x4d
     fa8:	e5c0204e 	strb	r2, [r0, #78]	; 0x4e
     fac:	e5c0304f 	strb	r3, [r0, #79]	; 0x4f
     fb0:	ee193f5c 	mrc	15, 0, r3, cr9, cr12, {2}
     fb4:	e7e71453 	ubfx	r1, r3, #8, #8
     fb8:	e7e72853 	ubfx	r2, r3, #16, #8
     fbc:	e5c03050 	strb	r3, [r0, #80]	; 0x50
     fc0:	e1a03c23 	lsr	r3, r3, #24
     fc4:	e5c01051 	strb	r1, [r0, #81]	; 0x51
     fc8:	e5c02052 	strb	r2, [r0, #82]	; 0x52
     fcc:	e5c03053 	strb	r3, [r0, #83]	; 0x53
     fd0:	ee193f7c 	mrc	15, 0, r3, cr9, cr12, {3}
     fd4:	e7e71453 	ubfx	r1, r3, #8, #8
     fd8:	e7e72853 	ubfx	r2, r3, #16, #8
     fdc:	e5c03054 	strb	r3, [r0, #84]	; 0x54
     fe0:	e1a03c23 	lsr	r3, r3, #24
     fe4:	e5c01055 	strb	r1, [r0, #85]	; 0x55
     fe8:	e5c02056 	strb	r2, [r0, #86]	; 0x56
     fec:	e5c03057 	strb	r3, [r0, #87]	; 0x57
     ff0:	ee193fbc 	mrc	15, 0, r3, cr9, cr12, {5}
     ff4:	e7e71453 	ubfx	r1, r3, #8, #8
     ff8:	e7e72853 	ubfx	r2, r3, #16, #8
     ffc:	e5c0305c 	strb	r3, [r0, #92]	; 0x5c
    1000:	e1a03c23 	lsr	r3, r3, #24
    1004:	e5c0105d 	strb	r1, [r0, #93]	; 0x5d
    1008:	e5c0205e 	strb	r2, [r0, #94]	; 0x5e
    100c:	e5c0305f 	strb	r3, [r0, #95]	; 0x5f
    1010:	ee193f1d 	mrc	15, 0, r3, cr9, cr13, {0}
    1014:	e7e71453 	ubfx	r1, r3, #8, #8
    1018:	e7e72853 	ubfx	r2, r3, #16, #8
    101c:	e5c03060 	strb	r3, [r0, #96]	; 0x60
    1020:	e1a03c23 	lsr	r3, r3, #24
    1024:	e5c01061 	strb	r1, [r0, #97]	; 0x61
    1028:	e5c02062 	strb	r2, [r0, #98]	; 0x62
    102c:	e5c03063 	strb	r3, [r0, #99]	; 0x63
    1030:	ee193f3d 	mrc	15, 0, r3, cr9, cr13, {1}
    1034:	e7e71453 	ubfx	r1, r3, #8, #8
    1038:	e7e72853 	ubfx	r2, r3, #16, #8
    103c:	e5c03064 	strb	r3, [r0, #100]	; 0x64
    1040:	e1a03c23 	lsr	r3, r3, #24
    1044:	e5c01065 	strb	r1, [r0, #101]	; 0x65
    1048:	e5c02066 	strb	r2, [r0, #102]	; 0x66
    104c:	e5c03067 	strb	r3, [r0, #103]	; 0x67
    1050:	ee193f5d 	mrc	15, 0, r3, cr9, cr13, {2}
    1054:	e7e71453 	ubfx	r1, r3, #8, #8
    1058:	e7e72853 	ubfx	r2, r3, #16, #8
    105c:	e5c03068 	strb	r3, [r0, #104]	; 0x68
    1060:	e1a03c23 	lsr	r3, r3, #24
    1064:	e5c01069 	strb	r1, [r0, #105]	; 0x69
    1068:	e5c0206a 	strb	r2, [r0, #106]	; 0x6a
    106c:	e5c0306b 	strb	r3, [r0, #107]	; 0x6b
    1070:	ee193f1e 	mrc	15, 0, r3, cr9, cr14, {0}
    1074:	e7e71453 	ubfx	r1, r3, #8, #8
    1078:	e7e72853 	ubfx	r2, r3, #16, #8
    107c:	e5c0306c 	strb	r3, [r0, #108]	; 0x6c
    1080:	e1a03c23 	lsr	r3, r3, #24
    1084:	e5c0106d 	strb	r1, [r0, #109]	; 0x6d
    1088:	e5c0206e 	strb	r2, [r0, #110]	; 0x6e
    108c:	e5c0306f 	strb	r3, [r0, #111]	; 0x6f
    1090:	ee193f3e 	mrc	15, 0, r3, cr9, cr14, {1}
    1094:	e7e71453 	ubfx	r1, r3, #8, #8
    1098:	e7e72853 	ubfx	r2, r3, #16, #8
    109c:	e5c03070 	strb	r3, [r0, #112]	; 0x70
    10a0:	e1a03c23 	lsr	r3, r3, #24
    10a4:	e5c01071 	strb	r1, [r0, #113]	; 0x71
    10a8:	e5c02072 	strb	r2, [r0, #114]	; 0x72
    10ac:	e5c03073 	strb	r3, [r0, #115]	; 0x73
    10b0:	ee193f5e 	mrc	15, 0, r3, cr9, cr14, {2}
    10b4:	e7e71453 	ubfx	r1, r3, #8, #8
    10b8:	e7e72853 	ubfx	r2, r3, #16, #8
    10bc:	e5c03074 	strb	r3, [r0, #116]	; 0x74
    10c0:	e1a03c23 	lsr	r3, r3, #24
    10c4:	e5c01075 	strb	r1, [r0, #117]	; 0x75
    10c8:	e5c02076 	strb	r2, [r0, #118]	; 0x76
    10cc:	e5c03077 	strb	r3, [r0, #119]	; 0x77
    10d0:	ee1a3f12 	mrc	15, 0, r3, cr10, cr2, {0}
    10d4:	e7e71453 	ubfx	r1, r3, #8, #8
    10d8:	e7e72853 	ubfx	r2, r3, #16, #8
    10dc:	e5c03078 	strb	r3, [r0, #120]	; 0x78
    10e0:	e1a03c23 	lsr	r3, r3, #24
    10e4:	e5c01079 	strb	r1, [r0, #121]	; 0x79
    10e8:	e5c0207a 	strb	r2, [r0, #122]	; 0x7a
    10ec:	e5c0307b 	strb	r3, [r0, #123]	; 0x7b
    10f0:	ee1a3f32 	mrc	15, 0, r3, cr10, cr2, {1}
    10f4:	e7e71453 	ubfx	r1, r3, #8, #8
    10f8:	e7e72853 	ubfx	r2, r3, #16, #8
    10fc:	e5c0307c 	strb	r3, [r0, #124]	; 0x7c
    1100:	e1a03c23 	lsr	r3, r3, #24
    1104:	e5c0107d 	strb	r1, [r0, #125]	; 0x7d
    1108:	e5c0207e 	strb	r2, [r0, #126]	; 0x7e
    110c:	e5c0307f 	strb	r3, [r0, #127]	; 0x7f
    1110:	ee1c3f10 	mrc	15, 0, r3, cr12, cr0, {0}
    1114:	e7e71453 	ubfx	r1, r3, #8, #8
    1118:	e7e72853 	ubfx	r2, r3, #16, #8
    111c:	e5c03080 	strb	r3, [r0, #128]	; 0x80
    1120:	e1a03c23 	lsr	r3, r3, #24
    1124:	e5c01081 	strb	r1, [r0, #129]	; 0x81
    1128:	e5c02082 	strb	r2, [r0, #130]	; 0x82
    112c:	e5c03083 	strb	r3, [r0, #131]	; 0x83
    1130:	ee1d3f30 	mrc	15, 0, r3, cr13, cr0, {1}
    1134:	e7e71453 	ubfx	r1, r3, #8, #8
    1138:	e7e72853 	ubfx	r2, r3, #16, #8
    113c:	e5c03090 	strb	r3, [r0, #144]	; 0x90
    1140:	e1a03c23 	lsr	r3, r3, #24
    1144:	e5c01091 	strb	r1, [r0, #145]	; 0x91
    1148:	e5c02092 	strb	r2, [r0, #146]	; 0x92
    114c:	e5c03093 	strb	r3, [r0, #147]	; 0x93
    1150:	ee1d3f50 	mrc	15, 0, r3, cr13, cr0, {2}
    1154:	e7e71453 	ubfx	r1, r3, #8, #8
    1158:	e7e72853 	ubfx	r2, r3, #16, #8
    115c:	e5c03094 	strb	r3, [r0, #148]	; 0x94
    1160:	e1a03c23 	lsr	r3, r3, #24
    1164:	e5c01095 	strb	r1, [r0, #149]	; 0x95
    1168:	e5c02096 	strb	r2, [r0, #150]	; 0x96
    116c:	e5c03097 	strb	r3, [r0, #151]	; 0x97
    1170:	ee1d3f70 	mrc	15, 0, r3, cr13, cr0, {3}
    1174:	e7e71453 	ubfx	r1, r3, #8, #8
    1178:	e7e72853 	ubfx	r2, r3, #16, #8
    117c:	e5c03098 	strb	r3, [r0, #152]	; 0x98
    1180:	e1a03c23 	lsr	r3, r3, #24
    1184:	e5c01099 	strb	r1, [r0, #153]	; 0x99
    1188:	e5c0209a 	strb	r2, [r0, #154]	; 0x9a
    118c:	e5c0309b 	strb	r3, [r0, #155]	; 0x9b
    1190:	ee1d3f90 	mrc	15, 0, r3, cr13, cr0, {4}
    1194:	e7e71453 	ubfx	r1, r3, #8, #8
    1198:	e7e72853 	ubfx	r2, r3, #16, #8
    119c:	e5c0309c 	strb	r3, [r0, #156]	; 0x9c
    11a0:	e1a03c23 	lsr	r3, r3, #24
    11a4:	e5c0109d 	strb	r1, [r0, #157]	; 0x9d
    11a8:	e5c0209e 	strb	r2, [r0, #158]	; 0x9e
    11ac:	e5c0309f 	strb	r3, [r0, #159]	; 0x9f
    11b0:	e12fff1e 	bx	lr

000011b4 <__restore_processor_state>:
    11b4:	e5d0c001 	ldrb	ip, [r0, #1]
    11b8:	e5d02000 	ldrb	r2, [r0]
    11bc:	e5d03002 	ldrb	r3, [r0, #2]
    11c0:	e5d01003 	ldrb	r1, [r0, #3]
    11c4:	e182240c 	orr	r2, r2, ip, lsl #8
    11c8:	e1823803 	orr	r3, r2, r3, lsl #16
    11cc:	e1833c01 	orr	r3, r3, r1, lsl #24
    11d0:	ee403f10 	mcr	15, 2, r3, cr0, cr0, {0}
    11d4:	e5d0c00d 	ldrb	ip, [r0, #13]
    11d8:	e5d0200c 	ldrb	r2, [r0, #12]
    11dc:	e5d0300e 	ldrb	r3, [r0, #14]
    11e0:	e5d0100f 	ldrb	r1, [r0, #15]
    11e4:	e182240c 	orr	r2, r2, ip, lsl #8
    11e8:	e1823803 	orr	r3, r2, r3, lsl #16
    11ec:	e1833c01 	orr	r3, r3, r1, lsl #24
    11f0:	ee013f50 	mcr	15, 0, r3, cr1, cr0, {2}
    11f4:	e5d0c01d 	ldrb	ip, [r0, #29]
    11f8:	e5d0201c 	ldrb	r2, [r0, #28]
    11fc:	e5d0301e 	ldrb	r3, [r0, #30]
    1200:	e5d0101f 	ldrb	r1, [r0, #31]
    1204:	e182240c 	orr	r2, r2, ip, lsl #8
    1208:	e1823803 	orr	r3, r2, r3, lsl #16
    120c:	e1833c01 	orr	r3, r3, r1, lsl #24
    1210:	ee023f10 	mcr	15, 0, r3, cr2, cr0, {0}
    1214:	f57ff04f 	dsb	sy
    1218:	f57ff06f 	isb	sy
    121c:	e5d0c021 	ldrb	ip, [r0, #33]	; 0x21
    1220:	e5d02020 	ldrb	r2, [r0, #32]
    1224:	e5d03022 	ldrb	r3, [r0, #34]	; 0x22
    1228:	e5d01023 	ldrb	r1, [r0, #35]	; 0x23
    122c:	e182240c 	orr	r2, r2, ip, lsl #8
    1230:	e1823803 	orr	r3, r2, r3, lsl #16
    1234:	e1833c01 	orr	r3, r3, r1, lsl #24
    1238:	ee023f30 	mcr	15, 0, r3, cr2, cr0, {1}
    123c:	f57ff04f 	dsb	sy
    1240:	f57ff06f 	isb	sy
    1244:	e5d0c025 	ldrb	ip, [r0, #37]	; 0x25
    1248:	e5d02024 	ldrb	r2, [r0, #36]	; 0x24
    124c:	e5d03026 	ldrb	r3, [r0, #38]	; 0x26
    1250:	e5d01027 	ldrb	r1, [r0, #39]	; 0x27
    1254:	e182240c 	orr	r2, r2, ip, lsl #8
    1258:	e1823803 	orr	r3, r2, r3, lsl #16
    125c:	e1833c01 	orr	r3, r3, r1, lsl #24
    1260:	ee023f50 	mcr	15, 0, r3, cr2, cr0, {2}
    1264:	f57ff04f 	dsb	sy
    1268:	f57ff06f 	isb	sy
    126c:	e5d0c029 	ldrb	ip, [r0, #41]	; 0x29
    1270:	e5d02028 	ldrb	r2, [r0, #40]	; 0x28
    1274:	e5d0302a 	ldrb	r3, [r0, #42]	; 0x2a
    1278:	e5d0102b 	ldrb	r1, [r0, #43]	; 0x2b
    127c:	e182240c 	orr	r2, r2, ip, lsl #8
    1280:	e1823803 	orr	r3, r2, r3, lsl #16
    1284:	e1833c01 	orr	r3, r3, r1, lsl #24
    1288:	ee033f10 	mcr	15, 0, r3, cr3, cr0, {0}
    128c:	e5d0c045 	ldrb	ip, [r0, #69]	; 0x45
    1290:	e5d02044 	ldrb	r2, [r0, #68]	; 0x44
    1294:	e5d03046 	ldrb	r3, [r0, #70]	; 0x46
    1298:	e5d01047 	ldrb	r1, [r0, #71]	; 0x47
    129c:	e182240c 	orr	r2, r2, ip, lsl #8
    12a0:	e1823803 	orr	r3, r2, r3, lsl #16
    12a4:	e1833c01 	orr	r3, r3, r1, lsl #24
    12a8:	ee073f14 	mcr	15, 0, r3, cr7, cr4, {0}
    12ac:	e5d0c05d 	ldrb	ip, [r0, #93]	; 0x5d
    12b0:	e5d0205c 	ldrb	r2, [r0, #92]	; 0x5c
    12b4:	e5d0305e 	ldrb	r3, [r0, #94]	; 0x5e
    12b8:	e5d0105f 	ldrb	r1, [r0, #95]	; 0x5f
    12bc:	e182240c 	orr	r2, r2, ip, lsl #8
    12c0:	e1823803 	orr	r3, r2, r3, lsl #16
    12c4:	e1833c01 	orr	r3, r3, r1, lsl #24
    12c8:	ee093fbc 	mcr	15, 0, r3, cr9, cr12, {5}
    12cc:	e5d0c061 	ldrb	ip, [r0, #97]	; 0x61
    12d0:	e5d02060 	ldrb	r2, [r0, #96]	; 0x60
    12d4:	e5d03062 	ldrb	r3, [r0, #98]	; 0x62
    12d8:	e5d01063 	ldrb	r1, [r0, #99]	; 0x63
    12dc:	e182240c 	orr	r2, r2, ip, lsl #8
    12e0:	e1823803 	orr	r3, r2, r3, lsl #16
    12e4:	e1833c01 	orr	r3, r3, r1, lsl #24
    12e8:	ee093f1d 	mcr	15, 0, r3, cr9, cr13, {0}
    12ec:	e5d0c065 	ldrb	ip, [r0, #101]	; 0x65
    12f0:	e5d02064 	ldrb	r2, [r0, #100]	; 0x64
    12f4:	e5d03066 	ldrb	r3, [r0, #102]	; 0x66
    12f8:	e5d01067 	ldrb	r1, [r0, #103]	; 0x67
    12fc:	e182240c 	orr	r2, r2, ip, lsl #8
    1300:	e1823803 	orr	r3, r2, r3, lsl #16
    1304:	e1833c01 	orr	r3, r3, r1, lsl #24
    1308:	ee093f3d 	mcr	15, 0, r3, cr9, cr13, {1}
    130c:	e5d0c069 	ldrb	ip, [r0, #105]	; 0x69
    1310:	e5d02068 	ldrb	r2, [r0, #104]	; 0x68
    1314:	e5d0306a 	ldrb	r3, [r0, #106]	; 0x6a
    1318:	e5d0106b 	ldrb	r1, [r0, #107]	; 0x6b
    131c:	e182240c 	orr	r2, r2, ip, lsl #8
    1320:	e1823803 	orr	r3, r2, r3, lsl #16
    1324:	e1833c01 	orr	r3, r3, r1, lsl #24
    1328:	ee093f5d 	mcr	15, 0, r3, cr9, cr13, {2}
    132c:	e5d0c06d 	ldrb	ip, [r0, #109]	; 0x6d
    1330:	e5d0206c 	ldrb	r2, [r0, #108]	; 0x6c
    1334:	e5d0306e 	ldrb	r3, [r0, #110]	; 0x6e
    1338:	e5d0106f 	ldrb	r1, [r0, #111]	; 0x6f
    133c:	e182240c 	orr	r2, r2, ip, lsl #8
    1340:	e1823803 	orr	r3, r2, r3, lsl #16
    1344:	e1833c01 	orr	r3, r3, r1, lsl #24
    1348:	ee093f1e 	mcr	15, 0, r3, cr9, cr14, {0}
    134c:	e5d0c071 	ldrb	ip, [r0, #113]	; 0x71
    1350:	e5d02070 	ldrb	r2, [r0, #112]	; 0x70
    1354:	e5d03072 	ldrb	r3, [r0, #114]	; 0x72
    1358:	e5d01073 	ldrb	r1, [r0, #115]	; 0x73
    135c:	e182240c 	orr	r2, r2, ip, lsl #8
    1360:	e1823803 	orr	r3, r2, r3, lsl #16
    1364:	e1833c01 	orr	r3, r3, r1, lsl #24
    1368:	ee093f3e 	mcr	15, 0, r3, cr9, cr14, {1}
    136c:	e5d0c075 	ldrb	ip, [r0, #117]	; 0x75
    1370:	e5d02074 	ldrb	r2, [r0, #116]	; 0x74
    1374:	e5d03076 	ldrb	r3, [r0, #118]	; 0x76
    1378:	e5d01077 	ldrb	r1, [r0, #119]	; 0x77
    137c:	e182240c 	orr	r2, r2, ip, lsl #8
    1380:	e1823803 	orr	r3, r2, r3, lsl #16
    1384:	e1833c01 	orr	r3, r3, r1, lsl #24
    1388:	ee093f5e 	mcr	15, 0, r3, cr9, cr14, {2}
    138c:	e5d0c079 	ldrb	ip, [r0, #121]	; 0x79
    1390:	e5d02078 	ldrb	r2, [r0, #120]	; 0x78
    1394:	e5d0307a 	ldrb	r3, [r0, #122]	; 0x7a
    1398:	e5d0107b 	ldrb	r1, [r0, #123]	; 0x7b
    139c:	e182240c 	orr	r2, r2, ip, lsl #8
    13a0:	e1823803 	orr	r3, r2, r3, lsl #16
    13a4:	e1833c01 	orr	r3, r3, r1, lsl #24
    13a8:	ee0a3f12 	mcr	15, 0, r3, cr10, cr2, {0}
    13ac:	e5d0c07d 	ldrb	ip, [r0, #125]	; 0x7d
    13b0:	e5d0207c 	ldrb	r2, [r0, #124]	; 0x7c
    13b4:	e5d0307e 	ldrb	r3, [r0, #126]	; 0x7e
    13b8:	e5d0107f 	ldrb	r1, [r0, #127]	; 0x7f
    13bc:	e182240c 	orr	r2, r2, ip, lsl #8
    13c0:	e1823803 	orr	r3, r2, r3, lsl #16
    13c4:	e1833c01 	orr	r3, r3, r1, lsl #24
    13c8:	ee0a3f32 	mcr	15, 0, r3, cr10, cr2, {1}
    13cc:	e5d0c081 	ldrb	ip, [r0, #129]	; 0x81
    13d0:	e5d02080 	ldrb	r2, [r0, #128]	; 0x80
    13d4:	e5d03082 	ldrb	r3, [r0, #130]	; 0x82
    13d8:	e5d01083 	ldrb	r1, [r0, #131]	; 0x83
    13dc:	e182240c 	orr	r2, r2, ip, lsl #8
    13e0:	e1823803 	orr	r3, r2, r3, lsl #16
    13e4:	e1833c01 	orr	r3, r3, r1, lsl #24
    13e8:	ee0c3f10 	mcr	15, 0, r3, cr12, cr0, {0}
    13ec:	e5d0c091 	ldrb	ip, [r0, #145]	; 0x91
    13f0:	e5d02090 	ldrb	r2, [r0, #144]	; 0x90
    13f4:	e5d03092 	ldrb	r3, [r0, #146]	; 0x92
    13f8:	e5d01093 	ldrb	r1, [r0, #147]	; 0x93
    13fc:	e182240c 	orr	r2, r2, ip, lsl #8
    1400:	e1823803 	orr	r3, r2, r3, lsl #16
    1404:	e1833c01 	orr	r3, r3, r1, lsl #24
    1408:	ee0d3f30 	mcr	15, 0, r3, cr13, cr0, {1}
    140c:	e5d0c095 	ldrb	ip, [r0, #149]	; 0x95
    1410:	e5d02094 	ldrb	r2, [r0, #148]	; 0x94
    1414:	e5d03096 	ldrb	r3, [r0, #150]	; 0x96
    1418:	e5d01097 	ldrb	r1, [r0, #151]	; 0x97
    141c:	e182240c 	orr	r2, r2, ip, lsl #8
    1420:	e1823803 	orr	r3, r2, r3, lsl #16
    1424:	e1833c01 	orr	r3, r3, r1, lsl #24
    1428:	ee0d3f50 	mcr	15, 0, r3, cr13, cr0, {2}
    142c:	e5d0c099 	ldrb	ip, [r0, #153]	; 0x99
    1430:	e5d02098 	ldrb	r2, [r0, #152]	; 0x98
    1434:	e5d0309a 	ldrb	r3, [r0, #154]	; 0x9a
    1438:	e5d0109b 	ldrb	r1, [r0, #155]	; 0x9b
    143c:	e182240c 	orr	r2, r2, ip, lsl #8
    1440:	e1823803 	orr	r3, r2, r3, lsl #16
    1444:	e1833c01 	orr	r3, r3, r1, lsl #24
    1448:	ee0d3f70 	mcr	15, 0, r3, cr13, cr0, {3}
    144c:	e5d0c09d 	ldrb	ip, [r0, #157]	; 0x9d
    1450:	e5d0209c 	ldrb	r2, [r0, #156]	; 0x9c
    1454:	e5d0309e 	ldrb	r3, [r0, #158]	; 0x9e
    1458:	e5d0109f 	ldrb	r1, [r0, #159]	; 0x9f
    145c:	e182240c 	orr	r2, r2, ip, lsl #8
    1460:	e1823803 	orr	r3, r2, r3, lsl #16
    1464:	e1833c01 	orr	r3, r3, r1, lsl #24
    1468:	ee0d3f90 	mcr	15, 0, r3, cr13, cr0, {4}
    146c:	f57ff04f 	dsb	sy
    1470:	f57ff06f 	isb	sy
    1474:	e12fff1e 	bx	lr

00001478 <disable_cache_invalidate>:
    1478:	e3a03000 	mov	r3, #0
    147c:	e34f31c2 	movt	r3, #61890	; 0xf1c2
    1480:	e5932d3c 	ldr	r2, [r3, #3388]	; 0xd3c
    1484:	e3822003 	orr	r2, r2, #3
    1488:	e5832d3c 	str	r2, [r3, #3388]	; 0xd3c
    148c:	e12fff1e 	bx	lr

00001490 <set_copro_default>:
    1490:	e3a03002 	mov	r3, #2
    1494:	ee403f10 	mcr	15, 2, r3, cr0, cr0, {0}
    1498:	e3003878 	movw	r3, #2168	; 0x878
    149c:	e34030c5 	movt	r3, #197	; 0xc5
    14a0:	ee013f10 	mcr	15, 0, r3, cr1, cr0, {0}
    14a4:	e3063040 	movw	r3, #24640	; 0x6040
    14a8:	ee013f30 	mcr	15, 0, r3, cr1, cr0, {1}
    14ac:	e3a03000 	mov	r3, #0
    14b0:	ee013f50 	mcr	15, 0, r3, cr1, cr0, {2}
    14b4:	ee023f10 	mcr	15, 0, r3, cr2, cr0, {0}
    14b8:	ee023f30 	mcr	15, 0, r3, cr2, cr0, {1}
    14bc:	ee023f50 	mcr	15, 0, r3, cr2, cr0, {2}
    14c0:	ee033f10 	mcr	15, 0, r3, cr3, cr0, {0}
    14c4:	ee053f10 	mcr	15, 0, r3, cr5, cr0, {0}
    14c8:	ee053f30 	mcr	15, 0, r3, cr5, cr0, {1}
    14cc:	ee053f11 	mcr	15, 0, r3, cr5, cr1, {0}
    14d0:	ee053f31 	mcr	15, 0, r3, cr5, cr1, {1}
    14d4:	ee063f10 	mcr	15, 0, r3, cr6, cr0, {0}
    14d8:	ee063f50 	mcr	15, 0, r3, cr6, cr0, {2}
    14dc:	ee073f14 	mcr	15, 0, r3, cr7, cr4, {0}
    14e0:	ee093f1e 	mcr	15, 0, r3, cr9, cr14, {0}
    14e4:	ee093f3e 	mcr	15, 0, r3, cr9, cr14, {1}
    14e8:	ee093f5e 	mcr	15, 0, r3, cr9, cr14, {2}
    14ec:	e30821a4 	movw	r2, #33188	; 0x81a4
    14f0:	e340200a 	movt	r2, #10
    14f4:	ee0a2f12 	mcr	15, 0, r2, cr10, cr2, {0}
    14f8:	e30428e0 	movw	r2, #18656	; 0x48e0
    14fc:	e34424e0 	movt	r2, #17632	; 0x44e0
    1500:	ee0a2f32 	mcr	15, 0, r2, cr10, cr2, {1}
    1504:	ee0d3f30 	mcr	15, 0, r3, cr13, cr0, {1}
    1508:	ee0d3f50 	mcr	15, 0, r3, cr13, cr0, {2}
    150c:	ee0d3f70 	mcr	15, 0, r3, cr13, cr0, {3}
    1510:	ee0d3f90 	mcr	15, 0, r3, cr13, cr0, {4}
    1514:	f57ff04f 	dsb	sy
    1518:	f57ff06f 	isb	sy
    151c:	e12fff1e 	bx	lr

00001520 <save_processor_state>:
    1520:	e3020dc0 	movw	r0, #11712	; 0x2dc0
    1524:	e3400000 	movt	r0, #0
    1528:	eafffe20 	b	db0 <__save_processor_state>

0000152c <restore_processor_state>:
    152c:	e3020dc0 	movw	r0, #11712	; 0x2dc0
    1530:	e3400000 	movt	r0, #0
    1534:	eaffff1e 	b	11b4 <__restore_processor_state>

00001538 <restore_processor_ttbr0>:
    1538:	e3023dc0 	movw	r3, #11712	; 0x2dc0
    153c:	e3403000 	movt	r3, #0
    1540:	e593301c 	ldr	r3, [r3, #28]
    1544:	ee023f10 	mcr	15, 0, r3, cr2, cr0, {0}
    1548:	e12fff1e 	bx	lr

0000154c <set_ttbr0>:
    154c:	ee123f30 	mrc	15, 0, r3, cr2, cr0, {1}
    1550:	ee023f10 	mcr	15, 0, r3, cr2, cr0, {0}
    1554:	f57ff06f 	isb	sy
    1558:	e12fff1e 	bx	lr

0000155c <set_serial_clk>:
    155c:	e92d4070 	push	{r4, r5, r6, lr}
    1560:	e1a04000 	mov	r4, r0
    1564:	eb0004cb 	bl	2898 <mem_get_ba>
    1568:	e5903058 	ldr	r3, [r0, #88]	; 0x58
    156c:	e7e12c53 	ubfx	r2, r3, #24, #2
    1570:	e3520003 	cmp	r2, #3
    1574:	13021c1c 	movwne	r1, #11292	; 0x2c1c
    1578:	03a00000 	moveq	r0, #0
    157c:	13401000 	movtne	r1, #0
    1580:	17910102 	ldrne	r0, [r1, r2, lsl #2]
    1584:	e203101f 	and	r1, r3, #31
    1588:	e2811001 	add	r1, r1, #1
    158c:	e7e13853 	ubfx	r3, r3, #16, #2
    1590:	e1a01311 	lsl	r1, r1, r3
    1594:	eb000347 	bl	22b8 <__aeabi_uidiv>
    1598:	e3540000 	cmp	r4, #0
    159c:	e3a04000 	mov	r4, #0
    15a0:	134f41c2 	movtne	r4, #61890	; 0xf1c2
    15a4:	13023e60 	movwne	r3, #11872	; 0x2e60
    15a8:	1594206c 	ldrne	r2, [r4, #108]	; 0x6c
    15ac:	034041c2 	movteq	r4, #450	; 0x1c2
    15b0:	13403000 	movtne	r3, #0
    15b4:	e1a05000 	mov	r5, r0
    15b8:	15832000 	strne	r2, [r3]
    15bc:	159422d8 	ldrne	r2, [r4, #728]	; 0x2d8
    15c0:	15832004 	strne	r2, [r3, #4]
    15c4:	e59432d8 	ldr	r3, [r4, #728]	; 0x2d8
    15c8:	e3c33801 	bic	r3, r3, #65536	; 0x10000
    15cc:	e58432d8 	str	r3, [r4, #728]	; 0x2d8
    15d0:	e59432d8 	ldr	r3, [r4, #728]	; 0x2d8
    15d4:	e3833801 	orr	r3, r3, #65536	; 0x10000
    15d8:	e58432d8 	str	r3, [r4, #728]	; 0x2d8
    15dc:	ebfffc01 	bl	5e8 <change_runtime_env>
    15e0:	e3a00001 	mov	r0, #1
    15e4:	ebfffc0b 	bl	618 <delay_us>
    15e8:	e594306c 	ldr	r3, [r4, #108]	; 0x6c
    15ec:	e1a00005 	mov	r0, r5
    15f0:	e3c33801 	bic	r3, r3, #65536	; 0x10000
    15f4:	e584306c 	str	r3, [r4, #108]	; 0x6c
    15f8:	e594306c 	ldr	r3, [r4, #108]	; 0x6c
    15fc:	e3833801 	orr	r3, r3, #65536	; 0x10000
    1600:	e584306c 	str	r3, [r4, #108]	; 0x6c
    1604:	e8bd8070 	pop	{r4, r5, r6, pc}

00001608 <serial_exit>:
    1608:	e3023e60 	movw	r3, #11872	; 0x2e60
    160c:	e3a02000 	mov	r2, #0
    1610:	e3403000 	movt	r3, #0
    1614:	e34f21c2 	movt	r2, #61890	; 0xf1c2
    1618:	e5930000 	ldr	r0, [r3]
    161c:	e3a01000 	mov	r1, #0
    1620:	e582006c 	str	r0, [r2, #108]	; 0x6c
    1624:	e5930004 	ldr	r0, [r3, #4]
    1628:	e58202d8 	str	r0, [r2, #728]	; 0x2d8
    162c:	e5930008 	ldr	r0, [r3, #8]
    1630:	e58208b4 	str	r0, [r2, #2228]	; 0x8b4
    1634:	e583100c 	str	r1, [r3, #12]
    1638:	e12fff1e 	bx	lr

0000163c <serial_init_nommu>:
    163c:	e3a03000 	mov	r3, #0
    1640:	e1a00003 	mov	r0, r3
    1644:	e34031c2 	movt	r3, #450	; 0x1c2
    1648:	e59328b4 	ldr	r2, [r3, #2228]	; 0x8b4
    164c:	e92d41f0 	push	{r4, r5, r6, r7, r8, lr}
    1650:	e3c22807 	bic	r2, r2, #458752	; 0x70000
    1654:	e3c22c07 	bic	r2, r2, #1792	; 0x700
    1658:	e58328b4 	str	r2, [r3, #2228]	; 0x8b4
    165c:	e59328b4 	ldr	r2, [r3, #2228]	; 0x8b4
    1660:	e3a08000 	mov	r8, #0
    1664:	e3a07003 	mov	r7, #3
    1668:	e3a060e1 	mov	r6, #225	; 0xe1
    166c:	e3822803 	orr	r2, r2, #196608	; 0x30000
    1670:	e3822c03 	orr	r2, r2, #768	; 0x300
    1674:	e58328b4 	str	r2, [r3, #2228]	; 0x8b4
    1678:	ebffffb7 	bl	155c <set_serial_clk>
    167c:	e3a03902 	mov	r3, #32768	; 0x8000
    1680:	e34031c2 	movt	r3, #450	; 0x1c2
    1684:	e30b23c5 	movw	r2, #46021	; 0xb3c5
    1688:	e593100c 	ldr	r1, [r3, #12]
    168c:	e34921a2 	movt	r2, #37282	; 0x91a2
    1690:	e3a0e001 	mov	lr, #1
    1694:	e583e0a4 	str	lr, [r3, #164]	; 0xa4
    1698:	e3814080 	orr	r4, r1, #128	; 0x80
    169c:	e583400c 	str	r4, [r3, #12]
    16a0:	e302ce60 	movw	ip, #11872	; 0x2e60
    16a4:	e3c11080 	bic	r1, r1, #128	; 0x80
    16a8:	e340c000 	movt	ip, #0
    16ac:	e2800ae1 	add	r0, r0, #921600	; 0xe1000
    16b0:	e0854290 	umull	r4, r5, r0, r2
    16b4:	e7e72a55 	ubfx	r2, r5, #20, #8
    16b8:	e1a00e25 	lsr	r0, r5, #28
    16bc:	e5830004 	str	r0, [r3, #4]
    16c0:	e5832000 	str	r2, [r3]
    16c4:	e583100c 	str	r1, [r3, #12]
    16c8:	e58380a4 	str	r8, [r3, #164]	; 0xa4
    16cc:	e583700c 	str	r7, [r3, #12]
    16d0:	e5836008 	str	r6, [r3, #8]
    16d4:	e58ce00c 	str	lr, [ip, #12]
    16d8:	e8bd81f0 	pop	{r4, r5, r6, r7, r8, pc}

000016dc <serial_puts_nommu>:
    16dc:	e3023e60 	movw	r3, #11872	; 0x2e60
    16e0:	e3403000 	movt	r3, #0
    16e4:	e593300c 	ldr	r3, [r3, #12]
    16e8:	e3530000 	cmp	r3, #0
    16ec:	0a000022 	beq	177c <serial_puts_nommu+0xa0>
    16f0:	e5d03000 	ldrb	r3, [r0]
    16f4:	e3530000 	cmp	r3, #0
    16f8:	0a00001d 	beq	1774 <serial_puts_nommu+0x98>
    16fc:	e3a02902 	mov	r2, #32768	; 0x8000
    1700:	e34021c2 	movt	r2, #450	; 0x1c2
    1704:	e52de004 	push	{lr}		; (str lr, [sp, #-4]!)
    1708:	e1a0c002 	mov	ip, r2
    170c:	e3a0e00d 	mov	lr, #13
    1710:	e353000a 	cmp	r3, #10
    1714:	0a00000d 	beq	1750 <serial_puts_nommu+0x74>
    1718:	e4d01001 	ldrb	r1, [r0], #1
    171c:	e592307c 	ldr	r3, [r2, #124]	; 0x7c
    1720:	e3130002 	tst	r3, #2
    1724:	0afffffc 	beq	171c <serial_puts_nommu+0x40>
    1728:	f57ff04f 	dsb	sy
    172c:	f57ff06f 	isb	sy
    1730:	e58c1000 	str	r1, [ip]
    1734:	f57ff04f 	dsb	sy
    1738:	f57ff06f 	isb	sy
    173c:	e5d03000 	ldrb	r3, [r0]
    1740:	e3530000 	cmp	r3, #0
    1744:	1afffff1 	bne	1710 <serial_puts_nommu+0x34>
    1748:	e3a00000 	mov	r0, #0
    174c:	e49df004 	pop	{pc}		; (ldr pc, [sp], #4)
    1750:	e592307c 	ldr	r3, [r2, #124]	; 0x7c
    1754:	e3130002 	tst	r3, #2
    1758:	0afffffc 	beq	1750 <serial_puts_nommu+0x74>
    175c:	f57ff04f 	dsb	sy
    1760:	f57ff06f 	isb	sy
    1764:	e58ce000 	str	lr, [ip]
    1768:	f57ff04f 	dsb	sy
    176c:	f57ff06f 	isb	sy
    1770:	eaffffe8 	b	1718 <serial_puts_nommu+0x3c>
    1774:	e3a00000 	mov	r0, #0
    1778:	e12fff1e 	bx	lr
    177c:	e3e00000 	mvn	r0, #0
    1780:	e12fff1e 	bx	lr

00001784 <serial_gets_nommu>:
    1784:	e3023e60 	movw	r3, #11872	; 0x2e60
    1788:	e3403000 	movt	r3, #0
    178c:	e593300c 	ldr	r3, [r3, #12]
    1790:	e3530000 	cmp	r3, #0
    1794:	1a000001 	bne	17a0 <serial_gets_nommu+0x1c>
    1798:	e3e00000 	mvn	r0, #0
    179c:	e12fff1e 	bx	lr
    17a0:	e3510000 	cmp	r1, #0
    17a4:	0a000018 	beq	180c <serial_gets_nommu+0x88>
    17a8:	e3a0c902 	mov	ip, #32768	; 0x8000
    17ac:	e52de004 	push	{lr}		; (str lr, [sp, #-4]!)
    17b0:	e340c1c2 	movt	ip, #450	; 0x1c2
    17b4:	e240e001 	sub	lr, r0, #1
    17b8:	e3a00000 	mov	r0, #0
    17bc:	e30f3fff 	movw	r3, #65535	; 0xffff
    17c0:	ea000001 	b	17cc <serial_gets_nommu+0x48>
    17c4:	e2533001 	subs	r3, r3, #1
    17c8:	3a000004 	bcc	17e0 <serial_gets_nommu+0x5c>
    17cc:	e59c207c 	ldr	r2, [ip, #124]	; 0x7c
    17d0:	e3120008 	tst	r2, #8
    17d4:	0afffffa 	beq	17c4 <serial_gets_nommu+0x40>
    17d8:	e3530000 	cmp	r3, #0
    17dc:	0a000008 	beq	1804 <serial_gets_nommu+0x80>
    17e0:	e59c3000 	ldr	r3, [ip]
    17e4:	e2800001 	add	r0, r0, #1
    17e8:	e21330ff 	ands	r3, r3, #255	; 0xff
    17ec:	0a000008 	beq	1814 <serial_gets_nommu+0x90>
    17f0:	e1510000 	cmp	r1, r0
    17f4:	e5ee3001 	strb	r3, [lr, #1]!
    17f8:	1affffef 	bne	17bc <serial_gets_nommu+0x38>
    17fc:	e2810001 	add	r0, r1, #1
    1800:	e49df004 	pop	{pc}		; (ldr pc, [sp], #4)
    1804:	e2800001 	add	r0, r0, #1
    1808:	e49df004 	pop	{pc}		; (ldr pc, [sp], #4)
    180c:	e3a00001 	mov	r0, #1
    1810:	e12fff1e 	bx	lr
    1814:	e49df004 	pop	{pc}		; (ldr pc, [sp], #4)

00001818 <serial_init_manager>:
    1818:	e3023e60 	movw	r3, #11872	; 0x2e60
    181c:	e3a02001 	mov	r2, #1
    1820:	e3403000 	movt	r3, #0
    1824:	e583200c 	str	r2, [r3, #12]
    1828:	e12fff1e 	bx	lr

0000182c <serial_exit_manager>:
    182c:	e3023e60 	movw	r3, #11872	; 0x2e60
    1830:	e3a02000 	mov	r2, #0
    1834:	e3403000 	movt	r3, #0
    1838:	e583200c 	str	r2, [r3, #12]
    183c:	e12fff1e 	bx	lr

00001840 <serial_init>:
    1840:	e3a03000 	mov	r3, #0
    1844:	e3a00001 	mov	r0, #1
    1848:	e34f31c2 	movt	r3, #61890	; 0xf1c2
    184c:	e59328b4 	ldr	r2, [r3, #2228]	; 0x8b4
    1850:	e92d41f0 	push	{r4, r5, r6, r7, r8, lr}
    1854:	e3024e60 	movw	r4, #11872	; 0x2e60
    1858:	e3404000 	movt	r4, #0
    185c:	e3a08000 	mov	r8, #0
    1860:	e5842008 	str	r2, [r4, #8]
    1864:	e3a05003 	mov	r5, #3
    1868:	e59328b4 	ldr	r2, [r3, #2228]	; 0x8b4
    186c:	e3c22807 	bic	r2, r2, #458752	; 0x70000
    1870:	e3c22c07 	bic	r2, r2, #1792	; 0x700
    1874:	e58328b4 	str	r2, [r3, #2228]	; 0x8b4
    1878:	e59328b4 	ldr	r2, [r3, #2228]	; 0x8b4
    187c:	e3822803 	orr	r2, r2, #196608	; 0x30000
    1880:	e3822c03 	orr	r2, r2, #768	; 0x300
    1884:	e58328b4 	str	r2, [r3, #2228]	; 0x8b4
    1888:	ebffff33 	bl	155c <set_serial_clk>
    188c:	e30b23c5 	movw	r2, #46021	; 0xb3c5
    1890:	e34921a2 	movt	r2, #37282	; 0x91a2
    1894:	e3a03902 	mov	r3, #32768	; 0x8000
    1898:	e34f31c2 	movt	r3, #61890	; 0xf1c2
    189c:	e3a0c001 	mov	ip, #1
    18a0:	e593100c 	ldr	r1, [r3, #12]
    18a4:	e583c0a4 	str	ip, [r3, #164]	; 0xa4
    18a8:	e381e080 	orr	lr, r1, #128	; 0x80
    18ac:	e3c11080 	bic	r1, r1, #128	; 0x80
    18b0:	e583e00c 	str	lr, [r3, #12]
    18b4:	e3a0e0e1 	mov	lr, #225	; 0xe1
    18b8:	e2800ae1 	add	r0, r0, #921600	; 0xe1000
    18bc:	e0876290 	umull	r6, r7, r0, r2
    18c0:	e7e72a57 	ubfx	r2, r7, #20, #8
    18c4:	e1a00e27 	lsr	r0, r7, #28
    18c8:	e5830004 	str	r0, [r3, #4]
    18cc:	e5832000 	str	r2, [r3]
    18d0:	e583100c 	str	r1, [r3, #12]
    18d4:	e58380a4 	str	r8, [r3, #164]	; 0xa4
    18d8:	e583500c 	str	r5, [r3, #12]
    18dc:	e583e008 	str	lr, [r3, #8]
    18e0:	e584c00c 	str	ip, [r4, #12]
    18e4:	e8bd81f0 	pop	{r4, r5, r6, r7, r8, pc}

000018e8 <serial_puts>:
    18e8:	e3023e60 	movw	r3, #11872	; 0x2e60
    18ec:	e3403000 	movt	r3, #0
    18f0:	e593300c 	ldr	r3, [r3, #12]
    18f4:	e3530000 	cmp	r3, #0
    18f8:	0a000022 	beq	1988 <serial_puts+0xa0>
    18fc:	e5d03000 	ldrb	r3, [r0]
    1900:	e3530000 	cmp	r3, #0
    1904:	0a00001d 	beq	1980 <serial_puts+0x98>
    1908:	e3a02902 	mov	r2, #32768	; 0x8000
    190c:	e34f21c2 	movt	r2, #61890	; 0xf1c2
    1910:	e52de004 	push	{lr}		; (str lr, [sp, #-4]!)
    1914:	e1a0c002 	mov	ip, r2
    1918:	e3a0e00d 	mov	lr, #13
    191c:	e353000a 	cmp	r3, #10
    1920:	0a00000d 	beq	195c <serial_puts+0x74>
    1924:	e4d01001 	ldrb	r1, [r0], #1
    1928:	e592307c 	ldr	r3, [r2, #124]	; 0x7c
    192c:	e3130002 	tst	r3, #2
    1930:	0afffffc 	beq	1928 <serial_puts+0x40>
    1934:	f57ff04f 	dsb	sy
    1938:	f57ff06f 	isb	sy
    193c:	e58c1000 	str	r1, [ip]
    1940:	f57ff04f 	dsb	sy
    1944:	f57ff06f 	isb	sy
    1948:	e5d03000 	ldrb	r3, [r0]
    194c:	e3530000 	cmp	r3, #0
    1950:	1afffff1 	bne	191c <serial_puts+0x34>
    1954:	e3a00000 	mov	r0, #0
    1958:	e49df004 	pop	{pc}		; (ldr pc, [sp], #4)
    195c:	e592307c 	ldr	r3, [r2, #124]	; 0x7c
    1960:	e3130002 	tst	r3, #2
    1964:	0afffffc 	beq	195c <serial_puts+0x74>
    1968:	f57ff04f 	dsb	sy
    196c:	f57ff06f 	isb	sy
    1970:	e58ce000 	str	lr, [ip]
    1974:	f57ff04f 	dsb	sy
    1978:	f57ff06f 	isb	sy
    197c:	eaffffe8 	b	1924 <serial_puts+0x3c>
    1980:	e3a00000 	mov	r0, #0
    1984:	e12fff1e 	bx	lr
    1988:	e3e00000 	mvn	r0, #0
    198c:	e12fff1e 	bx	lr

00001990 <serial_gets>:
    1990:	e3023e60 	movw	r3, #11872	; 0x2e60
    1994:	e3403000 	movt	r3, #0
    1998:	e593300c 	ldr	r3, [r3, #12]
    199c:	e3530000 	cmp	r3, #0
    19a0:	1a000001 	bne	19ac <serial_gets+0x1c>
    19a4:	e3e00000 	mvn	r0, #0
    19a8:	e12fff1e 	bx	lr
    19ac:	e3510000 	cmp	r1, #0
    19b0:	0a000018 	beq	1a18 <serial_gets+0x88>
    19b4:	e3a0c902 	mov	ip, #32768	; 0x8000
    19b8:	e52de004 	push	{lr}		; (str lr, [sp, #-4]!)
    19bc:	e34fc1c2 	movt	ip, #61890	; 0xf1c2
    19c0:	e240e001 	sub	lr, r0, #1
    19c4:	e3a00000 	mov	r0, #0
    19c8:	e30f3fff 	movw	r3, #65535	; 0xffff
    19cc:	ea000001 	b	19d8 <serial_gets+0x48>
    19d0:	e2533001 	subs	r3, r3, #1
    19d4:	3a000004 	bcc	19ec <serial_gets+0x5c>
    19d8:	e59c207c 	ldr	r2, [ip, #124]	; 0x7c
    19dc:	e3120008 	tst	r2, #8
    19e0:	0afffffa 	beq	19d0 <serial_gets+0x40>
    19e4:	e3530000 	cmp	r3, #0
    19e8:	0a000008 	beq	1a10 <serial_gets+0x80>
    19ec:	e59c3000 	ldr	r3, [ip]
    19f0:	e2800001 	add	r0, r0, #1
    19f4:	e21330ff 	ands	r3, r3, #255	; 0xff
    19f8:	0a000008 	beq	1a20 <serial_gets+0x90>
    19fc:	e1510000 	cmp	r1, r0
    1a00:	e5ee3001 	strb	r3, [lr, #1]!
    1a04:	1affffef 	bne	19c8 <serial_gets+0x38>
    1a08:	e2810001 	add	r0, r1, #1
    1a0c:	e49df004 	pop	{pc}		; (ldr pc, [sp], #4)
    1a10:	e2800001 	add	r0, r0, #1
    1a14:	e49df004 	pop	{pc}		; (ldr pc, [sp], #4)
    1a18:	e3a00001 	mov	r0, #1
    1a1c:	e12fff1e 	bx	lr
    1a20:	e49df004 	pop	{pc}		; (ldr pc, [sp], #4)

00001a24 <utoa>:
    1a24:	e302cd48 	movw	ip, #11592	; 0x2d48
    1a28:	e3500000 	cmp	r0, #0
    1a2c:	e340c000 	movt	ip, #0
    1a30:	e92d43f0 	push	{r4, r5, r6, r7, r8, r9, lr}
    1a34:	e1a05000 	mov	r5, r0
    1a38:	e1a08001 	mov	r8, r1
    1a3c:	e1a07002 	mov	r7, r2
    1a40:	e8bc000f 	ldm	ip!, {r0, r1, r2, r3}
    1a44:	e24dd02c 	sub	sp, sp, #44	; 0x2c
    1a48:	e28de014 	add	lr, sp, #20
    1a4c:	128d9003 	addne	r9, sp, #3
    1a50:	13a06000 	movne	r6, #0
    1a54:	e59cc000 	ldr	ip, [ip]
    1a58:	e8ae000f 	stmia	lr!, {r0, r1, r2, r3}
    1a5c:	e5cec000 	strb	ip, [lr]
    1a60:	1a000001 	bne	1a6c <utoa+0x48>
    1a64:	ea00001b 	b	1ad8 <utoa+0xb4>
    1a68:	e1a06003 	mov	r6, r3
    1a6c:	e1a00005 	mov	r0, r5
    1a70:	e1a01007 	mov	r1, r7
    1a74:	eb000269 	bl	2420 <__aeabi_uidivmod>
    1a78:	e28d3028 	add	r3, sp, #40	; 0x28
    1a7c:	e1a00005 	mov	r0, r5
    1a80:	e0833001 	add	r3, r3, r1
    1a84:	e1a01007 	mov	r1, r7
    1a88:	e5534014 	ldrb	r4, [r3, #-20]	; 0xffffffec
    1a8c:	e5e94001 	strb	r4, [r9, #1]!
    1a90:	eb000208 	bl	22b8 <__aeabi_uidiv>
    1a94:	e2863001 	add	r3, r6, #1
    1a98:	e2505000 	subs	r5, r0, #0
    1a9c:	1afffff1 	bne	1a68 <utoa+0x44>
    1aa0:	e28d1004 	add	r1, sp, #4
    1aa4:	e2482001 	sub	r2, r8, #1
    1aa8:	e0813006 	add	r3, r1, r6
    1aac:	ea000000 	b	1ab4 <utoa+0x90>
    1ab0:	e5734001 	ldrb	r4, [r3, #-1]!
    1ab4:	e1530001 	cmp	r3, r1
    1ab8:	e5e24001 	strb	r4, [r2, #1]!
    1abc:	1afffffb 	bne	1ab0 <utoa+0x8c>
    1ac0:	e0886006 	add	r6, r8, r6
    1ac4:	e3a03000 	mov	r3, #0
    1ac8:	e1a00008 	mov	r0, r8
    1acc:	e5c63001 	strb	r3, [r6, #1]
    1ad0:	e28dd02c 	add	sp, sp, #44	; 0x2c
    1ad4:	e8bd83f0 	pop	{r4, r5, r6, r7, r8, r9, pc}
    1ad8:	e3a03030 	mov	r3, #48	; 0x30
    1adc:	e1a00008 	mov	r0, r8
    1ae0:	e5c85001 	strb	r5, [r8, #1]
    1ae4:	e5c83000 	strb	r3, [r8]
    1ae8:	e28dd02c 	add	sp, sp, #44	; 0x2c
    1aec:	e8bd83f0 	pop	{r4, r5, r6, r7, r8, r9, pc}

00001af0 <print_align>:
    1af0:	e92d4070 	push	{r4, r5, r6, lr}
    1af4:	e302ed5c 	movw	lr, #11612	; 0x2d5c
    1af8:	e340e000 	movt	lr, #0
    1afc:	e1a06001 	mov	r6, r1
    1b00:	e1a05002 	mov	r5, r2
    1b04:	e1a0c000 	mov	ip, r0
    1b08:	e8be000f 	ldm	lr!, {r0, r1, r2, r3}
    1b0c:	e24dd018 	sub	sp, sp, #24
    1b10:	e1560005 	cmp	r6, r5
    1b14:	e28d4004 	add	r4, sp, #4
    1b18:	e59ee000 	ldr	lr, [lr]
    1b1c:	e8a4000f 	stmia	r4!, {r0, r1, r2, r3}
    1b20:	a3a00000 	movge	r0, #0
    1b24:	e5c4e000 	strb	lr, [r4]
    1b28:	aa000011 	bge	1b74 <print_align+0x84>
    1b2c:	e5dc3000 	ldrb	r3, [ip]
    1b30:	e0660005 	rsb	r0, r6, r5
    1b34:	e3530000 	cmp	r3, #0
    1b38:	0a000002 	beq	1b48 <print_align+0x58>
    1b3c:	e5fc3001 	ldrb	r3, [ip, #1]!
    1b40:	e3530000 	cmp	r3, #0
    1b44:	1afffffc 	bne	1b3c <print_align+0x4c>
    1b48:	e1a0300c 	mov	r3, ip
    1b4c:	e28d4004 	add	r4, sp, #4
    1b50:	e1a0e000 	mov	lr, r0
    1b54:	ea000001 	b	1b60 <print_align+0x70>
    1b58:	e25ee001 	subs	lr, lr, #1
    1b5c:	0a000006 	beq	1b7c <print_align+0x8c>
    1b60:	e4d4c001 	ldrb	ip, [r4], #1
    1b64:	e1a02003 	mov	r2, r3
    1b68:	e35c0000 	cmp	ip, #0
    1b6c:	e4c3c001 	strb	ip, [r3], #1
    1b70:	1afffff8 	bne	1b58 <print_align+0x68>
    1b74:	e28dd018 	add	sp, sp, #24
    1b78:	e8bd8070 	pop	{r4, r5, r6, pc}
    1b7c:	e5c2e001 	strb	lr, [r2, #1]
    1b80:	e28dd018 	add	sp, sp, #24
    1b84:	e8bd8070 	pop	{r4, r5, r6, pc}

00001b88 <itoa.constprop.0>:
    1b88:	e92d4070 	push	{r4, r5, r6, lr}
    1b8c:	e3024d48 	movw	r4, #11592	; 0x2d48
    1b90:	e3404000 	movt	r4, #0
    1b94:	e1a0c000 	mov	ip, r0
    1b98:	e1a0e001 	mov	lr, r1
    1b9c:	e24dd028 	sub	sp, sp, #40	; 0x28
    1ba0:	e8b4000f 	ldm	r4!, {r0, r1, r2, r3}
    1ba4:	e28d5014 	add	r5, sp, #20
    1ba8:	e35c0000 	cmp	ip, #0
    1bac:	e5944000 	ldr	r4, [r4]
    1bb0:	e8a5000f 	stmia	r5!, {r0, r1, r2, r3}
    1bb4:	e5c54000 	strb	r4, [r5]
    1bb8:	0a000029 	beq	1c64 <itoa.constprop.0+0xdc>
    1bbc:	e3064667 	movw	r4, #26215	; 0x6667
    1bc0:	b26cc000 	rsblt	ip, ip, #0
    1bc4:	b3a05001 	movlt	r5, #1
    1bc8:	a3a05000 	movge	r5, #0
    1bcc:	e28d0003 	add	r0, sp, #3
    1bd0:	e3464666 	movt	r4, #26214	; 0x6666
    1bd4:	e3a01000 	mov	r1, #0
    1bd8:	ea000000 	b	1be0 <itoa.constprop.0+0x58>
    1bdc:	e1a01006 	mov	r1, r6
    1be0:	e0c3249c 	smull	r2, r3, ip, r4
    1be4:	e1a02fcc 	asr	r2, ip, #31
    1be8:	e2816001 	add	r6, r1, #1
    1bec:	e0622143 	rsb	r2, r2, r3, asr #2
    1bf0:	e1a03182 	lsl	r3, r2, #3
    1bf4:	e0833082 	add	r3, r3, r2, lsl #1
    1bf8:	e063300c 	rsb	r3, r3, ip
    1bfc:	e252c000 	subs	ip, r2, #0
    1c00:	e28d2028 	add	r2, sp, #40	; 0x28
    1c04:	e0823003 	add	r3, r2, r3
    1c08:	e5533014 	ldrb	r3, [r3, #-20]	; 0xffffffec
    1c0c:	e5e03001 	strb	r3, [r0, #1]!
    1c10:	1afffff1 	bne	1bdc <itoa.constprop.0+0x54>
    1c14:	e3550000 	cmp	r5, #0
    1c18:	e28dc004 	add	ip, sp, #4
    1c1c:	13a05001 	movne	r5, #1
    1c20:	e2450001 	sub	r0, r5, #1
    1c24:	13a0202d 	movne	r2, #45	; 0x2d
    1c28:	e08e0000 	add	r0, lr, r0
    1c2c:	15ce2000 	strbne	r2, [lr]
    1c30:	e08c2001 	add	r2, ip, r1
    1c34:	ea000000 	b	1c3c <itoa.constprop.0+0xb4>
    1c38:	e5723001 	ldrb	r3, [r2, #-1]!
    1c3c:	e15c0002 	cmp	ip, r2
    1c40:	e5e03001 	strb	r3, [r0, #1]!
    1c44:	1afffffb 	bne	1c38 <itoa.constprop.0+0xb0>
    1c48:	e2855001 	add	r5, r5, #1
    1c4c:	e3a03000 	mov	r3, #0
    1c50:	e08e5005 	add	r5, lr, r5
    1c54:	e1a0000e 	mov	r0, lr
    1c58:	e7c53001 	strb	r3, [r5, r1]
    1c5c:	e28dd028 	add	sp, sp, #40	; 0x28
    1c60:	e8bd8070 	pop	{r4, r5, r6, pc}
    1c64:	e3a03030 	mov	r3, #48	; 0x30
    1c68:	e1a0000e 	mov	r0, lr
    1c6c:	e5cec001 	strb	ip, [lr, #1]
    1c70:	e5ce3000 	strb	r3, [lr]
    1c74:	e28dd028 	add	sp, sp, #40	; 0x28
    1c78:	e8bd8070 	pop	{r4, r5, r6, pc}

00001c7c <printk>:
    1c7c:	e92d000f 	push	{r0, r1, r2, r3}
    1c80:	e92d47f0 	push	{r4, r5, r6, r7, r8, r9, sl, lr}
    1c84:	e24dd018 	sub	sp, sp, #24
    1c88:	e28d303c 	add	r3, sp, #60	; 0x3c
    1c8c:	e3026e70 	movw	r6, #11888	; 0x2e70
    1c90:	e59d4038 	ldr	r4, [sp, #56]	; 0x38
    1c94:	e58d3004 	str	r3, [sp, #4]
    1c98:	e5d43000 	ldrb	r3, [r4]
    1c9c:	e3530000 	cmp	r3, #0
    1ca0:	0a00002f 	beq	1d64 <printk+0xe8>
    1ca4:	e3406000 	movt	r6, #0
    1ca8:	e28d8008 	add	r8, sp, #8
    1cac:	e3a07025 	mov	r7, #37	; 0x25
    1cb0:	e1a05006 	mov	r5, r6
    1cb4:	ea000003 	b	1cc8 <printk+0x4c>
    1cb8:	e5d43001 	ldrb	r3, [r4, #1]
    1cbc:	e2844001 	add	r4, r4, #1
    1cc0:	e3530000 	cmp	r3, #0
    1cc4:	0a000028 	beq	1d6c <printk+0xf0>
    1cc8:	e3530025 	cmp	r3, #37	; 0x25
    1ccc:	15c53000 	strbne	r3, [r5]
    1cd0:	12855001 	addne	r5, r5, #1
    1cd4:	1afffff7 	bne	1cb8 <printk+0x3c>
    1cd8:	e5d49001 	ldrb	r9, [r4, #1]
    1cdc:	e2493031 	sub	r3, r9, #49	; 0x31
    1ce0:	e3530008 	cmp	r3, #8
    1ce4:	82844001 	addhi	r4, r4, #1
    1ce8:	92499030 	subls	r9, r9, #48	; 0x30
    1cec:	95d43002 	ldrbls	r3, [r4, #2]
    1cf0:	81a03009 	movhi	r3, r9
    1cf4:	92844002 	addls	r4, r4, #2
    1cf8:	83a09000 	movhi	r9, #0
    1cfc:	e2433063 	sub	r3, r3, #99	; 0x63
    1d00:	e3530015 	cmp	r3, #21
    1d04:	979ff103 	ldrls	pc, [pc, r3, lsl #2]
    1d08:	ea00008e 	b	1f48 <printk+0x2cc>
    1d0c:	00001f30 	andeq	r1, r0, r0, lsr pc
    1d10:	00001ec4 	andeq	r1, r0, r4, asr #29
    1d14:	00001f48 	andeq	r1, r0, r8, asr #30
    1d18:	00001f48 	andeq	r1, r0, r8, asr #30
    1d1c:	00001f48 	andeq	r1, r0, r8, asr #30
    1d20:	00001f48 	andeq	r1, r0, r8, asr #30
    1d24:	00001f48 	andeq	r1, r0, r8, asr #30
    1d28:	00001f48 	andeq	r1, r0, r8, asr #30
    1d2c:	00001f48 	andeq	r1, r0, r8, asr #30
    1d30:	00001f48 	andeq	r1, r0, r8, asr #30
    1d34:	00001f48 	andeq	r1, r0, r8, asr #30
    1d38:	00001f48 	andeq	r1, r0, r8, asr #30
    1d3c:	00001f48 	andeq	r1, r0, r8, asr #30
    1d40:	00001e54 	andeq	r1, r0, r4, asr lr
    1d44:	00001f48 	andeq	r1, r0, r8, asr #30
    1d48:	00001f48 	andeq	r1, r0, r8, asr #30
    1d4c:	00001e04 	andeq	r1, r0, r4, lsl #28
    1d50:	00001f48 	andeq	r1, r0, r8, asr #30
    1d54:	00001d94 	muleq	r0, r4, sp
    1d58:	00001f48 	andeq	r1, r0, r8, asr #30
    1d5c:	00001f48 	andeq	r1, r0, r8, asr #30
    1d60:	00001e54 	andeq	r1, r0, r4, asr lr
    1d64:	e3406000 	movt	r6, #0
    1d68:	e1a05006 	mov	r5, r6
    1d6c:	e3020e70 	movw	r0, #11888	; 0x2e70
    1d70:	e3a03000 	mov	r3, #0
    1d74:	e3400000 	movt	r0, #0
    1d78:	e4c53001 	strb	r3, [r5], #1
    1d7c:	ebfffed9 	bl	18e8 <serial_puts>
    1d80:	e0660005 	rsb	r0, r6, r5
    1d84:	e28dd018 	add	sp, sp, #24
    1d88:	e8bd47f0 	pop	{r4, r5, r6, r7, r8, r9, sl, lr}
    1d8c:	e28dd010 	add	sp, sp, #16
    1d90:	e12fff1e 	bx	lr
    1d94:	e59d3004 	ldr	r3, [sp, #4]
    1d98:	e3a0200a 	mov	r2, #10
    1d9c:	e1a01008 	mov	r1, r8
    1da0:	e2830004 	add	r0, r3, #4
    1da4:	e58d0004 	str	r0, [sp, #4]
    1da8:	e5930000 	ldr	r0, [r3]
    1dac:	ebffff1c 	bl	1a24 <utoa>
    1db0:	e5dd3008 	ldrb	r3, [sp, #8]
    1db4:	e3530000 	cmp	r3, #0
    1db8:	0a00006a 	beq	1f68 <printk+0x2ec>
    1dbc:	e1a03008 	mov	r3, r8
    1dc0:	e5f32001 	ldrb	r2, [r3, #1]!
    1dc4:	e3520000 	cmp	r2, #0
    1dc8:	1afffffc 	bne	1dc0 <printk+0x144>
    1dcc:	e068a003 	rsb	sl, r8, r3
    1dd0:	e1a02009 	mov	r2, r9
    1dd4:	e1a0100a 	mov	r1, sl
    1dd8:	e1a00008 	mov	r0, r8
    1ddc:	ebffff43 	bl	1af0 <print_align>
    1de0:	e2451001 	sub	r1, r5, #1
    1de4:	e1a02008 	mov	r2, r8
    1de8:	e080000a 	add	r0, r0, sl
    1dec:	e4d23001 	ldrb	r3, [r2], #1
    1df0:	e3530000 	cmp	r3, #0
    1df4:	e5e13001 	strb	r3, [r1, #1]!
    1df8:	1afffffb 	bne	1dec <printk+0x170>
    1dfc:	e0855000 	add	r5, r5, r0
    1e00:	eaffffac 	b	1cb8 <printk+0x3c>
    1e04:	e59d3004 	ldr	r3, [sp, #4]
    1e08:	e2451001 	sub	r1, r5, #1
    1e0c:	e2832004 	add	r2, r3, #4
    1e10:	e58d2004 	str	r2, [sp, #4]
    1e14:	e5930000 	ldr	r0, [r3]
    1e18:	e1a02000 	mov	r2, r0
    1e1c:	e4d23001 	ldrb	r3, [r2], #1
    1e20:	e3530000 	cmp	r3, #0
    1e24:	e5e13001 	strb	r3, [r1, #1]!
    1e28:	1afffffb 	bne	1e1c <printk+0x1a0>
    1e2c:	e5d03000 	ldrb	r3, [r0]
    1e30:	e3530000 	cmp	r3, #0
    1e34:	e1a03000 	mov	r3, r0
    1e38:	0a000002 	beq	1e48 <printk+0x1cc>
    1e3c:	e5f32001 	ldrb	r2, [r3, #1]!
    1e40:	e3520000 	cmp	r2, #0
    1e44:	1afffffc 	bne	1e3c <printk+0x1c0>
    1e48:	e0603003 	rsb	r3, r0, r3
    1e4c:	e0855003 	add	r5, r5, r3
    1e50:	eaffff98 	b	1cb8 <printk+0x3c>
    1e54:	e59d3004 	ldr	r3, [sp, #4]
    1e58:	e3a02010 	mov	r2, #16
    1e5c:	e1a01008 	mov	r1, r8
    1e60:	e2830004 	add	r0, r3, #4
    1e64:	e58d0004 	str	r0, [sp, #4]
    1e68:	e5930000 	ldr	r0, [r3]
    1e6c:	ebfffeec 	bl	1a24 <utoa>
    1e70:	e5dd3008 	ldrb	r3, [sp, #8]
    1e74:	e3530000 	cmp	r3, #0
    1e78:	0a00003c 	beq	1f70 <printk+0x2f4>
    1e7c:	e1a03008 	mov	r3, r8
    1e80:	e5f32001 	ldrb	r2, [r3, #1]!
    1e84:	e3520000 	cmp	r2, #0
    1e88:	1afffffc 	bne	1e80 <printk+0x204>
    1e8c:	e068a003 	rsb	sl, r8, r3
    1e90:	e1a02009 	mov	r2, r9
    1e94:	e1a0100a 	mov	r1, sl
    1e98:	e1a00008 	mov	r0, r8
    1e9c:	ebffff13 	bl	1af0 <print_align>
    1ea0:	e2451001 	sub	r1, r5, #1
    1ea4:	e1a02008 	mov	r2, r8
    1ea8:	e080000a 	add	r0, r0, sl
    1eac:	e4d23001 	ldrb	r3, [r2], #1
    1eb0:	e3530000 	cmp	r3, #0
    1eb4:	e5e13001 	strb	r3, [r1, #1]!
    1eb8:	1afffffb 	bne	1eac <printk+0x230>
    1ebc:	e0855000 	add	r5, r5, r0
    1ec0:	eaffff7c 	b	1cb8 <printk+0x3c>
    1ec4:	e59d3004 	ldr	r3, [sp, #4]
    1ec8:	e1a01008 	mov	r1, r8
    1ecc:	e2832004 	add	r2, r3, #4
    1ed0:	e58d2004 	str	r2, [sp, #4]
    1ed4:	e5930000 	ldr	r0, [r3]
    1ed8:	ebffff2a 	bl	1b88 <itoa.constprop.0>
    1edc:	e5dd3008 	ldrb	r3, [sp, #8]
    1ee0:	e3530000 	cmp	r3, #0
    1ee4:	0a00001d 	beq	1f60 <printk+0x2e4>
    1ee8:	e1a03008 	mov	r3, r8
    1eec:	e5f32001 	ldrb	r2, [r3, #1]!
    1ef0:	e3520000 	cmp	r2, #0
    1ef4:	1afffffc 	bne	1eec <printk+0x270>
    1ef8:	e068a003 	rsb	sl, r8, r3
    1efc:	e1a02009 	mov	r2, r9
    1f00:	e1a0100a 	mov	r1, sl
    1f04:	e1a00008 	mov	r0, r8
    1f08:	ebfffef8 	bl	1af0 <print_align>
    1f0c:	e2451001 	sub	r1, r5, #1
    1f10:	e1a02008 	mov	r2, r8
    1f14:	e080000a 	add	r0, r0, sl
    1f18:	e4d23001 	ldrb	r3, [r2], #1
    1f1c:	e3530000 	cmp	r3, #0
    1f20:	e5e13001 	strb	r3, [r1, #1]!
    1f24:	1afffffb 	bne	1f18 <printk+0x29c>
    1f28:	e0855000 	add	r5, r5, r0
    1f2c:	eaffff61 	b	1cb8 <printk+0x3c>
    1f30:	e59d3004 	ldr	r3, [sp, #4]
    1f34:	e2832004 	add	r2, r3, #4
    1f38:	e58d2004 	str	r2, [sp, #4]
    1f3c:	e5933000 	ldr	r3, [r3]
    1f40:	e5c53000 	strb	r3, [r5]
    1f44:	eaffff5b 	b	1cb8 <printk+0x3c>
    1f48:	e1a03005 	mov	r3, r5
    1f4c:	e4c37002 	strb	r7, [r3], #2
    1f50:	e5d42000 	ldrb	r2, [r4]
    1f54:	e5c52001 	strb	r2, [r5, #1]
    1f58:	e1a05003 	mov	r5, r3
    1f5c:	eaffff55 	b	1cb8 <printk+0x3c>
    1f60:	e1a0a003 	mov	sl, r3
    1f64:	eaffffe4 	b	1efc <printk+0x280>
    1f68:	e1a0a003 	mov	sl, r3
    1f6c:	eaffff97 	b	1dd0 <printk+0x154>
    1f70:	e1a0a003 	mov	sl, r3
    1f74:	eaffffc5 	b	1e90 <printk+0x214>

00001f78 <printk_nommu>:
    1f78:	e92d000f 	push	{r0, r1, r2, r3}
    1f7c:	e92d47f0 	push	{r4, r5, r6, r7, r8, r9, sl, lr}
    1f80:	e24dd018 	sub	sp, sp, #24
    1f84:	e28d303c 	add	r3, sp, #60	; 0x3c
    1f88:	e3026e70 	movw	r6, #11888	; 0x2e70
    1f8c:	e59d4038 	ldr	r4, [sp, #56]	; 0x38
    1f90:	e58d3004 	str	r3, [sp, #4]
    1f94:	e5d43000 	ldrb	r3, [r4]
    1f98:	e3530000 	cmp	r3, #0
    1f9c:	0a00002f 	beq	2060 <printk_nommu+0xe8>
    1fa0:	e3406000 	movt	r6, #0
    1fa4:	e28d8008 	add	r8, sp, #8
    1fa8:	e3a07025 	mov	r7, #37	; 0x25
    1fac:	e1a05006 	mov	r5, r6
    1fb0:	ea000003 	b	1fc4 <printk_nommu+0x4c>
    1fb4:	e5d43001 	ldrb	r3, [r4, #1]
    1fb8:	e2844001 	add	r4, r4, #1
    1fbc:	e3530000 	cmp	r3, #0
    1fc0:	0a000028 	beq	2068 <printk_nommu+0xf0>
    1fc4:	e3530025 	cmp	r3, #37	; 0x25
    1fc8:	15c53000 	strbne	r3, [r5]
    1fcc:	12855001 	addne	r5, r5, #1
    1fd0:	1afffff7 	bne	1fb4 <printk_nommu+0x3c>
    1fd4:	e5d49001 	ldrb	r9, [r4, #1]
    1fd8:	e2493031 	sub	r3, r9, #49	; 0x31
    1fdc:	e3530008 	cmp	r3, #8
    1fe0:	82844001 	addhi	r4, r4, #1
    1fe4:	92499030 	subls	r9, r9, #48	; 0x30
    1fe8:	95d43002 	ldrbls	r3, [r4, #2]
    1fec:	81a03009 	movhi	r3, r9
    1ff0:	92844002 	addls	r4, r4, #2
    1ff4:	83a09000 	movhi	r9, #0
    1ff8:	e2433063 	sub	r3, r3, #99	; 0x63
    1ffc:	e3530015 	cmp	r3, #21
    2000:	979ff103 	ldrls	pc, [pc, r3, lsl #2]
    2004:	ea00008e 	b	2244 <printk_nommu+0x2cc>
    2008:	0000222c 	andeq	r2, r0, ip, lsr #4
    200c:	000021c0 	andeq	r2, r0, r0, asr #3
    2010:	00002244 	andeq	r2, r0, r4, asr #4
    2014:	00002244 	andeq	r2, r0, r4, asr #4
    2018:	00002244 	andeq	r2, r0, r4, asr #4
    201c:	00002244 	andeq	r2, r0, r4, asr #4
    2020:	00002244 	andeq	r2, r0, r4, asr #4
    2024:	00002244 	andeq	r2, r0, r4, asr #4
    2028:	00002244 	andeq	r2, r0, r4, asr #4
    202c:	00002244 	andeq	r2, r0, r4, asr #4
    2030:	00002244 	andeq	r2, r0, r4, asr #4
    2034:	00002244 	andeq	r2, r0, r4, asr #4
    2038:	00002244 	andeq	r2, r0, r4, asr #4
    203c:	00002150 	andeq	r2, r0, r0, asr r1
    2040:	00002244 	andeq	r2, r0, r4, asr #4
    2044:	00002244 	andeq	r2, r0, r4, asr #4
    2048:	00002100 	andeq	r2, r0, r0, lsl #2
    204c:	00002244 	andeq	r2, r0, r4, asr #4
    2050:	00002090 	muleq	r0, r0, r0
    2054:	00002244 	andeq	r2, r0, r4, asr #4
    2058:	00002244 	andeq	r2, r0, r4, asr #4
    205c:	00002150 	andeq	r2, r0, r0, asr r1
    2060:	e3406000 	movt	r6, #0
    2064:	e1a05006 	mov	r5, r6
    2068:	e3020e70 	movw	r0, #11888	; 0x2e70
    206c:	e3a03000 	mov	r3, #0
    2070:	e3400000 	movt	r0, #0
    2074:	e4c53001 	strb	r3, [r5], #1
    2078:	ebfffd97 	bl	16dc <serial_puts_nommu>
    207c:	e0660005 	rsb	r0, r6, r5
    2080:	e28dd018 	add	sp, sp, #24
    2084:	e8bd47f0 	pop	{r4, r5, r6, r7, r8, r9, sl, lr}
    2088:	e28dd010 	add	sp, sp, #16
    208c:	e12fff1e 	bx	lr
    2090:	e59d3004 	ldr	r3, [sp, #4]
    2094:	e3a0200a 	mov	r2, #10
    2098:	e1a01008 	mov	r1, r8
    209c:	e2830004 	add	r0, r3, #4
    20a0:	e58d0004 	str	r0, [sp, #4]
    20a4:	e5930000 	ldr	r0, [r3]
    20a8:	ebfffe5d 	bl	1a24 <utoa>
    20ac:	e5dd3008 	ldrb	r3, [sp, #8]
    20b0:	e3530000 	cmp	r3, #0
    20b4:	0a00006a 	beq	2264 <printk_nommu+0x2ec>
    20b8:	e1a03008 	mov	r3, r8
    20bc:	e5f32001 	ldrb	r2, [r3, #1]!
    20c0:	e3520000 	cmp	r2, #0
    20c4:	1afffffc 	bne	20bc <printk_nommu+0x144>
    20c8:	e068a003 	rsb	sl, r8, r3
    20cc:	e1a02009 	mov	r2, r9
    20d0:	e1a0100a 	mov	r1, sl
    20d4:	e1a00008 	mov	r0, r8
    20d8:	ebfffe84 	bl	1af0 <print_align>
    20dc:	e2451001 	sub	r1, r5, #1
    20e0:	e1a02008 	mov	r2, r8
    20e4:	e080000a 	add	r0, r0, sl
    20e8:	e4d23001 	ldrb	r3, [r2], #1
    20ec:	e3530000 	cmp	r3, #0
    20f0:	e5e13001 	strb	r3, [r1, #1]!
    20f4:	1afffffb 	bne	20e8 <printk_nommu+0x170>
    20f8:	e0855000 	add	r5, r5, r0
    20fc:	eaffffac 	b	1fb4 <printk_nommu+0x3c>
    2100:	e59d3004 	ldr	r3, [sp, #4]
    2104:	e2451001 	sub	r1, r5, #1
    2108:	e2832004 	add	r2, r3, #4
    210c:	e58d2004 	str	r2, [sp, #4]
    2110:	e5930000 	ldr	r0, [r3]
    2114:	e1a02000 	mov	r2, r0
    2118:	e4d23001 	ldrb	r3, [r2], #1
    211c:	e3530000 	cmp	r3, #0
    2120:	e5e13001 	strb	r3, [r1, #1]!
    2124:	1afffffb 	bne	2118 <printk_nommu+0x1a0>
    2128:	e5d03000 	ldrb	r3, [r0]
    212c:	e3530000 	cmp	r3, #0
    2130:	e1a03000 	mov	r3, r0
    2134:	0a000002 	beq	2144 <printk_nommu+0x1cc>
    2138:	e5f32001 	ldrb	r2, [r3, #1]!
    213c:	e3520000 	cmp	r2, #0
    2140:	1afffffc 	bne	2138 <printk_nommu+0x1c0>
    2144:	e0603003 	rsb	r3, r0, r3
    2148:	e0855003 	add	r5, r5, r3
    214c:	eaffff98 	b	1fb4 <printk_nommu+0x3c>
    2150:	e59d3004 	ldr	r3, [sp, #4]
    2154:	e3a02010 	mov	r2, #16
    2158:	e1a01008 	mov	r1, r8
    215c:	e2830004 	add	r0, r3, #4
    2160:	e58d0004 	str	r0, [sp, #4]
    2164:	e5930000 	ldr	r0, [r3]
    2168:	ebfffe2d 	bl	1a24 <utoa>
    216c:	e5dd3008 	ldrb	r3, [sp, #8]
    2170:	e3530000 	cmp	r3, #0
    2174:	0a00003c 	beq	226c <printk_nommu+0x2f4>
    2178:	e1a03008 	mov	r3, r8
    217c:	e5f32001 	ldrb	r2, [r3, #1]!
    2180:	e3520000 	cmp	r2, #0
    2184:	1afffffc 	bne	217c <printk_nommu+0x204>
    2188:	e068a003 	rsb	sl, r8, r3
    218c:	e1a02009 	mov	r2, r9
    2190:	e1a0100a 	mov	r1, sl
    2194:	e1a00008 	mov	r0, r8
    2198:	ebfffe54 	bl	1af0 <print_align>
    219c:	e2451001 	sub	r1, r5, #1
    21a0:	e1a02008 	mov	r2, r8
    21a4:	e080000a 	add	r0, r0, sl
    21a8:	e4d23001 	ldrb	r3, [r2], #1
    21ac:	e3530000 	cmp	r3, #0
    21b0:	e5e13001 	strb	r3, [r1, #1]!
    21b4:	1afffffb 	bne	21a8 <printk_nommu+0x230>
    21b8:	e0855000 	add	r5, r5, r0
    21bc:	eaffff7c 	b	1fb4 <printk_nommu+0x3c>
    21c0:	e59d3004 	ldr	r3, [sp, #4]
    21c4:	e1a01008 	mov	r1, r8
    21c8:	e2832004 	add	r2, r3, #4
    21cc:	e58d2004 	str	r2, [sp, #4]
    21d0:	e5930000 	ldr	r0, [r3]
    21d4:	ebfffe6b 	bl	1b88 <itoa.constprop.0>
    21d8:	e5dd3008 	ldrb	r3, [sp, #8]
    21dc:	e3530000 	cmp	r3, #0
    21e0:	0a00001d 	beq	225c <printk_nommu+0x2e4>
    21e4:	e1a03008 	mov	r3, r8
    21e8:	e5f32001 	ldrb	r2, [r3, #1]!
    21ec:	e3520000 	cmp	r2, #0
    21f0:	1afffffc 	bne	21e8 <printk_nommu+0x270>
    21f4:	e068a003 	rsb	sl, r8, r3
    21f8:	e1a02009 	mov	r2, r9
    21fc:	e1a0100a 	mov	r1, sl
    2200:	e1a00008 	mov	r0, r8
    2204:	ebfffe39 	bl	1af0 <print_align>
    2208:	e2451001 	sub	r1, r5, #1
    220c:	e1a02008 	mov	r2, r8
    2210:	e080000a 	add	r0, r0, sl
    2214:	e4d23001 	ldrb	r3, [r2], #1
    2218:	e3530000 	cmp	r3, #0
    221c:	e5e13001 	strb	r3, [r1, #1]!
    2220:	1afffffb 	bne	2214 <printk_nommu+0x29c>
    2224:	e0855000 	add	r5, r5, r0
    2228:	eaffff61 	b	1fb4 <printk_nommu+0x3c>
    222c:	e59d3004 	ldr	r3, [sp, #4]
    2230:	e2832004 	add	r2, r3, #4
    2234:	e58d2004 	str	r2, [sp, #4]
    2238:	e5933000 	ldr	r3, [r3]
    223c:	e5c53000 	strb	r3, [r5]
    2240:	eaffff5b 	b	1fb4 <printk_nommu+0x3c>
    2244:	e1a03005 	mov	r3, r5
    2248:	e4c37002 	strb	r7, [r3], #2
    224c:	e5d42000 	ldrb	r2, [r4]
    2250:	e5c52001 	strb	r2, [r5, #1]
    2254:	e1a05003 	mov	r5, r3
    2258:	eaffff55 	b	1fb4 <printk_nommu+0x3c>
    225c:	e1a0a003 	mov	sl, r3
    2260:	eaffffe4 	b	21f8 <printk_nommu+0x280>
    2264:	e1a0a003 	mov	sl, r3
    2268:	eaffff97 	b	20cc <printk_nommu+0x154>
    226c:	e1a0a003 	mov	sl, r3
    2270:	eaffffc5 	b	218c <printk_nommu+0x214>

00002274 <standby_delay>:
    2274:	e92d000f 	push	{r0, r1, r2, r3}
    2278:	e3a01011 	mov	r1, #17
    227c:	e1a03000 	mov	r3, r0

00002280 <standby_delay_loop2>:
    2280:	e2500001 	subs	r0, r0, #1
    2284:	8afffffd 	bhi	2280 <standby_delay_loop2>
    2288:	e1a00003 	mov	r0, r3
    228c:	e2511001 	subs	r1, r1, #1
    2290:	8afffffa 	bhi	2280 <standby_delay_loop2>
    2294:	e8bd000f 	pop	{r0, r1, r2, r3}
    2298:	e1a0f00e 	mov	pc, lr

0000229c <standby_delay_cycle>:
    229c:	e2500001 	subs	r0, r0, #1
    22a0:	8afffffd 	bhi	229c <standby_delay_cycle>
    22a4:	e1a0f00e 	mov	pc, lr

000022a8 <Ldiv0>:
    22a8:	e52de008 	str	lr, [sp, #-8]!
    22ac:	eb000067 	bl	2450 <__mem_div0>
    22b0:	e3a00000 	mov	r0, #0
    22b4:	e49df008 	ldr	pc, [sp], #8

000022b8 <__aeabi_uidiv>:
    22b8:	e2512001 	subs	r2, r1, #1
    22bc:	01a0f00e 	moveq	pc, lr
    22c0:	3afffff8 	bcc	22a8 <Ldiv0>
    22c4:	e1500001 	cmp	r0, r1
    22c8:	9a00001a 	bls	2338 <__aeabi_uidiv+0x80>
    22cc:	e1110002 	tst	r1, r2
    22d0:	0a00001b 	beq	2344 <__aeabi_uidiv+0x8c>
    22d4:	e16f3f11 	clz	r3, r1
    22d8:	e16f2f10 	clz	r2, r0
    22dc:	e0432002 	sub	r2, r3, r2
    22e0:	e3a03001 	mov	r3, #1
    22e4:	e1a01211 	lsl	r1, r1, r2
    22e8:	e1a03213 	lsl	r3, r3, r2
    22ec:	e3a02000 	mov	r2, #0
    22f0:	e1500001 	cmp	r0, r1
    22f4:	20400001 	subcs	r0, r0, r1
    22f8:	21822003 	orrcs	r2, r2, r3
    22fc:	e15000a1 	cmp	r0, r1, lsr #1
    2300:	204000a1 	subcs	r0, r0, r1, lsr #1
    2304:	218220a3 	orrcs	r2, r2, r3, lsr #1
    2308:	e1500121 	cmp	r0, r1, lsr #2
    230c:	20400121 	subcs	r0, r0, r1, lsr #2
    2310:	21822123 	orrcs	r2, r2, r3, lsr #2
    2314:	e15001a1 	cmp	r0, r1, lsr #3
    2318:	204001a1 	subcs	r0, r0, r1, lsr #3
    231c:	218221a3 	orrcs	r2, r2, r3, lsr #3
    2320:	e3500000 	cmp	r0, #0
    2324:	11b03223 	lsrsne	r3, r3, #4
    2328:	11a01221 	lsrne	r1, r1, #4
    232c:	1affffef 	bne	22f0 <__aeabi_uidiv+0x38>
    2330:	e1a00002 	mov	r0, r2
    2334:	e1a0f00e 	mov	pc, lr
    2338:	03a00001 	moveq	r0, #1
    233c:	13a00000 	movne	r0, #0
    2340:	e1a0f00e 	mov	pc, lr
    2344:	e16f2f11 	clz	r2, r1
    2348:	e262201f 	rsb	r2, r2, #31
    234c:	e1a00230 	lsr	r0, r0, r2
    2350:	e1a0f00e 	mov	pc, lr

00002354 <__aeabi_idiv>:
    2354:	e3510000 	cmp	r1, #0
    2358:	e020c001 	eor	ip, r0, r1
    235c:	0affffd1 	beq	22a8 <Ldiv0>
    2360:	42611000 	rsbmi	r1, r1, #0
    2364:	e2512001 	subs	r2, r1, #1
    2368:	0a00001f 	beq	23ec <__aeabi_idiv+0x98>
    236c:	e1b03000 	movs	r3, r0
    2370:	42603000 	rsbmi	r3, r0, #0
    2374:	e1530001 	cmp	r3, r1
    2378:	9a00001e 	bls	23f8 <__aeabi_idiv+0xa4>
    237c:	e1110002 	tst	r1, r2
    2380:	0a000020 	beq	2408 <__aeabi_idiv+0xb4>
    2384:	e16f2f11 	clz	r2, r1
    2388:	e16f0f13 	clz	r0, r3
    238c:	e0420000 	sub	r0, r2, r0
    2390:	e3a02001 	mov	r2, #1
    2394:	e1a01011 	lsl	r1, r1, r0
    2398:	e1a02012 	lsl	r2, r2, r0
    239c:	e3a00000 	mov	r0, #0
    23a0:	e1530001 	cmp	r3, r1
    23a4:	20433001 	subcs	r3, r3, r1
    23a8:	21800002 	orrcs	r0, r0, r2
    23ac:	e15300a1 	cmp	r3, r1, lsr #1
    23b0:	204330a1 	subcs	r3, r3, r1, lsr #1
    23b4:	218000a2 	orrcs	r0, r0, r2, lsr #1
    23b8:	e1530121 	cmp	r3, r1, lsr #2
    23bc:	20433121 	subcs	r3, r3, r1, lsr #2
    23c0:	21800122 	orrcs	r0, r0, r2, lsr #2
    23c4:	e15301a1 	cmp	r3, r1, lsr #3
    23c8:	204331a1 	subcs	r3, r3, r1, lsr #3
    23cc:	218001a2 	orrcs	r0, r0, r2, lsr #3
    23d0:	e3530000 	cmp	r3, #0
    23d4:	11b02222 	lsrsne	r2, r2, #4
    23d8:	11a01221 	lsrne	r1, r1, #4
    23dc:	1affffef 	bne	23a0 <__aeabi_idiv+0x4c>
    23e0:	e35c0000 	cmp	ip, #0
    23e4:	42600000 	rsbmi	r0, r0, #0
    23e8:	e1a0f00e 	mov	pc, lr
    23ec:	e13c0000 	teq	ip, r0
    23f0:	42600000 	rsbmi	r0, r0, #0
    23f4:	e1a0f00e 	mov	pc, lr
    23f8:	33a00000 	movcc	r0, #0
    23fc:	01a00fcc 	asreq	r0, ip, #31
    2400:	03800001 	orreq	r0, r0, #1
    2404:	e1a0f00e 	mov	pc, lr
    2408:	e16f2f11 	clz	r2, r1
    240c:	e262201f 	rsb	r2, r2, #31
    2410:	e35c0000 	cmp	ip, #0
    2414:	e1a00233 	lsr	r0, r3, r2
    2418:	42600000 	rsbmi	r0, r0, #0
    241c:	e1a0f00e 	mov	pc, lr

00002420 <__aeabi_uidivmod>:
    2420:	e92d5003 	push	{r0, r1, ip, lr}
    2424:	ebffffa3 	bl	22b8 <__aeabi_uidiv>
    2428:	e8bd5006 	pop	{r1, r2, ip, lr}
    242c:	e0030290 	mul	r3, r0, r2
    2430:	e0411003 	sub	r1, r1, r3
    2434:	e1a0f00e 	mov	pc, lr

00002438 <__aeabi_idivmod>:
    2438:	e92d5003 	push	{r0, r1, ip, lr}
    243c:	ebffffc4 	bl	2354 <__aeabi_idiv>
    2440:	e8bd5006 	pop	{r1, r2, ip, lr}
    2444:	e0030290 	mul	r3, r0, r2
    2448:	e0411003 	sub	r1, r1, r3
    244c:	e1a0f00e 	mov	pc, lr

00002450 <__mem_div0>:
    2450:	e3020d70 	movw	r0, #11632	; 0x2d70
    2454:	e3400000 	movt	r0, #0
    2458:	eafffe07 	b	1c7c <printk>

0000245c <raw_lib_udiv>:
    245c:	e3510000 	cmp	r1, #0
    2460:	0a000010 	beq	24a8 <raw_lib_udiv+0x4c>
    2464:	e3a03000 	mov	r3, #0
    2468:	ba000002 	blt	2478 <raw_lib_udiv+0x1c>
    246c:	e1b01081 	lsls	r1, r1, #1
    2470:	e2833001 	add	r3, r3, #1
    2474:	5afffffc 	bpl	246c <raw_lib_udiv+0x10>
    2478:	e3a02000 	mov	r2, #0
    247c:	e1500001 	cmp	r0, r1
    2480:	e1a0c082 	lsl	ip, r2, #1
    2484:	e2433001 	sub	r3, r3, #1
    2488:	20610000 	rsbcs	r0, r1, r0
    248c:	238c2001 	orrcs	r2, ip, #1
    2490:	31a02082 	lslcc	r2, r2, #1
    2494:	e3730001 	cmn	r3, #1
    2498:	e1a010a1 	lsr	r1, r1, #1
    249c:	1afffff6 	bne	247c <raw_lib_udiv+0x20>
    24a0:	e1a00002 	mov	r0, r2
    24a4:	e12fff1e 	bx	lr
    24a8:	e1a00001 	mov	r0, r1
    24ac:	e12fff1e 	bx	lr

000024b0 <mem_int_init>:
    24b0:	e3020f70 	movw	r0, #12144	; 0x2f70
    24b4:	e3013184 	movw	r3, #4484	; 0x1184
    24b8:	e3a02d47 	mov	r2, #4544	; 0x11c0
    24bc:	e3400000 	movt	r0, #0
    24c0:	e3a0ca01 	mov	ip, #4096	; 0x1000
    24c4:	e34f31c8 	movt	r3, #61896	; 0xf1c8
    24c8:	e34f21c8 	movt	r2, #61896	; 0xf1c8
    24cc:	e3e01000 	mvn	r1, #0
    24d0:	e34fc1c8 	movt	ip, #61896	; 0xf1c8
    24d4:	e580c000 	str	ip, [r0]
    24d8:	e4831004 	str	r1, [r3], #4
    24dc:	e1530002 	cmp	r3, r2
    24e0:	1afffffc 	bne	24d8 <mem_int_init+0x28>
    24e4:	e3013284 	movw	r3, #4740	; 0x1284
    24e8:	e3a02d4b 	mov	r2, #4800	; 0x12c0
    24ec:	e34f31c8 	movt	r3, #61896	; 0xf1c8
    24f0:	e34f21c8 	movt	r2, #61896	; 0xf1c8
    24f4:	e3e01000 	mvn	r1, #0
    24f8:	e4831004 	str	r1, [r3], #4
    24fc:	e1530002 	cmp	r3, r2
    2500:	1afffffc 	bne	24f8 <mem_int_init+0x48>
    2504:	e3a03a02 	mov	r3, #8192	; 0x2000
    2508:	e30023ff 	movw	r2, #1023	; 0x3ff
    250c:	e34f31c8 	movt	r3, #61896	; 0xf1c8
    2510:	e593100c 	ldr	r1, [r3, #12]
    2514:	e1510002 	cmp	r1, r2
    2518:	0a000006 	beq	2538 <mem_int_init+0x88>
    251c:	e3020d8c 	movw	r0, #11660	; 0x2d8c
    2520:	e92d4010 	push	{r4, lr}
    2524:	e3400000 	movt	r0, #0
    2528:	e5831010 	str	r1, [r3, #16]
    252c:	ebfffdd2 	bl	1c7c <printk>
    2530:	e3a00000 	mov	r0, #0
    2534:	e8bd8010 	pop	{r4, pc}
    2538:	e3a00000 	mov	r0, #0
    253c:	e12fff1e 	bx	lr

00002540 <mem_int_exit>:
    2540:	e3023f70 	movw	r3, #12144	; 0x2f70
    2544:	e24dd008 	sub	sp, sp, #8
    2548:	e3403000 	movt	r3, #0
    254c:	e3a02000 	mov	r2, #0
    2550:	e5930000 	ldr	r0, [r3]
    2554:	e58d2004 	str	r2, [sp, #4]
    2558:	e2803c01 	add	r3, r0, #256	; 0x100
    255c:	e2800d05 	add	r0, r0, #320	; 0x140
    2560:	e5932000 	ldr	r2, [r3]
    2564:	e2833004 	add	r3, r3, #4
    2568:	e58d2004 	str	r2, [sp, #4]
    256c:	e59d1004 	ldr	r1, [sp, #4]
    2570:	e593217c 	ldr	r2, [r3, #380]	; 0x17c
    2574:	e1c22001 	bic	r2, r2, r1
    2578:	e583217c 	str	r2, [r3, #380]	; 0x17c
    257c:	e1530000 	cmp	r3, r0
    2580:	1afffff6 	bne	2560 <mem_int_exit+0x20>
    2584:	e3a00000 	mov	r0, #0
    2588:	e28dd008 	add	sp, sp, #8
    258c:	e12fff1e 	bx	lr

00002590 <mem_enable_int>:
    2590:	e3500000 	cmp	r0, #0
    2594:	e1a012a0 	lsr	r1, r0, #5
    2598:	e3022f70 	movw	r2, #12144	; 0x2f70
    259c:	e3a0ca01 	mov	ip, #4096	; 0x1000
    25a0:	e3402000 	movt	r2, #0
    25a4:	e34fc1c8 	movt	ip, #61896	; 0xf1c8
    25a8:	11a01101 	lslne	r1, r1, #2
    25ac:	e582c000 	str	ip, [r2]
    25b0:	13a02c11 	movne	r2, #4352	; 0x1100
    25b4:	e200301f 	and	r3, r0, #31
    25b8:	134f21c8 	movtne	r2, #61896	; 0xf1c8
    25bc:	10812002 	addne	r2, r1, r2
    25c0:	13a0c001 	movne	ip, #1
    25c4:	13a00000 	movne	r0, #0
    25c8:	15921000 	ldrne	r1, [r2]
    25cc:	03e00000 	mvneq	r0, #0
    25d0:	1181331c 	orrne	r3, r1, ip, lsl r3
    25d4:	15823000 	strne	r3, [r2]
    25d8:	e12fff1e 	bx	lr

000025dc <mem_query_int>:
    25dc:	e3023f70 	movw	r3, #12144	; 0x2f70
    25e0:	e3500000 	cmp	r0, #0
    25e4:	e3403000 	movt	r3, #0
    25e8:	e3a01a01 	mov	r1, #4096	; 0x1000
    25ec:	e1a022a0 	lsr	r2, r0, #5
    25f0:	e34f11c8 	movt	r1, #61896	; 0xf1c8
    25f4:	e200001f 	and	r0, r0, #31
    25f8:	e5831000 	str	r1, [r3]
    25fc:	0a000009 	beq	2628 <mem_query_int+0x4c>
    2600:	e1a02102 	lsl	r2, r2, #2
    2604:	e3a03c12 	mov	r3, #4608	; 0x1200
    2608:	e34f31c8 	movt	r3, #61896	; 0xf1c8
    260c:	e0823003 	add	r3, r2, r3
    2610:	e3a02001 	mov	r2, #1
    2614:	e5933000 	ldr	r3, [r3]
    2618:	e0133012 	ands	r3, r3, r2, lsl r0
    261c:	03e00000 	mvneq	r0, #0
    2620:	13a00000 	movne	r0, #0
    2624:	e12fff1e 	bx	lr
    2628:	e3e00000 	mvn	r0, #0
    262c:	e12fff1e 	bx	lr

00002630 <mem_gpio_save>:
    2630:	e3a03b02 	mov	r3, #2048	; 0x800
    2634:	e3001a5c 	movw	r1, #2652	; 0xa5c
    2638:	e2400004 	sub	r0, r0, #4
    263c:	e34f31c2 	movt	r3, #61890	; 0xf1c2
    2640:	e34f11c2 	movt	r1, #61890	; 0xf1c2
    2644:	e4932004 	ldr	r2, [r3], #4
    2648:	e1530001 	cmp	r3, r1
    264c:	e5a02004 	str	r2, [r0, #4]!
    2650:	1afffffb 	bne	2644 <mem_gpio_save+0x14>
    2654:	e3a00000 	mov	r0, #0
    2658:	e12fff1e 	bx	lr

0000265c <mem_gpio_restore>:
    265c:	e3a03b02 	mov	r3, #2048	; 0x800
    2660:	e3001a5c 	movw	r1, #2652	; 0xa5c
    2664:	e2400004 	sub	r0, r0, #4
    2668:	e34f31c2 	movt	r3, #61890	; 0xf1c2
    266c:	e34f11c2 	movt	r1, #61890	; 0xf1c2
    2670:	e5b02004 	ldr	r2, [r0, #4]!
    2674:	e4832004 	str	r2, [r3], #4
    2678:	e1530001 	cmp	r3, r1
    267c:	1afffffb 	bne	2670 <mem_gpio_restore+0x14>
    2680:	e3a00000 	mov	r0, #0
    2684:	e12fff1e 	bx	lr

00002688 <mem_tmr_save>:
    2688:	e3a03b03 	mov	r3, #3072	; 0xc00
    268c:	e3021f74 	movw	r1, #12148	; 0x2f74
    2690:	e34f31c2 	movt	r3, #61890	; 0xf1c2
    2694:	e1a02000 	mov	r2, r0
    2698:	e593c000 	ldr	ip, [r3]
    269c:	e3401000 	movt	r1, #0
    26a0:	e5813000 	str	r3, [r1]
    26a4:	e3a00000 	mov	r0, #0
    26a8:	e582c000 	str	ip, [r2]
    26ac:	e5931010 	ldr	r1, [r3, #16]
    26b0:	e5821010 	str	r1, [r2, #16]
    26b4:	e5931014 	ldr	r1, [r3, #20]
    26b8:	e5821014 	str	r1, [r2, #20]
    26bc:	e5931018 	ldr	r1, [r3, #24]
    26c0:	e5821018 	str	r1, [r2, #24]
    26c4:	e5931020 	ldr	r1, [r3, #32]
    26c8:	e5821020 	str	r1, [r2, #32]
    26cc:	e5931024 	ldr	r1, [r3, #36]	; 0x24
    26d0:	e5821024 	str	r1, [r2, #36]	; 0x24
    26d4:	e5933028 	ldr	r3, [r3, #40]	; 0x28
    26d8:	e5823028 	str	r3, [r2, #40]	; 0x28
    26dc:	e12fff1e 	bx	lr

000026e0 <mem_tmr_restore>:
    26e0:	e3023f74 	movw	r3, #12148	; 0x2f74
    26e4:	e5901014 	ldr	r1, [r0, #20]
    26e8:	e3403000 	movt	r3, #0
    26ec:	e1a02000 	mov	r2, r0
    26f0:	e5933000 	ldr	r3, [r3]
    26f4:	e3a00000 	mov	r0, #0
    26f8:	e5831014 	str	r1, [r3, #20]
    26fc:	e5921018 	ldr	r1, [r2, #24]
    2700:	e5831018 	str	r1, [r3, #24]
    2704:	e5921010 	ldr	r1, [r2, #16]
    2708:	e5831010 	str	r1, [r3, #16]
    270c:	e5921024 	ldr	r1, [r2, #36]	; 0x24
    2710:	e5831024 	str	r1, [r3, #36]	; 0x24
    2714:	e5921028 	ldr	r1, [r2, #40]	; 0x28
    2718:	e5831028 	str	r1, [r3, #40]	; 0x28
    271c:	e5921020 	ldr	r1, [r2, #32]
    2720:	e5831020 	str	r1, [r3, #32]
    2724:	e5922000 	ldr	r2, [r2]
    2728:	e5832000 	str	r2, [r3]
    272c:	e12fff1e 	bx	lr

00002730 <mem_tmr_init>:
    2730:	e3a02b03 	mov	r2, #3072	; 0xc00
    2734:	e3023f74 	movw	r3, #12148	; 0x2f74
    2738:	e34f21c2 	movt	r2, #61890	; 0xf1c2
    273c:	e3403000 	movt	r3, #0
    2740:	e59210b4 	ldr	r1, [r2, #180]	; 0xb4
    2744:	e3a00000 	mov	r0, #0
    2748:	e5832000 	str	r2, [r3]
    274c:	e5831004 	str	r1, [r3, #4]
    2750:	e59210b8 	ldr	r1, [r2, #184]	; 0xb8
    2754:	e5831008 	str	r1, [r3, #8]
    2758:	e59220a0 	ldr	r2, [r2, #160]	; 0xa0
    275c:	e583200c 	str	r2, [r3, #12]
    2760:	e12fff1e 	bx	lr

00002764 <mem_tmr_exit>:
    2764:	e3023f74 	movw	r3, #12148	; 0x2f74
    2768:	e3a00000 	mov	r0, #0
    276c:	e3403000 	movt	r3, #0
    2770:	e8931004 	ldm	r3, {r2, ip}
    2774:	e5931008 	ldr	r1, [r3, #8]
    2778:	e593300c 	ldr	r3, [r3, #12]
    277c:	e582c0b4 	str	ip, [r2, #180]	; 0xb4
    2780:	e58210b8 	str	r1, [r2, #184]	; 0xb8
    2784:	e58230a0 	str	r3, [r2, #160]	; 0xa0
    2788:	e12fff1e 	bx	lr

0000278c <mem_tmr_enable_watchdog>:
    278c:	e3023f74 	movw	r3, #12148	; 0x2f74
    2790:	e3a010b0 	mov	r1, #176	; 0xb0
    2794:	e3403000 	movt	r3, #0
    2798:	e5933000 	ldr	r3, [r3]
    279c:	e59320b4 	ldr	r2, [r3, #180]	; 0xb4
    27a0:	e3c22003 	bic	r2, r2, #3
    27a4:	e58320b4 	str	r2, [r3, #180]	; 0xb4
    27a8:	e59320b4 	ldr	r2, [r3, #180]	; 0xb4
    27ac:	e3822001 	orr	r2, r2, #1
    27b0:	e58320b4 	str	r2, [r3, #180]	; 0xb4
    27b4:	e58310b8 	str	r1, [r3, #184]	; 0xb8
    27b8:	e59320a0 	ldr	r2, [r3, #160]	; 0xa0
    27bc:	e3822001 	orr	r2, r2, #1
    27c0:	e58320a0 	str	r2, [r3, #160]	; 0xa0
    27c4:	e59320b8 	ldr	r2, [r3, #184]	; 0xb8
    27c8:	e3822001 	orr	r2, r2, #1
    27cc:	e58320b8 	str	r2, [r3, #184]	; 0xb8
    27d0:	e12fff1e 	bx	lr

000027d4 <mem_tmr_disable_watchdog>:
    27d4:	e3023f74 	movw	r3, #12148	; 0x2f74
    27d8:	e3403000 	movt	r3, #0
    27dc:	e5933000 	ldr	r3, [r3]
    27e0:	e59320b4 	ldr	r2, [r3, #180]	; 0xb4
    27e4:	e3c22003 	bic	r2, r2, #3
    27e8:	e58320b4 	str	r2, [r3, #180]	; 0xb4
    27ec:	e59320b4 	ldr	r2, [r3, #180]	; 0xb4
    27f0:	e3822002 	orr	r2, r2, #2
    27f4:	e58320b4 	str	r2, [r3, #180]	; 0xb4
    27f8:	e59320a0 	ldr	r2, [r3, #160]	; 0xa0
    27fc:	e3c22001 	bic	r2, r2, #1
    2800:	e58320a0 	str	r2, [r3, #160]	; 0xa0
    2804:	e59320b8 	ldr	r2, [r3, #184]	; 0xb8
    2808:	e3c22001 	bic	r2, r2, #1
    280c:	e58320b8 	str	r2, [r3, #184]	; 0xb8
    2810:	e12fff1e 	bx	lr

00002814 <mem_tmr_set>:
    2814:	e3023f74 	movw	r3, #12148	; 0x2f74
    2818:	e3a02000 	mov	r2, #0
    281c:	e3403000 	movt	r3, #0
    2820:	e3a01001 	mov	r1, #1
    2824:	e5933000 	ldr	r3, [r3]
    2828:	e3a0c0d0 	mov	ip, #208	; 0xd0
    282c:	e52de004 	push	{lr}		; (str lr, [sp, #-4]!)
    2830:	e1a0e500 	lsl	lr, r0, #10
    2834:	e5831004 	str	r1, [r3, #4]
    2838:	e1a00002 	mov	r0, r2
    283c:	e5831000 	str	r1, [r3]
    2840:	e5832010 	str	r2, [r3, #16]
    2844:	e583e014 	str	lr, [r3, #20]
    2848:	e583c010 	str	ip, [r3, #16]
    284c:	e5932010 	ldr	r2, [r3, #16]
    2850:	e3822002 	orr	r2, r2, #2
    2854:	e5832010 	str	r2, [r3, #16]
    2858:	e5932010 	ldr	r2, [r3, #16]
    285c:	e1822001 	orr	r2, r2, r1
    2860:	e5832010 	str	r2, [r3, #16]
    2864:	e49df004 	pop	{pc}		; (ldr pc, [sp], #4)

00002868 <mem_clk_init>:
    2868:	e3500001 	cmp	r0, #1
    286c:	03a02000 	moveq	r2, #0
    2870:	13a02000 	movne	r2, #0
    2874:	03023f84 	movweq	r3, #12164	; 0x2f84
    2878:	13023f84 	movwne	r3, #12164	; 0x2f84
    287c:	034f21c2 	movteq	r2, #61890	; 0xf1c2
    2880:	134021c2 	movtne	r2, #450	; 0x1c2
    2884:	03403000 	movteq	r3, #0
    2888:	13403000 	movtne	r3, #0
    288c:	e1a00002 	mov	r0, r2
    2890:	e5832000 	str	r2, [r3]
    2894:	e12fff1e 	bx	lr

00002898 <mem_get_ba>:
    2898:	e3023f84 	movw	r3, #12164	; 0x2f84
    289c:	e3403000 	movt	r3, #0
    28a0:	e5930000 	ldr	r0, [r3]
    28a4:	e12fff1e 	bx	lr

000028a8 <mem_clk_save>:
    28a8:	e3a03000 	mov	r3, #0
    28ac:	e3021f84 	movw	r1, #12164	; 0x2f84
    28b0:	e34f31c2 	movt	r3, #61890	; 0xf1c2
    28b4:	e1a02000 	mov	r2, r0
    28b8:	e593c050 	ldr	ip, [r3, #80]	; 0x50
    28bc:	e3401000 	movt	r1, #0
    28c0:	e5803000 	str	r3, [r0]
    28c4:	e3a00000 	mov	r0, #0
    28c8:	e5813000 	str	r3, [r1]
    28cc:	e582c004 	str	ip, [r2, #4]
    28d0:	e5931058 	ldr	r1, [r3, #88]	; 0x58
    28d4:	e5821008 	str	r1, [r2, #8]
    28d8:	e5933054 	ldr	r3, [r3, #84]	; 0x54
    28dc:	e582300c 	str	r3, [r2, #12]
    28e0:	e12fff1e 	bx	lr

000028e4 <mem_clk_restore>:
    28e4:	e5903000 	ldr	r3, [r0]
    28e8:	e3021f84 	movw	r1, #12164	; 0x2f84
    28ec:	e590c004 	ldr	ip, [r0, #4]
    28f0:	e1a02000 	mov	r2, r0
    28f4:	e3401000 	movt	r1, #0
    28f8:	e3a00000 	mov	r0, #0
    28fc:	e5813000 	str	r3, [r1]
    2900:	e583c050 	str	ip, [r3, #80]	; 0x50
    2904:	e5921008 	ldr	r1, [r2, #8]
    2908:	e5831058 	str	r1, [r3, #88]	; 0x58
    290c:	e592200c 	ldr	r2, [r2, #12]
    2910:	e5832054 	str	r2, [r3, #84]	; 0x54
    2914:	e12fff1e 	bx	lr

00002918 <mem_clk_setdiv>:
    2918:	e3500000 	cmp	r0, #0
    291c:	0a00001a 	beq	298c <mem_clk_setdiv+0x74>
    2920:	e92d4070 	push	{r4, r5, r6, lr}
    2924:	e3a03000 	mov	r3, #0
    2928:	e3024f84 	movw	r4, #12164	; 0x2f84
    292c:	e34031c2 	movt	r3, #450	; 0x1c2
    2930:	e3404000 	movt	r4, #0
    2934:	e1a05000 	mov	r5, r0
    2938:	e5843000 	str	r3, [r4]
    293c:	e3a00005 	mov	r0, #5
    2940:	e5932050 	ldr	r2, [r3, #80]	; 0x50
    2944:	e5951000 	ldr	r1, [r5]
    2948:	e5842004 	str	r2, [r4, #4]
    294c:	e7c12011 	bfi	r2, r1, #0, #2
    2950:	e5c42004 	strb	r2, [r4, #4]
    2954:	e5942004 	ldr	r2, [r4, #4]
    2958:	e5832050 	str	r2, [r3, #80]	; 0x50
    295c:	e5952004 	ldr	r2, [r5, #4]
    2960:	e3c22a03 	bic	r2, r2, #12288	; 0x3000
    2964:	e3822a01 	orr	r2, r2, #4096	; 0x1000
    2968:	e5832054 	str	r2, [r3, #84]	; 0x54
    296c:	ebfff729 	bl	618 <delay_us>
    2970:	e5943000 	ldr	r3, [r4]
    2974:	e5952004 	ldr	r2, [r5, #4]
    2978:	e3a00005 	mov	r0, #5
    297c:	e5832054 	str	r2, [r3, #84]	; 0x54
    2980:	ebfff724 	bl	618 <delay_us>
    2984:	e3a00000 	mov	r0, #0
    2988:	e8bd8070 	pop	{r4, r5, r6, pc}
    298c:	e3e00000 	mvn	r0, #0
    2990:	e12fff1e 	bx	lr

00002994 <mem_clk_getdiv>:
    2994:	e2501000 	subs	r1, r0, #0
    2998:	0a00000d 	beq	29d4 <mem_clk_getdiv+0x40>
    299c:	e3022f84 	movw	r2, #12164	; 0x2f84
    29a0:	e3a03000 	mov	r3, #0
    29a4:	e3402000 	movt	r2, #0
    29a8:	e34f31c2 	movt	r3, #61890	; 0xf1c2
    29ac:	e52de004 	push	{lr}		; (str lr, [sp, #-4]!)
    29b0:	e3a00000 	mov	r0, #0
    29b4:	e5823000 	str	r3, [r2]
    29b8:	e593c050 	ldr	ip, [r3, #80]	; 0x50
    29bc:	e20ce003 	and	lr, ip, #3
    29c0:	e581e000 	str	lr, [r1]
    29c4:	e582c004 	str	ip, [r2, #4]
    29c8:	e5933054 	ldr	r3, [r3, #84]	; 0x54
    29cc:	e5813004 	str	r3, [r1, #4]
    29d0:	e49df004 	pop	{pc}		; (ldr pc, [sp], #4)
    29d4:	e3e00000 	mvn	r0, #0
    29d8:	e12fff1e 	bx	lr

000029dc <mem_clk_set_pll_factor>:
    29dc:	e3023f84 	movw	r3, #12164	; 0x2f84
    29e0:	e3a0c000 	mov	ip, #0
    29e4:	e3403000 	movt	r3, #0
    29e8:	e340c1c2 	movt	ip, #450	; 0x1c2
    29ec:	e92d4070 	push	{r4, r5, r6, lr}
    29f0:	e1a0e000 	mov	lr, r0
    29f4:	e583c000 	str	ip, [r3]
    29f8:	e3a00000 	mov	r0, #0
    29fc:	e59c2000 	ldr	r2, [ip]
    2a00:	e5de5003 	ldrb	r5, [lr, #3]
    2a04:	e5de6002 	ldrb	r6, [lr, #2]
    2a08:	e1a04822 	lsr	r4, r2, #16
    2a0c:	e5832008 	str	r2, [r3, #8]
    2a10:	e7c14015 	bfi	r4, r5, #0, #2
    2a14:	e5de5001 	ldrb	r5, [lr, #1]
    2a18:	e5dee000 	ldrb	lr, [lr]
    2a1c:	e1a01002 	mov	r1, r2
    2a20:	e1a02422 	lsr	r2, r2, #8
    2a24:	e7c11016 	bfi	r1, r6, #0, #2
    2a28:	e5c3400a 	strb	r4, [r3, #10]
    2a2c:	e7c51215 	bfi	r1, r5, #4, #2
    2a30:	e7c4201e 	bfi	r2, lr, #0, #5
    2a34:	e5c31008 	strb	r1, [r3, #8]
    2a38:	e5c32009 	strb	r2, [r3, #9]
    2a3c:	e5933008 	ldr	r3, [r3, #8]
    2a40:	e58c3000 	str	r3, [ip]
    2a44:	e8bd8070 	pop	{r4, r5, r6, pc}

00002a48 <mem_clk_get_pll_factor>:
    2a48:	e3021f84 	movw	r1, #12164	; 0x2f84
    2a4c:	e3a02000 	mov	r2, #0
    2a50:	e3401000 	movt	r1, #0
    2a54:	e34f21c2 	movt	r2, #61890	; 0xf1c2
    2a58:	e92d4010 	push	{r4, lr}
    2a5c:	e1a03000 	mov	r3, r0
    2a60:	e5812000 	str	r2, [r1]
    2a64:	e3a00000 	mov	r0, #0
    2a68:	e592c000 	ldr	ip, [r2]
    2a6c:	e7e4445c 	ubfx	r4, ip, #8, #5
    2a70:	e7e1e85c 	ubfx	lr, ip, #16, #2
    2a74:	e6ef207c 	uxtb	r2, ip
    2a78:	e581c008 	str	ip, [r1, #8]
    2a7c:	e5c34000 	strb	r4, [r3]
    2a80:	e7e11252 	ubfx	r1, r2, #4, #2
    2a84:	e5c3e003 	strb	lr, [r3, #3]
    2a88:	e7e12052 	ubfx	r2, r2, #0, #2
    2a8c:	e5c31001 	strb	r1, [r3, #1]
    2a90:	e5c32002 	strb	r2, [r3, #2]
    2a94:	e8bd8010 	pop	{r4, pc}

00002a98 <mem_clk_set_misc>:
    2a98:	e1a01000 	mov	r1, r0
    2a9c:	e5900000 	ldr	r0, [r0]
    2aa0:	e3022f84 	movw	r2, #12164	; 0x2f84
    2aa4:	e3a03000 	mov	r3, #0
    2aa8:	e34031c2 	movt	r3, #450	; 0x1c2
    2aac:	e3402000 	movt	r2, #0
    2ab0:	e92d4010 	push	{r4, lr}
    2ab4:	e3a0e002 	mov	lr, #2
    2ab8:	e5823000 	str	r3, [r2]
    2abc:	e3a0c001 	mov	ip, #1
    2ac0:	e5830220 	str	r0, [r3, #544]	; 0x220
    2ac4:	e3a00000 	mov	r0, #0
    2ac8:	e5914008 	ldr	r4, [r1, #8]
    2acc:	e5834250 	str	r4, [r3, #592]	; 0x250
    2ad0:	e5914014 	ldr	r4, [r1, #20]
    2ad4:	e5834228 	str	r4, [r3, #552]	; 0x228
    2ad8:	e5914018 	ldr	r4, [r1, #24]
    2adc:	e583422c 	str	r4, [r3, #556]	; 0x22c
    2ae0:	e591401c 	ldr	r4, [r1, #28]
    2ae4:	e5834288 	str	r4, [r3, #648]	; 0x288
    2ae8:	e5914020 	ldr	r4, [r1, #32]
    2aec:	e583428c 	str	r4, [r3, #652]	; 0x28c
    2af0:	e591400c 	ldr	r4, [r1, #12]
    2af4:	e5834010 	str	r4, [r3, #16]
    2af8:	e5911010 	ldr	r1, [r1, #16]
    2afc:	e5831018 	str	r1, [r3, #24]
    2b00:	e5931050 	ldr	r1, [r3, #80]	; 0x50
    2b04:	e5821004 	str	r1, [r2, #4]
    2b08:	e7c1101e 	bfi	r1, lr, #0, #2
    2b0c:	e5c21004 	strb	r1, [r2, #4]
    2b10:	e5921004 	ldr	r1, [r2, #4]
    2b14:	e5831050 	str	r1, [r3, #80]	; 0x50
    2b18:	e5d21004 	ldrb	r1, [r2, #4]
    2b1c:	e7c1101c 	bfi	r1, ip, #0, #2
    2b20:	e5c21004 	strb	r1, [r2, #4]
    2b24:	e5922004 	ldr	r2, [r2, #4]
    2b28:	e5832050 	str	r2, [r3, #80]	; 0x50
    2b2c:	e8bd8010 	pop	{r4, pc}

00002b30 <mem_clk_get_misc>:
    2b30:	e3a03000 	mov	r3, #0
    2b34:	e3021f84 	movw	r1, #12164	; 0x2f84
    2b38:	e34f31c2 	movt	r3, #61890	; 0xf1c2
    2b3c:	e1a02000 	mov	r2, r0
    2b40:	e593c220 	ldr	ip, [r3, #544]	; 0x220
    2b44:	e3401000 	movt	r1, #0
    2b48:	e5813000 	str	r3, [r1]
    2b4c:	e3a00000 	mov	r0, #0
    2b50:	e582c000 	str	ip, [r2]
    2b54:	e5931250 	ldr	r1, [r3, #592]	; 0x250
    2b58:	e5821008 	str	r1, [r2, #8]
    2b5c:	e5931228 	ldr	r1, [r3, #552]	; 0x228
    2b60:	e5821014 	str	r1, [r2, #20]
    2b64:	e593122c 	ldr	r1, [r3, #556]	; 0x22c
    2b68:	e5821018 	str	r1, [r2, #24]
    2b6c:	e5931288 	ldr	r1, [r3, #648]	; 0x288
    2b70:	e582101c 	str	r1, [r2, #28]
    2b74:	e593128c 	ldr	r1, [r3, #652]	; 0x28c
    2b78:	e5821020 	str	r1, [r2, #32]
    2b7c:	e5931010 	ldr	r1, [r3, #16]
    2b80:	e582100c 	str	r1, [r2, #12]
    2b84:	e5933018 	ldr	r3, [r3, #24]
    2b88:	e5823010 	str	r3, [r2, #16]
    2b8c:	e12fff1e 	bx	lr

00002b90 <mem_clk_get_cpu_freq>:
    2b90:	e3023f84 	movw	r3, #12164	; 0x2f84
    2b94:	e3403000 	movt	r3, #0
    2b98:	e5930000 	ldr	r0, [r3]
    2b9c:	e5902050 	ldr	r2, [r0, #80]	; 0x50
    2ba0:	e7e11852 	ubfx	r1, r2, #16, #2
    2ba4:	e3510000 	cmp	r1, #0
    2ba8:	e5832004 	str	r2, [r3, #4]
    2bac:	1a000001 	bne	2bb8 <mem_clk_get_cpu_freq+0x28>
    2bb0:	e3a00020 	mov	r0, #32
    2bb4:	e12fff1e 	bx	lr
    2bb8:	e3510001 	cmp	r1, #1
    2bbc:	0a000010 	beq	2c04 <mem_clk_get_cpu_freq+0x74>
    2bc0:	e92d4030 	push	{r4, r5, lr}
    2bc4:	e3a0c001 	mov	ip, #1
    2bc8:	e5904000 	ldr	r4, [r0]
    2bcc:	e3050dc0 	movw	r0, #24000	; 0x5dc0
    2bd0:	e7e11854 	ubfx	r1, r4, #16, #2
    2bd4:	e7e45454 	ubfx	r5, r4, #8, #5
    2bd8:	e6efe074 	uxtb	lr, r4
    2bdc:	e1a0111c 	lsl	r1, ip, r1
    2be0:	e7e1c25e 	ubfx	ip, lr, #4, #2
    2be4:	e20ee003 	and	lr, lr, #3
    2be8:	e28c2001 	add	r2, ip, #1
    2bec:	e5834008 	str	r4, [r3, #8]
    2bf0:	e021119e 	mla	r1, lr, r1, r1
    2bf4:	e0222295 	mla	r2, r5, r2, r2
    2bf8:	e8bd4030 	pop	{r4, r5, lr}
    2bfc:	e0000290 	mul	r0, r0, r2
    2c00:	eafffe15 	b	245c <raw_lib_udiv>
    2c04:	e3050dc0 	movw	r0, #24000	; 0x5dc0
    2c08:	e12fff1e 	bx	lr

Disassembly of section .rodata:

00002c0c <CSWTCH.9>:
    2c0c:	00000001 	andeq	r0, r0, r1
    2c10:	00000002 	andeq	r0, r0, r2
    2c14:	00000000 	andeq	r0, r0, r0
    2c18:	00000003 	andeq	r0, r0, r3

00002c1c <CSWTCH.20>:
    2c1c:	00007d00 	andeq	r7, r0, r0, lsl #26
    2c20:	016e3600 	cmneq	lr, r0, lsl #12
    2c24:	23c34600 	biccs	r4, r3, #0, 12

Disassembly of section .rodata.str1.4:

00002c28 <.rodata.str1.4>:
    2c28:	75736572 	ldrbvc	r6, [r3, #-1394]!	; 0xfffffa8e
    2c2c:	3a31656d 	bcc	c5c1e8 <__bss_end+0xc5906c>
    2c30:	202e3120 	eorcs	r3, lr, r0, lsr #2
    2c34:	6f666562 	svcvs	0x00666562
    2c38:	72206572 	eorvc	r6, r0, #478150656	; 0x1c800000
    2c3c:	6f747365 	svcvs	0x00747365
    2c40:	6d206572 	cfstr32vs	mvfx6, [r0, #-456]!	; 0xfffffe38
    2c44:	202e756d 	eorcs	r7, lr, sp, ror #10
    2c48:	0000000a 	andeq	r0, r0, sl
    2c4c:	75736572 	ldrbvc	r6, [r3, #-1394]!	; 0xfffffa8e
    2c50:	3a31656d 	bcc	c5c20c <__bss_end+0xc59090>
    2c54:	202e3320 	eorcs	r3, lr, r0, lsr #6
    2c58:	65746661 	ldrbvs	r6, [r4, #-1633]!	; 0xfffff99f
    2c5c:	65722072 	ldrbvs	r2, [r2, #-114]!	; 0xffffff8e
    2c60:	726f7473 	rsbvc	r7, pc, #1929379840	; 0x73000000
    2c64:	6d6d2065 	stclvs	0, cr2, [sp, #-404]!	; 0xfffffe6c
    2c68:	62202c75 	eorvs	r2, r0, #29952	; 0x7500
    2c6c:	726f6665 	rsbvc	r6, pc, #105906176	; 0x6500000
    2c70:	756a2065 	strbvc	r2, [sl, #-101]!	; 0xffffff9b
    2c74:	0a2e706d 	beq	b9ee30 <__bss_end+0xb9bcb4>
    2c78:	00000000 	andeq	r0, r0, r0
    2c7c:	5f746567 	svcpl	0x00746567
    2c80:	5f727563 	svcpl	0x00727563
    2c84:	73756c63 	cmnvc	r5, #25344	; 0x6300
    2c88:	5f726574 	svcpl	0x00726574
    2c8c:	3d206469 	cfstrscc	mvf6, [r0, #-420]!	; 0xfffffe5c
    2c90:	2e642520 	cdpcs	5, 6, cr2, cr4, cr0, {1}
    2c94:	00000a20 	andeq	r0, r0, r0, lsr #20
    2c98:	5f6d656d 	svcpl	0x006d656d
    2c9c:	61726170 	cmnvs	r2, r0, ror r1
    2ca0:	666e695f 			; <UNDEFINED> instruction: 0x666e695f
    2ca4:	65642e6f 	strbvs	r2, [r4, #-3695]!	; 0xfffff191
    2ca8:	5f677562 	svcpl	0x00677562
    2cac:	6b73616d 	blvs	1cdb268 <__bss_end+0x1cd80ec>
    2cb0:	25203d20 	strcs	r3, [r0, #-3360]!	; 0xfffff2e0
    2cb4:	0a202e78 	beq	80e69c <__bss_end+0x80b520>
    2cb8:	00000000 	andeq	r0, r0, r0
    2cbc:	616c6564 	cmnvs	ip, r4, ror #10
    2cc0:	656d2079 	strbvs	r2, [sp, #-121]!	; 0xffffff87
    2cc4:	61705f6d 	cmnvs	r0, sp, ror #30
    2cc8:	695f6172 	ldmdbvs	pc, {r1, r4, r5, r6, r8, sp, lr}^	; <UNPREDICTABLE>
    2ccc:	2e6f666e 	cdpcs	6, 6, cr6, cr15, cr14, {3}
    2cd0:	70737573 	rsbsvc	r7, r3, r3, ror r5
    2cd4:	5f646e65 	svcpl	0x00646e65
    2cd8:	616c6564 	cmnvs	ip, r4, ror #10
    2cdc:	736d5f79 	cmnvc	sp, #484	; 0x1e4
    2ce0:	25203d20 	strcs	r3, [r0, #-3360]!	; 0xfffff2e0
    2ce4:	0a202e64 	beq	80e67c <__bss_end+0x80b500>
    2ce8:	00000000 	andeq	r0, r0, r0
    2cec:	72646461 	rsbvc	r6, r4, #1627389952	; 0x61000000
    2cf0:	3a465020 	bcc	1196d78 <__bss_end+0x1193bfc>
    2cf4:	25783020 	ldrbcs	r3, [r8, #-32]!	; 0xffffffe0
    2cf8:	203d2078 	eorscs	r2, sp, r8, ror r0
    2cfc:	78257830 	stmdavc	r5!, {r4, r5, fp, ip, sp, lr}
    2d00:	000a202e 	andeq	r2, sl, lr, lsr #32
    2d04:	72646461 	rsbvc	r6, r4, #1627389952	; 0x61000000
    2d08:	3a485020 	bcc	1216d90 <__bss_end+0x1213c14>
    2d0c:	25783020 	ldrbcs	r3, [r8, #-32]!	; 0xffffffe0
    2d10:	203d2078 	eorscs	r2, sp, r8, ror r0
    2d14:	78257830 	stmdavc	r5!, {r4, r5, fp, ip, sp, lr}
    2d18:	000a202e 	andeq	r2, sl, lr, lsr #32
    2d1c:	75736572 	ldrbvc	r6, [r3, #-1394]!	; 0xfffffa8e
    2d20:	3a31656d 	bcc	c5c2dc <__bss_end+0xc59160>
    2d24:	61747320 	cmnvs	r4, r0, lsr #6
    2d28:	202e7472 	eorcs	r7, lr, r2, ror r4
    2d2c:	0000000a 	andeq	r0, r0, sl
    2d30:	72646461 	rsbvc	r6, r4, #1627389952	; 0x61000000
    2d34:	2c782520 	cfldr64cs	mvdx2, [r8], #-128	; 0xffffff80
    2d38:	6c617620 	stclvs	6, cr7, [r1], #-128	; 0xffffff80
    2d3c:	3d206575 	cfstr32cc	mvfx6, [r0, #-468]!	; 0xfffffe2c
    2d40:	2e782520 	cdpcs	5, 7, cr2, cr8, cr0, {1}
    2d44:	00000a20 	andeq	r0, r0, r0, lsr #20
    2d48:	33323130 	teqcc	r2, #48, 2
    2d4c:	37363534 			; <UNDEFINED> instruction: 0x37363534
    2d50:	42413938 	submi	r3, r1, #56, 18	; 0xe0000
    2d54:	46454443 	strbmi	r4, [r5], -r3, asr #8
    2d58:	00000000 	andeq	r0, r0, r0
    2d5c:	20202020 	eorcs	r2, r0, r0, lsr #32
    2d60:	20202020 	eorcs	r2, r0, r0, lsr #32
    2d64:	20202020 	eorcs	r2, r0, r0, lsr #32
    2d68:	20202020 	eorcs	r2, r0, r0, lsr #32
    2d6c:	00000000 	andeq	r0, r0, r0
    2d70:	65747441 	ldrbvs	r7, [r4, #-1089]!	; 0xfffffbbf
    2d74:	6974706d 	ldmdbvs	r4!, {r0, r2, r3, r5, r6, ip, sp, lr}^
    2d78:	6420676e 	strtvs	r6, [r0], #-1902	; 0xfffff892
    2d7c:	73697669 	cmnvc	r9, #110100480	; 0x6900000
    2d80:	206e6f69 	rsbcs	r6, lr, r9, ror #30
    2d84:	30207962 	eorcc	r7, r0, r2, ror #18
    2d88:	00000021 	andeq	r0, r0, r1, lsr #32
    2d8c:	69746f6e 	ldmdbvs	r4!, {r1, r2, r3, r5, r6, r8, r9, sl, fp, sp, lr}^
    2d90:	203a6563 	eorscs	r6, sl, r3, ror #10
    2d94:	20636967 	rsbcs	r6, r3, r7, ror #18
    2d98:	20726169 	rsbscs	r6, r2, r9, ror #2
    2d9c:	30203d3d 	eorcc	r3, r0, sp, lsr sp
    2da0:	2e782578 	mrccs	5, 3, r2, cr8, cr8, {3}
    2da4:	00000a20 	andeq	r0, r0, r0, lsr #20

Disassembly of section .data:

00002da8 <tmpPtr>:
    2da8:	00002dac 	andeq	r2, r0, ip, lsr #27

Disassembly of section .bss:

00002dac <print_flag>:
    2dac:	00000000 	andeq	r0, r0, r0

00002db0 <backup_perf_counter_ctrl_reg>:
    2db0:	00000000 	andeq	r0, r0, r0

00002db4 <backup_perf_counter_enable_reg>:
    2db4:	00000000 	andeq	r0, r0, r0

00002db8 <overhead>:
    2db8:	00000000 	andeq	r0, r0, r0

00002dbc <cpu_freq>:
    2dbc:	00000000 	andeq	r0, r0, r0

00002dc0 <saved_context>:
	...

00002e60 <backup_ccu_uart>:
    2e60:	00000000 	andeq	r0, r0, r0

00002e64 <backup_ccu_uart_reset>:
    2e64:	00000000 	andeq	r0, r0, r0

00002e68 <backup_gpio_uart>:
    2e68:	00000000 	andeq	r0, r0, r0

00002e6c <serial_inited_flag>:
    2e6c:	00000000 	andeq	r0, r0, r0

00002e70 <debugger_buffer>:
	...

00002f70 <GicDDisc>:
    2f70:	00000000 	andeq	r0, r0, r0

00002f74 <TmrReg>:
    2f74:	00000000 	andeq	r0, r0, r0

00002f78 <WatchDog1_Config_Reg_Bak>:
    2f78:	00000000 	andeq	r0, r0, r0

00002f7c <WatchDog1_Mod_Reg_Bak>:
    2f7c:	00000000 	andeq	r0, r0, r0

00002f80 <WatchDog1_Irq_En_Bak>:
    2f80:	00000000 	andeq	r0, r0, r0

00002f84 <CmuReg>:
    2f84:	00000000 	andeq	r0, r0, r0

00002f88 <CmuReg_SysClkDiv_tmp>:
    2f88:	00000000 	andeq	r0, r0, r0

00002f8c <CmuReg_Pll1Ctl_tmp>:
    2f8c:	00000000 	andeq	r0, r0, r0

00002f90 <mem_para_info>:
	...

00003060 <func_entry>:
    3060:	00000000 	andeq	r0, r0, r0

00003064 <saved_context_r13_irq>:
	...

0000306c <saved_context_r12_svc>:
	...

00003074 <saved_spsr_fiq>:
    3074:	00000000 	andeq	r0, r0, r0

00003078 <saved_spsr_und>:
    3078:	00000000 	andeq	r0, r0, r0

0000307c <saved_spsr_irq>:
    307c:	00000000 	andeq	r0, r0, r0

00003080 <saved_context_r13_abt>:
	...

00003088 <saved_spsr_mon>:
    3088:	00000000 	andeq	r0, r0, r0

0000308c <saved_empty_context_svc>:
	...

0000313c <saved_context_r13_fiq>:
	...

00003158 <saved_cpsr_svc>:
    3158:	00000000 	andeq	r0, r0, r0

0000315c <saved_context_r13_sys>:
	...

00003164 <saved_spsr_abt>:
    3164:	00000000 	andeq	r0, r0, r0

00003168 <saved_context_r13_mon>:
	...

00003170 <saved_spsr_svc>:
    3170:	00000000 	andeq	r0, r0, r0

00003174 <saved_context_r13_und>:
	...

Disassembly of section .debug_info:

00000000 <.debug_info>:
       0:	000001bc 			; <UNDEFINED> instruction: 0x000001bc
       4:	00000004 	andeq	r0, r0, r4
       8:	01040000 	mrseq	r0, (UNDEF: 4)
       c:	00000000 	andeq	r0, r0, r0
      10:	0002950c 	andeq	r9, r2, ip, lsl #10
      14:	00015400 	andeq	r5, r1, r0, lsl #8
      18:	00000000 	andeq	r0, r0, r0
      1c:	06010200 	streq	r0, [r1], -r0, lsl #4
      20:	00000114 	andeq	r0, r0, r4, lsl r1
      24:	12080102 	andne	r0, r8, #-2147483648	; 0x80000000
      28:	02000001 	andeq	r0, r0, #1
      2c:	02780502 	rsbseq	r0, r8, #8388608	; 0x800000
      30:	02020000 	andeq	r0, r2, #0
      34:	00013607 	andeq	r3, r1, r7, lsl #12
      38:	05040300 	streq	r0, [r4, #-768]	; 0xfffffd00
      3c:	00746e69 	rsbseq	r6, r4, r9, ror #28
      40:	e8070402 	stmda	r7, {r1, sl}
      44:	02000001 	andeq	r0, r0, #1
      48:	02380508 	eorseq	r0, r8, #8, 10	; 0x2000000
      4c:	08020000 	stmdaeq	r2, {}	; <UNPREDICTABLE>
      50:	0001de07 	andeq	sp, r1, r7, lsl #28
      54:	07040200 	streq	r0, [r4, -r0, lsl #4]
      58:	0000022f 	andeq	r0, r0, pc, lsr #4
      5c:	00020b04 	andeq	r0, r2, r4, lsl #22
      60:	00400400 	subeq	r0, r0, r0, lsl #8
      64:	89020000 	stmdbhi	r2, {}	; <UNPREDICTABLE>
      68:	000000eb 	andeq	r0, r0, fp, ror #1
      6c:	0000d405 	andeq	sp, r0, r5, lsl #8
      70:	29050000 	stmdbcs	r5, {}	; <UNPREDICTABLE>
      74:	01000001 	tsteq	r0, r1
      78:	0000e105 	andeq	lr, r0, r5, lsl #2
      7c:	06050200 	streq	r0, [r5], -r0, lsl #4
      80:	03000001 	movweq	r0, #1
      84:	00025305 	andeq	r5, r2, r5, lsl #6
      88:	d2050400 	andle	r0, r5, #0, 8
      8c:	05000001 	streq	r0, [r0, #-1]
      90:	0001ba05 	andeq	fp, r1, r5, lsl #20
      94:	f5050600 			; <UNDEFINED> instruction: 0xf5050600
      98:	07000001 	streq	r0, [r0, -r1]
      9c:	0000c805 	andeq	ip, r0, r5, lsl #16
      a0:	fb050800 	blx	1420aa <__bss_end+0x13ef2e>
      a4:	09000000 	stmdbeq	r0, {}	; <UNPREDICTABLE>
      a8:	0001c705 	andeq	ip, r1, r5, lsl #14
      ac:	6d050a00 	vstrvs	s0, [r5, #-0]
      b0:	0b000002 	bleq	c0 <config_end+0x14>
      b4:	00020505 	andeq	r0, r2, r5, lsl #10
      b8:	21050c00 	tstcs	r5, r0, lsl #24
      bc:	0d000002 	stceq	0, cr0, [r0, #-8]
      c0:	00031a05 	andeq	r1, r3, r5, lsl #20
      c4:	5f050e00 	svcpl	0x00050e00
      c8:	0f000002 	svceq	0x00000002
      cc:	0002ea05 	andeq	lr, r2, r5, lsl #20
      d0:	46051000 	strmi	r1, [r5], -r0
      d4:	11000002 	tstne	r0, r2
      d8:	00030405 	andeq	r0, r3, r5, lsl #8
      dc:	ee051200 	cdp	2, 0, cr1, cr5, cr0, {0}
      e0:	13000000 	movwne	r0, #0
      e4:	0002cf05 	andeq	ip, r2, r5, lsl #30
      e8:	02001400 	andeq	r1, r0, #0, 8
      ec:	011b0801 	tsteq	fp, r1, lsl #16
      f0:	04020000 	streq	r0, [r2], #-0
      f4:	0001e307 	andeq	lr, r1, r7, lsl #6
      f8:	00b60600 	adcseq	r0, r6, r0, lsl #12
      fc:	01300000 	teqeq	r0, r0
     100:	00017e49 	andeq	r7, r1, r9, asr #28
     104:	01a90700 			; <UNDEFINED> instruction: 0x01a90700
     108:	4b010000 	blmi	40110 <__bss_end+0x3cf94>
     10c:	00000040 	andeq	r0, r0, r0, asr #32
     110:	02f70700 	rscseq	r0, r7, #0, 14
     114:	4c010000 	stcmi	0, cr0, [r1], {-0}
     118:	0000017e 	andeq	r0, r0, lr, ror r1
     11c:	01850704 	orreq	r0, r5, r4, lsl #14
     120:	4d010000 	stcmi	0, cr0, [r1, #-0]
     124:	00000040 	andeq	r0, r0, r0, asr #32
     128:	02fd070c 	rscseq	r0, sp, #12, 14	; 0x300000
     12c:	4e010000 	cdpmi	0, 0, cr0, cr1, cr0, {0}
     130:	00000040 	andeq	r0, r0, r0, asr #32
     134:	018f0710 	orreq	r0, pc, r0, lsl r7	; <UNPREDICTABLE>
     138:	4f010000 	svcmi	0x00010000
     13c:	00000040 	andeq	r0, r0, r0, asr #32
     140:	02dd0714 	sbcseq	r0, sp, #20, 14	; 0x500000
     144:	50010000 	andpl	r0, r1, r0
     148:	0000018e 	andeq	r0, r0, lr, lsl #3
     14c:	02130718 	andseq	r0, r3, #24, 14	; 0x600000
     150:	51010000 	mrspl	r0, (UNDEF: 1)
     154:	0000018e 	andeq	r0, r0, lr, lsl #3
     158:	0149071c 	cmpeq	r9, ip, lsl r7
     15c:	52010000 	andpl	r0, r1, #0
     160:	0000018e 	andeq	r0, r0, lr, lsl #3
     164:	01200720 			; <UNDEFINED> instruction: 0x01200720
     168:	53010000 	movwpl	r0, #4096	; 0x1000
     16c:	0000018e 	andeq	r0, r0, lr, lsl #3
     170:	03110724 	tsteq	r1, #36, 14	; 0x900000
     174:	54010000 	strpl	r0, [r1], #-0
     178:	0000017e 	andeq	r0, r0, lr, ror r1
     17c:	24080028 	strcs	r0, [r8], #-40	; 0xffffffd8
     180:	8e000000 	cdphi	0, 0, cr0, cr0, cr0, {0}
     184:	09000001 	stmdbeq	r0, {r0}
     188:	00000055 	andeq	r0, r0, r5, asr r0
     18c:	24080007 	strcs	r0, [r8], #-7
     190:	9e000000 	cdpls	0, 0, cr0, cr0, cr0, {0}
     194:	09000001 	stmdbeq	r0, {r0}
     198:	00000055 	andeq	r0, r0, r5, asr r0
     19c:	820a0003 	andhi	r0, sl, #3
     1a0:	01000002 	tsteq	r0, r2
     1a4:	0000f955 	andeq	pc, r0, r5, asr r9	; <UNPREDICTABLE>
     1a8:	019d0b00 	orrseq	r0, sp, r0, lsl #22
     1ac:	24030000 	strcs	r0, [r3], #-0
     1b0:	000001ba 			; <UNDEFINED> instruction: 0x000001ba
     1b4:	00000305 	andeq	r0, r0, r5, lsl #6
     1b8:	9e0c0000 	cdpls	0, 0, cr0, cr12, cr0, {0}
     1bc:	00000001 	andeq	r0, r0, r1
     1c0:	00000089 	andeq	r0, r0, r9, lsl #1
     1c4:	00950002 	addseq	r0, r5, r2
     1c8:	01040000 	mrseq	r0, (UNDEF: 4)
     1cc:	000000bc 	strheq	r0, [r0], -ip
     1d0:	00000030 	andeq	r0, r0, r0, lsr r0
     1d4:	000000e0 	andeq	r0, r0, r0, ror #1
     1d8:	68637261 	stmdavs	r3!, {r0, r5, r6, r9, ip, sp, lr}^
     1dc:	6d72612f 	ldfvse	f6, [r2, #-188]!	; 0xffffff44
     1e0:	63616d2f 	cmnvs	r1, #3008	; 0xbc0
     1e4:	75732d68 	ldrbvc	r2, [r3, #-3432]!	; 0xfffff298
     1e8:	2f69786e 	svccs	0x0069786e
     1ec:	732f6d70 			; <UNDEFINED> instruction: 0x732f6d70
     1f0:	646e6174 	strbtvs	r6, [lr], #-372	; 0xfffffe8c
     1f4:	732f7962 			; <UNDEFINED> instruction: 0x732f7962
     1f8:	72657075 	rsbvc	r7, r5, #117	; 0x75
     1fc:	7365722f 	cmnvc	r5, #-268435454	; 0xf0000002
     200:	2f656d75 	svccs	0x00656d75
     204:	75736572 	ldrbvc	r6, [r3, #-1394]!	; 0xfffffa8e
     208:	2e31656d 	cdpcs	5, 3, cr6, cr1, cr13, {3}
     20c:	6d2f0053 	stcvs	0, cr0, [pc, #-332]!	; c8 <config_end+0x1c>
     210:	61696465 	cmnvs	r9, r5, ror #8
     214:	6e61642f 	cdpvs	4, 6, cr6, cr1, cr15, {1}
     218:	2f756b67 	svccs	0x00756b67
     21c:	6964796d 	stmdbvs	r4!, {r0, r2, r3, r5, r6, r8, fp, ip, sp, lr}^
     220:	6d2f6b73 	fstmdbxvs	pc!, {d6-d62}	;@ Deprecated
     224:	422f6d32 	eormi	r6, pc, #3200	; 0xc80
     228:	4d2d4950 	stcmi	9, cr4, [sp, #-320]!	; 0xfffffec0
     22c:	622d4d32 	eorvs	r4, sp, #3200	; 0xc80
     230:	6c2f7073 	stcvs	0, cr7, [pc], #-460	; 6c <_start+0x3c>
     234:	78756e69 	ldmdavc	r5!, {r0, r3, r5, r6, r9, sl, fp, sp, lr}^
     238:	6e75732d 	cdpvs	3, 7, cr7, cr5, cr13, {1}
     23c:	47006978 	smlsdxmi	r0, r8, r9, r6
     240:	4120554e 			; <UNDEFINED> instruction: 0x4120554e
     244:	2e322053 	mrccs	0, 1, r2, cr2, cr3, {2}
     248:	01003632 	tsteq	r0, r2, lsr r6
     24c:	0000d280 	andeq	sp, r0, r0, lsl #5
     250:	a9000400 	stmdbge	r0, {sl}
     254:	04000000 	streq	r0, [r0], #-0
     258:	00000001 	andeq	r0, r0, r1
     25c:	03260c00 			; <UNDEFINED> instruction: 0x03260c00
     260:	01540000 	cmpeq	r4, r0
     264:	00e00000 	rsceq	r0, r0, r0
     268:	002c0000 	eoreq	r0, ip, r0
     26c:	01510000 	cmpeq	r1, r0
     270:	01020000 	mrseq	r0, (UNDEF: 2)
     274:	00011406 	andeq	r1, r1, r6, lsl #8
     278:	08010200 	stmdaeq	r1, {r9}
     27c:	00000112 	andeq	r0, r0, r2, lsl r1
     280:	78050202 	stmdavc	r5, {r1, r9}
     284:	02000002 	andeq	r0, r0, #2
     288:	01360702 	teqeq	r6, r2, lsl #14
     28c:	04030000 	streq	r0, [r3], #-0
     290:	746e6905 	strbtvc	r6, [lr], #-2309	; 0xfffff6fb
     294:	07040200 	streq	r0, [r4, -r0, lsl #4]
     298:	000001e8 	andeq	r0, r0, r8, ror #3
     29c:	38050802 	stmdacc	r5, {r1, fp}
     2a0:	02000002 	andeq	r0, r0, #2
     2a4:	01de0708 	bicseq	r0, lr, r8, lsl #14
     2a8:	04020000 	streq	r0, [r2], #-0
     2ac:	00022f07 	andeq	r2, r2, r7, lsl #30
     2b0:	08010200 	stmdaeq	r1, {r9}
     2b4:	0000011b 	andeq	r0, r0, fp, lsl r1
     2b8:	e3070402 	movw	r0, #29698	; 0x7402
     2bc:	04000001 	streq	r0, [r0], #-1
     2c0:	00004804 	andeq	r4, r0, r4, lsl #16
     2c4:	06040500 	streq	r0, [r4], -r0, lsl #10
     2c8:	00000364 	andeq	r0, r0, r4, ror #6
     2cc:	00e02301 	rsceq	r2, r0, r1, lsl #6
     2d0:	002c0000 	eoreq	r0, ip, r0
     2d4:	9c010000 	stcls	0, cr0, [r1], {-0}
     2d8:	00185507 	andseq	r5, r8, r7, lsl #10
     2dc:	78230100 	stmdavc	r3!, {r8}
     2e0:	00000000 	andeq	r0, r0, r0
     2e4:	08000000 	stmdaeq	r0, {}	; <UNPREDICTABLE>
     2e8:	00637273 	rsbeq	r7, r3, r3, ror r2
     2ec:	00782301 	rsbseq	r2, r8, r1, lsl #6
     2f0:	002e0000 	eoreq	r0, lr, r0
     2f4:	6e080000 	cdpvs	0, 0, cr0, cr8, cr0, {0}
     2f8:	41230100 			; <UNDEFINED> instruction: 0x41230100
     2fc:	4f000000 	svcmi	0x00000000
     300:	09000000 	stmdbeq	r0, {}	; <UNPREDICTABLE>
     304:	0000035c 	andeq	r0, r0, ip, asr r3
     308:	00722501 	rsbseq	r2, r2, r1, lsl #10
     30c:	007a0000 	rsbseq	r0, sl, r0
     310:	54090000 	strpl	r0, [r9], #-0
     314:	01000003 	tsteq	r0, r3
     318:	00007226 	andeq	r7, r0, r6, lsr #4
     31c:	0000a500 	andeq	sl, r0, r0, lsl #10
     320:	67000000 	strvs	r0, [r0, -r0]
     324:	04000000 	streq	r0, [r0], #-0
     328:	00012800 	andeq	r2, r1, r0, lsl #16
     32c:	00010400 	andeq	r0, r1, r0, lsl #8
     330:	0c000000 	stceq	0, cr0, [r0], {-0}
     334:	0000036f 	andeq	r0, r0, pc, ror #6
     338:	00000154 	andeq	r0, r0, r4, asr r1
     33c:	000001c4 	andeq	r0, r0, r4, asr #3
     340:	14060102 	strne	r0, [r6], #-258	; 0xfffffefe
     344:	02000001 	andeq	r0, r0, #1
     348:	01120801 	tsteq	r2, r1, lsl #16
     34c:	02020000 	andeq	r0, r2, #0
     350:	00027805 	andeq	r7, r2, r5, lsl #16
     354:	07020200 	streq	r0, [r2, -r0, lsl #4]
     358:	00000136 	andeq	r0, r0, r6, lsr r1
     35c:	69050403 	stmdbvs	r5, {r0, r1, sl}
     360:	0200746e 	andeq	r7, r0, #1845493760	; 0x6e000000
     364:	01e80704 	mvneq	r0, r4, lsl #14
     368:	08020000 	stmdaeq	r2, {}	; <UNPREDICTABLE>
     36c:	00023805 	andeq	r3, r2, r5, lsl #16
     370:	07080200 	streq	r0, [r8, -r0, lsl #4]
     374:	000001de 	ldrdeq	r0, [r0], -lr
     378:	2f070402 	svccs	0x00070402
     37c:	02000002 	andeq	r0, r0, #2
     380:	011b0801 	tsteq	fp, r1, lsl #16
     384:	04020000 	streq	r0, [r2], #-0
     388:	0001e307 	andeq	lr, r1, r7, lsl #6
     38c:	00860000 	addeq	r0, r6, r0
     390:	00020000 	andeq	r0, r2, r0
     394:	0000014e 	andeq	r0, r0, lr, asr #2
     398:	01e10104 	mvneq	r0, r4, lsl #2
     39c:	010c0000 	mrseq	r0, (UNDEF: 12)
     3a0:	01340000 	teqeq	r4, r0
     3a4:	72610000 	rsbvc	r0, r1, #0
     3a8:	612f6863 			; <UNDEFINED> instruction: 0x612f6863
     3ac:	6d2f6d72 	stcvs	13, cr6, [pc, #-456]!	; 1ec <resume1_c_part+0xb8>
     3b0:	2d686361 	stclcs	3, cr6, [r8, #-388]!	; 0xfffffe7c
     3b4:	786e7573 	stmdavc	lr!, {r0, r1, r4, r5, r6, r8, sl, ip, sp, lr}^
     3b8:	6d702f69 	ldclvs	15, cr2, [r0, #-420]!	; 0xfffffe5c
     3bc:	6174732f 	cmnvs	r4, pc, lsr #6
     3c0:	7962646e 	stmdbvc	r2!, {r1, r2, r3, r5, r6, sl, sp, lr}^
     3c4:	7075732f 	rsbsvc	r7, r5, pc, lsr #6
     3c8:	732f7265 			; <UNDEFINED> instruction: 0x732f7265
     3cc:	72657075 	rsbvc	r7, r5, #117	; 0x75
     3d0:	6c65645f 	cfstrdvs	mvd6, [r5], #-380	; 0xfffffe84
     3d4:	532e7961 			; <UNDEFINED> instruction: 0x532e7961
     3d8:	656d2f00 	strbvs	r2, [sp, #-3840]!	; 0xfffff100
     3dc:	2f616964 	svccs	0x00616964
     3e0:	676e6164 	strbvs	r6, [lr, -r4, ror #2]!
     3e4:	6d2f756b 	cfstr32vs	mvfx7, [pc, #-428]!	; 240 <resume1_c_part+0x10c>
     3e8:	73696479 	cmnvc	r9, #2030043136	; 0x79000000
     3ec:	326d2f6b 	rsbcc	r2, sp, #428	; 0x1ac
     3f0:	50422f6d 	subpl	r2, r2, sp, ror #30
     3f4:	324d2d49 	subcc	r2, sp, #4672	; 0x1240
     3f8:	73622d4d 	cmnvc	r2, #4928	; 0x1340
     3fc:	696c2f70 	stmdbvs	ip!, {r4, r5, r6, r8, r9, sl, fp, sp}^
     400:	2d78756e 	cfldr64cs	mvdx7, [r8, #-440]!	; 0xfffffe48
     404:	786e7573 	stmdavc	lr!, {r0, r1, r4, r5, r6, r8, sl, ip, sp, lr}^
     408:	4e470069 	cdpmi	0, 4, cr0, cr7, cr9, {3}
     40c:	53412055 	movtpl	r2, #4181	; 0x1055
     410:	322e3220 	eorcc	r3, lr, #32, 4
     414:	80010036 	andhi	r0, r1, r6, lsr r0
     418:	00000067 	andeq	r0, r0, r7, rrx
     41c:	01620004 	cmneq	r2, r4
     420:	01040000 	mrseq	r0, (UNDEF: 4)
     424:	00000000 	andeq	r0, r0, r0
     428:	0003a00c 	andeq	sl, r3, ip
     42c:	00015400 	andeq	r5, r1, r0, lsl #8
     430:	00024c00 	andeq	r4, r2, r0, lsl #24
     434:	06010200 	streq	r0, [r1], -r0, lsl #4
     438:	00000114 	andeq	r0, r0, r4, lsl r1
     43c:	12080102 	andne	r0, r8, #-2147483648	; 0x80000000
     440:	02000001 	andeq	r0, r0, #1
     444:	02780502 	rsbseq	r0, r8, #8388608	; 0x800000
     448:	02020000 	andeq	r0, r2, #0
     44c:	00013607 	andeq	r3, r1, r7, lsl #12
     450:	05040300 	streq	r0, [r4, #-768]	; 0xfffffd00
     454:	00746e69 	rsbseq	r6, r4, r9, ror #28
     458:	e8070402 	stmda	r7, {r1, sl}
     45c:	02000001 	andeq	r0, r0, #1
     460:	02380508 	eorseq	r0, r8, #8, 10	; 0x2000000
     464:	08020000 	stmdaeq	r2, {}	; <UNPREDICTABLE>
     468:	0001de07 	andeq	sp, r1, r7, lsl #28
     46c:	07040200 	streq	r0, [r4, -r0, lsl #4]
     470:	0000022f 	andeq	r0, r0, pc, lsr #4
     474:	1b080102 	blne	200884 <__bss_end+0x1fd708>
     478:	02000001 	andeq	r0, r0, #1
     47c:	01e30704 	mvneq	r0, r4, lsl #14
     480:	67000000 	strvs	r0, [r0, -r0]
     484:	04000000 	streq	r0, [r0], #-0
     488:	00018800 	andeq	r8, r1, r0, lsl #16
     48c:	00010400 	andeq	r0, r1, r0, lsl #8
     490:	0c000000 	stceq	0, cr0, [r0], {-0}
     494:	000003d3 	ldrdeq	r0, [r0], -r3
     498:	00000154 	andeq	r0, r0, r4, asr r1
     49c:	00000269 	andeq	r0, r0, r9, ror #4
     4a0:	14060102 	strne	r0, [r6], #-258	; 0xfffffefe
     4a4:	02000001 	andeq	r0, r0, #1
     4a8:	01120801 	tsteq	r2, r1, lsl #16
     4ac:	02020000 	andeq	r0, r2, #0
     4b0:	00027805 	andeq	r7, r2, r5, lsl #16
     4b4:	07020200 	streq	r0, [r2, -r0, lsl #4]
     4b8:	00000136 	andeq	r0, r0, r6, lsr r1
     4bc:	69050403 	stmdbvs	r5, {r0, r1, sl}
     4c0:	0200746e 	andeq	r7, r0, #1845493760	; 0x6e000000
     4c4:	01e80704 	mvneq	r0, r4, lsl #14
     4c8:	08020000 	stmdaeq	r2, {}	; <UNPREDICTABLE>
     4cc:	00023805 	andeq	r3, r2, r5, lsl #16
     4d0:	07080200 	streq	r0, [r8, -r0, lsl #4]
     4d4:	000001de 	ldrdeq	r0, [r0], -lr
     4d8:	2f070402 	svccs	0x00070402
     4dc:	02000002 	andeq	r0, r0, #2
     4e0:	011b0801 	tsteq	fp, r1, lsl #16
     4e4:	04020000 	streq	r0, [r2], #-0
     4e8:	0001e307 	andeq	lr, r1, r7, lsl #6
     4ec:	00670000 	rsbeq	r0, r7, r0
     4f0:	00040000 	andeq	r0, r4, r0
     4f4:	000001ae 	andeq	r0, r0, lr, lsr #3
     4f8:	00000104 	andeq	r0, r0, r4, lsl #2
     4fc:	060c0000 	streq	r0, [ip], -r0
     500:	54000004 	strpl	r0, [r0], #-4
     504:	86000001 	strhi	r0, [r0], -r1
     508:	02000002 	andeq	r0, r0, #2
     50c:	01140601 	tsteq	r4, r1, lsl #12
     510:	01020000 	mrseq	r0, (UNDEF: 2)
     514:	00011208 	andeq	r1, r1, r8, lsl #4
     518:	05020200 	streq	r0, [r2, #-512]	; 0xfffffe00
     51c:	00000278 	andeq	r0, r0, r8, ror r2
     520:	36070202 	strcc	r0, [r7], -r2, lsl #4
     524:	03000001 	movweq	r0, #1
     528:	6e690504 	cdpvs	5, 6, cr0, cr9, cr4, {0}
     52c:	04020074 	streq	r0, [r2], #-116	; 0xffffff8c
     530:	0001e807 	andeq	lr, r1, r7, lsl #16
     534:	05080200 	streq	r0, [r8, #-512]	; 0xfffffe00
     538:	00000238 	andeq	r0, r0, r8, lsr r2
     53c:	de070802 	cdple	8, 0, cr0, cr7, cr2, {0}
     540:	02000001 	andeq	r0, r0, #1
     544:	022f0704 	eoreq	r0, pc, #4, 14	; 0x100000
     548:	01020000 	mrseq	r0, (UNDEF: 2)
     54c:	00011b08 	andeq	r1, r1, r8, lsl #22
     550:	07040200 	streq	r0, [r4, -r0, lsl #4]
     554:	000001e3 	andeq	r0, r0, r3, ror #3
     558:	0017b100 	andseq	fp, r7, r0, lsl #2
     55c:	d4000400 	strle	r0, [r0], #-1024	; 0xfffffc00
     560:	04000001 	streq	r0, [r0], #-1
     564:	00000001 	andeq	r0, r0, r1
     568:	09010c00 	stmdbeq	r1, {sl, fp}
     56c:	01540000 	cmpeq	r4, r0
     570:	01340000 	teqeq	r4, r0
     574:	02b80000 	adcseq	r0, r8, #0
     578:	02a30000 	adceq	r0, r3, #0
     57c:	01020000 	mrseq	r0, (UNDEF: 2)
     580:	00011406 	andeq	r1, r1, r6, lsl #8
     584:	0de80300 	stcleq	3, cr0, [r8]
     588:	0f020000 	svceq	0x00020000
     58c:	00000037 	andeq	r0, r0, r7, lsr r0
     590:	12080102 	andne	r0, r8, #-2147483648	; 0x80000000
     594:	02000001 	andeq	r0, r0, #1
     598:	02780502 	rsbseq	r0, r8, #8388608	; 0x800000
     59c:	02020000 	andeq	r0, r2, #0
     5a0:	00013607 	andeq	r3, r1, r7, lsl #12
     5a4:	05040400 	streq	r0, [r4, #-1024]	; 0xfffffc00
     5a8:	00746e69 	rsbseq	r6, r4, r9, ror #28
     5ac:	000a8203 	andeq	r8, sl, r3, lsl #4
     5b0:	5e130200 	cdppl	2, 1, cr0, cr3, cr0, {0}
     5b4:	02000000 	andeq	r0, r0, #0
     5b8:	01e80704 	mvneq	r0, r4, lsl #14
     5bc:	08020000 	stmdaeq	r2, {}	; <UNPREDICTABLE>
     5c0:	00023805 	andeq	r3, r2, r5, lsl #16
     5c4:	07080200 	streq	r0, [r8, -r0, lsl #4]
     5c8:	000001de 	ldrdeq	r0, [r0], -lr
     5cc:	1a030405 	bne	c15e8 <__bss_end+0xbe46c>
     5d0:	0000013f 	andeq	r0, r0, pc, lsr r1
     5d4:	00074206 	andeq	r4, r7, r6, lsl #4
     5d8:	531c0300 	tstpl	ip, #0, 6
     5dc:	04000000 	streq	r0, [r0], #-0
     5e0:	06001e02 	streq	r1, [r0], -r2, lsl #28
     5e4:	00000d36 	andeq	r0, r0, r6, lsr sp
     5e8:	00531d03 	subseq	r1, r3, r3, lsl #26
     5ec:	02040000 	andeq	r0, r4, #0
     5f0:	3a06001c 	bcc	180668 <__bss_end+0x17d4ec>
     5f4:	03000007 	movweq	r0, #7
     5f8:	0000531e 	andeq	r5, r0, lr, lsl r3
     5fc:	1a020400 	bne	81604 <__bss_end+0x7e488>
     600:	0d400600 	stcleq	6, cr0, [r0, #-0]
     604:	1f030000 	svcne	0x00030000
     608:	00000053 	andeq	r0, r0, r3, asr r0
     60c:	00180204 	andseq	r0, r8, r4, lsl #4
     610:	00074a06 	andeq	r4, r7, r6, lsl #20
     614:	53200300 	noppl	{0}	; <UNPREDICTABLE>
     618:	04000000 	streq	r0, [r0], #-0
     61c:	06001305 	streq	r1, [r0], -r5, lsl #6
     620:	00000d4a 	andeq	r0, r0, sl, asr #26
     624:	00532103 	subseq	r2, r3, r3, lsl #2
     628:	03040000 	movweq	r0, #16384	; 0x4000
     62c:	5a060010 	bpl	180674 <__bss_end+0x17d4f8>
     630:	03000007 	movweq	r0, #7
     634:	00005322 	andeq	r5, r0, r2, lsr #6
     638:	0e020400 	cfcpyseq	mvf0, mvf2
     63c:	0d540600 	ldcleq	6, cr0, [r4, #-0]
     640:	23030000 	movwcs	r0, #12288	; 0x3000
     644:	00000053 	andeq	r0, r0, r3, asr r0
     648:	00080604 	andeq	r0, r8, r4, lsl #12
     64c:	000a6106 	andeq	r6, sl, r6, lsl #2
     650:	53240300 			; <UNDEFINED> instruction: 0x53240300
     654:	04000000 	streq	r0, [r0], #-0
     658:	06000701 	streq	r0, [r0], -r1, lsl #14
     65c:	00000d5e 	andeq	r0, r0, lr, asr sp
     660:	00532503 	subseq	r2, r3, r3, lsl #10
     664:	03040000 	movweq	r0, #16384	; 0x4000
     668:	fd060004 	stc2	0, cr0, [r6, #-16]
     66c:	0300000b 	movweq	r0, #11
     670:	00005326 	andeq	r5, r0, r6, lsr #6
     674:	03010400 	movweq	r0, #5120	; 0x1400
     678:	0d680600 	stcleq	6, cr0, [r8, #-0]
     67c:	27030000 	strcs	r0, [r3, -r0]
     680:	00000053 	andeq	r0, r0, r3, asr r0
     684:	00010204 	andeq	r0, r1, r4, lsl #4
     688:	000cac06 	andeq	sl, ip, r6, lsl #24
     68c:	53280300 			; <UNDEFINED> instruction: 0x53280300
     690:	04000000 	streq	r0, [r0], #-0
     694:	00000001 	andeq	r0, r0, r1
     698:	18030407 	stmdane	r3, {r0, r1, r2, sl}
     69c:	0000015e 	andeq	r0, r0, lr, asr r1
     6a0:	0004d408 	andeq	sp, r4, r8, lsl #8
     6a4:	53190300 	tstpl	r9, #0, 6
     6a8:	08000000 	stmdaeq	r0, {}	; <UNPREDICTABLE>
     6ac:	00000ad2 	ldrdeq	r0, [r0], -r2
     6b0:	00732a03 	rsbseq	r2, r3, r3, lsl #20
     6b4:	03000000 	movweq	r0, #0
     6b8:	00000cb2 			; <UNDEFINED> instruction: 0x00000cb2
     6bc:	013f2b03 	teqeq	pc, r3, lsl #22
     6c0:	d3090000 	movwle	r0, #36864	; 0x9000
     6c4:	0400000c 	streq	r0, [r0], #-12
     6c8:	021b2e03 	andseq	r2, fp, #3, 28	; 0x30
     6cc:	42060000 	andmi	r0, r6, #0
     6d0:	03000007 	movweq	r0, #7
     6d4:	00005330 	andeq	r5, r0, r0, lsr r3
     6d8:	1b050400 	blne	1416e0 <__bss_end+0x13e564>
     6dc:	0d360600 	ldceq	6, cr0, [r6, #-0]
     6e0:	31030000 	mrscc	r0, (UNDEF: 3)
     6e4:	00000053 	andeq	r0, r0, r3, asr r0
     6e8:	00180304 	andseq	r0, r8, r4, lsl #6
     6ec:	00074a06 	andeq	r4, r7, r6, lsl #20
     6f0:	53320300 	teqpl	r2, #0, 6
     6f4:	04000000 	streq	r0, [r0], #-0
     6f8:	06001107 	streq	r1, [r0], -r7, lsl #2
     6fc:	00000d40 	andeq	r0, r0, r0, asr #26
     700:	00533303 	subseq	r3, r3, r3, lsl #6
     704:	01040000 	mrseq	r0, (UNDEF: 4)
     708:	5a060010 	bpl	180750 <__bss_end+0x17d5d4>
     70c:	03000007 	movweq	r0, #7
     710:	00005334 	andeq	r5, r0, r4, lsr r3
     714:	0c040400 	cfstrseq	mvf0, [r4], {-0}
     718:	0d4a0600 	stcleq	6, cr0, [sl, #-0]
     71c:	35030000 	strcc	r0, [r3, #-0]
     720:	00000053 	andeq	r0, r0, r3, asr r0
     724:	00080404 	andeq	r0, r8, r4, lsl #8
     728:	000bd206 	andeq	sp, fp, r6, lsl #4
     72c:	53360300 	teqpl	r6, #0, 6
     730:	04000000 	streq	r0, [r0], #-0
     734:	06000701 	streq	r0, [r0], -r1, lsl #14
     738:	00000d54 	andeq	r0, r0, r4, asr sp
     73c:	00533703 	subseq	r3, r3, r3, lsl #14
     740:	03040000 	movweq	r0, #16384	; 0x4000
     744:	fd060004 	stc2	0, cr0, [r6, #-16]
     748:	0300000b 	movweq	r0, #11
     74c:	00005338 	andeq	r5, r0, r8, lsr r3
     750:	03010400 	movweq	r0, #5120	; 0x1400
     754:	0d5e0600 	ldcleq	6, cr0, [lr, #-0]
     758:	39030000 	stmdbcc	r3, {}	; <UNPREDICTABLE>
     75c:	00000053 	andeq	r0, r0, r3, asr r0
     760:	00010204 	andeq	r0, r1, r4, lsl #4
     764:	000cac06 	andeq	sl, ip, r6, lsl #24
     768:	533a0300 	teqpl	sl, #0, 6
     76c:	04000000 	streq	r0, [r0], #-0
     770:	00000001 	andeq	r0, r0, r1
     774:	000c2503 	andeq	r2, ip, r3, lsl #10
     778:	693b0300 	ldmdbvs	fp!, {r8, r9}
     77c:	09000001 	stmdbeq	r0, {r0}
     780:	00000c92 	muleq	r0, r2, ip
     784:	f6500304 			; <UNDEFINED> instruction: 0xf6500304
     788:	06000002 	streq	r0, [r0], -r2
     78c:	00000742 	andeq	r0, r0, r2, asr #14
     790:	00535203 	subseq	r5, r3, r3, lsl #4
     794:	02040000 	andeq	r0, r4, #0
     798:	3606001e 			; <UNDEFINED> instruction: 0x3606001e
     79c:	0300000d 	movweq	r0, #13
     7a0:	00005353 	andeq	r5, r0, r3, asr r3
     7a4:	1c020400 	cfstrsne	mvf0, [r2], {-0}
     7a8:	073a0600 	ldreq	r0, [sl, -r0, lsl #12]!
     7ac:	54030000 	strpl	r0, [r3], #-0
     7b0:	00000053 	andeq	r0, r0, r3, asr r0
     7b4:	001a0204 	andseq	r0, sl, r4, lsl #4
     7b8:	000d4006 	andeq	r4, sp, r6
     7bc:	53550300 	cmppl	r5, #0, 6
     7c0:	04000000 	streq	r0, [r0], #-0
     7c4:	06001802 	streq	r1, [r0], -r2, lsl #16
     7c8:	0000074a 	andeq	r0, r0, sl, asr #14
     7cc:	00535603 	subseq	r5, r3, r3, lsl #12
     7d0:	05040000 	streq	r0, [r4, #-0]
     7d4:	4a060013 	bmi	180828 <__bss_end+0x17d6ac>
     7d8:	0300000d 	movweq	r0, #13
     7dc:	00005357 	andeq	r5, r0, r7, asr r3
     7e0:	0c070400 	cfstrseq	mvf0, [r7], {-0}
     7e4:	06970600 	ldreq	r0, [r7], r0, lsl #12
     7e8:	58030000 	stmdapl	r3, {}	; <UNPREDICTABLE>
     7ec:	00000053 	andeq	r0, r0, r3, asr r0
     7f0:	000b0104 	andeq	r0, fp, r4, lsl #2
     7f4:	000d5406 	andeq	r5, sp, r6, lsl #8
     7f8:	53590300 	cmppl	r9, #0, 6
     7fc:	04000000 	streq	r0, [r0], #-0
     800:	06000803 	streq	r0, [r0], -r3, lsl #16
     804:	00000a69 	andeq	r0, r0, r9, ror #20
     808:	00535a03 	subseq	r5, r3, r3, lsl #20
     80c:	01040000 	mrseq	r0, (UNDEF: 4)
     810:	5e060007 	cdppl	0, 0, cr0, cr6, cr7, {0}
     814:	0300000d 	movweq	r0, #13
     818:	0000535b 	andeq	r5, r0, fp, asr r3
     81c:	04030400 	streq	r0, [r3], #-1024	; 0xfffffc00
     820:	0bfd0600 	bleq	fff42028 <__bss_end+0xfff3eeac>
     824:	5c030000 	stcpl	0, cr0, [r3], {-0}
     828:	00000053 	andeq	r0, r0, r3, asr r0
     82c:	00030104 	andeq	r0, r3, r4, lsl #2
     830:	000d6806 	andeq	r6, sp, r6, lsl #16
     834:	535d0300 	cmppl	sp, #0, 6
     838:	04000000 	streq	r0, [r0], #-0
     83c:	06000102 	streq	r0, [r0], -r2, lsl #2
     840:	00000cac 	andeq	r0, r0, ip, lsr #25
     844:	00535e03 	subseq	r5, r3, r3, lsl #28
     848:	01040000 	mrseq	r0, (UNDEF: 4)
     84c:	03000000 	movweq	r0, #0
     850:	000006b0 			; <UNDEFINED> instruction: 0x000006b0
     854:	02265f03 	eoreq	r5, r6, #3, 30
     858:	a6090000 	strge	r0, [r9], -r0
     85c:	04000010 	streq	r0, [r0], #-16
     860:	03ef6203 	mvneq	r6, #805306368	; 0x30000000
     864:	42060000 	andmi	r0, r6, #0
     868:	03000007 	movweq	r0, #7
     86c:	00005364 	andeq	r5, r0, r4, ror #6
     870:	1e020400 	cfcpysne	mvf0, mvf2
     874:	0d360600 	ldceq	6, cr0, [r6, #-0]
     878:	65030000 	strvs	r0, [r3, #-0]
     87c:	00000053 	andeq	r0, r0, r3, asr r0
     880:	001c0204 	andseq	r0, ip, r4, lsl #4
     884:	00073a06 	andeq	r3, r7, r6, lsl #20
     888:	53660300 	cmnpl	r6, #0, 6
     88c:	04000000 	streq	r0, [r0], #-0
     890:	06001a02 	streq	r1, [r0], -r2, lsl #20
     894:	00000d40 	andeq	r0, r0, r0, asr #26
     898:	00536703 	subseq	r6, r3, r3, lsl #14
     89c:	02040000 	andeq	r0, r4, #0
     8a0:	4a060018 	bmi	180908 <__bss_end+0x17d78c>
     8a4:	03000007 	movweq	r0, #7
     8a8:	00005368 	andeq	r5, r0, r8, ror #6
     8ac:	13050400 	movwne	r0, #21504	; 0x5400
     8b0:	0d4a0600 	stcleq	6, cr0, [sl, #-0]
     8b4:	69030000 	stmdbvs	r3, {}	; <UNPREDICTABLE>
     8b8:	00000053 	andeq	r0, r0, r3, asr r0
     8bc:	00100304 	andseq	r0, r0, r4, lsl #6
     8c0:	000ed706 	andeq	sp, lr, r6, lsl #14
     8c4:	536a0300 	cmnpl	sl, #0, 6
     8c8:	04000000 	streq	r0, [r0], #-0
     8cc:	06000e02 	streq	r0, [r0], -r2, lsl #28
     8d0:	00000438 	andeq	r0, r0, r8, lsr r4
     8d4:	00536b03 	subseq	r6, r3, r3, lsl #22
     8d8:	01040000 	mrseq	r0, (UNDEF: 4)
     8dc:	5406000d 	strpl	r0, [r6], #-13
     8e0:	0300000d 	movweq	r0, #13
     8e4:	0000536c 	andeq	r5, r0, ip, ror #6
     8e8:	08050400 	stmdaeq	r5, {sl}
     8ec:	0b5b0600 	bleq	16c20f4 <__bss_end+0x16bef78>
     8f0:	6d030000 	stcvs	0, cr0, [r3, #-0]
     8f4:	00000053 	andeq	r0, r0, r3, asr r0
     8f8:	00070104 	andeq	r0, r7, r4, lsl #2
     8fc:	000b1106 	andeq	r1, fp, r6, lsl #2
     900:	536e0300 	cmnpl	lr, #0, 6
     904:	04000000 	streq	r0, [r0], #-0
     908:	06000601 	streq	r0, [r0], -r1, lsl #12
     90c:	00000d5e 	andeq	r0, r0, lr, asr sp
     910:	00536f03 	subseq	r6, r3, r3, lsl #30
     914:	02040000 	andeq	r0, r4, #0
     918:	fd060004 	stc2	0, cr0, [r6, #-16]
     91c:	0300000b 	movweq	r0, #11
     920:	00005370 	andeq	r5, r0, r0, ror r3
     924:	03010400 	movweq	r0, #5120	; 0x1400
     928:	0d680600 	stcleq	6, cr0, [r8, #-0]
     92c:	71030000 	mrsvc	r0, (UNDEF: 3)
     930:	00000053 	andeq	r0, r0, r3, asr r0
     934:	00010204 	andeq	r0, r1, r4, lsl #4
     938:	000cac06 	andeq	sl, ip, r6, lsl #24
     93c:	53720300 	cmnpl	r2, #0, 6
     940:	04000000 	streq	r0, [r0], #-0
     944:	00000001 	andeq	r0, r0, r1
     948:	0005c603 	andeq	ip, r5, r3, lsl #12
     94c:	01730300 	cmneq	r3, r0, lsl #6
     950:	09000003 	stmdbeq	r0, {r0, r1}
     954:	00000889 	andeq	r0, r0, r9, lsl #17
     958:	bb750304 	bllt	1d41570 <__bss_end+0x1d3e3f4>
     95c:	06000004 	streq	r0, [r0], -r4
     960:	00000742 	andeq	r0, r0, r2, asr #14
     964:	00537703 	subseq	r7, r3, r3, lsl #14
     968:	04040000 	streq	r0, [r4], #-0
     96c:	3606001c 			; <UNDEFINED> instruction: 0x3606001c
     970:	0300000d 	movweq	r0, #13
     974:	00005378 	andeq	r5, r0, r8, ror r3
     978:	18040400 	stmdane	r4, {sl}
     97c:	074a0600 	strbeq	r0, [sl, -r0, lsl #12]
     980:	79030000 	stmdbvc	r3, {}	; <UNPREDICTABLE>
     984:	00000053 	andeq	r0, r0, r3, asr r0
     988:	00110704 	andseq	r0, r1, r4, lsl #14
     98c:	000d4006 	andeq	r4, sp, r6
     990:	537a0300 	cmnpl	sl, #0, 6
     994:	04000000 	streq	r0, [r0], #-0
     998:	06000c05 	streq	r0, [r0], -r5, lsl #24
     99c:	00000bd2 	ldrdeq	r0, [r0], -r2
     9a0:	00537b03 	subseq	r7, r3, r3, lsl #22
     9a4:	01040000 	mrseq	r0, (UNDEF: 4)
     9a8:	4a06000b 	bmi	1809dc <__bss_end+0x17d860>
     9ac:	0300000d 	movweq	r0, #13
     9b0:	0000537c 	andeq	r5, r0, ip, ror r3
     9b4:	08030400 	stmdaeq	r3, {sl}
     9b8:	0c610600 	stcleq	6, cr0, [r1], #-0
     9bc:	7d030000 	stcvc	0, cr0, [r3, #-0]
     9c0:	00000053 	andeq	r0, r0, r3, asr r0
     9c4:	00070104 	andeq	r0, r7, r4, lsl #2
     9c8:	000dc406 	andeq	ip, sp, r6, lsl #8
     9cc:	537e0300 	cmnpl	lr, #0, 6
     9d0:	04000000 	streq	r0, [r0], #-0
     9d4:	06000601 	streq	r0, [r0], -r1, lsl #12
     9d8:	00000d54 	andeq	r0, r0, r4, asr sp
     9dc:	00537f03 	subseq	r7, r3, r3, lsl #30
     9e0:	02040000 	andeq	r0, r4, #0
     9e4:	fd060004 	stc2	0, cr0, [r6, #-16]
     9e8:	0300000b 	movweq	r0, #11
     9ec:	00005380 	andeq	r5, r0, r0, lsl #7
     9f0:	03010400 	movweq	r0, #5120	; 0x1400
     9f4:	0d5e0600 	ldcleq	6, cr0, [lr, #-0]
     9f8:	81030000 	mrshi	r0, (UNDEF: 3)
     9fc:	00000053 	andeq	r0, r0, r3, asr r0
     a00:	00010204 	andeq	r0, r1, r4, lsl #4
     a04:	000cac06 	andeq	sl, ip, r6, lsl #24
     a08:	53820300 	orrpl	r0, r2, #0, 6
     a0c:	04000000 	streq	r0, [r0], #-0
     a10:	00000001 	andeq	r0, r0, r1
     a14:	0009a503 	andeq	sl, r9, r3, lsl #10
     a18:	fa830300 	blx	fe0c1620 <__bss_end+0xfe0be4a4>
     a1c:	09000003 	stmdbeq	r0, {r0, r1}
     a20:	00000be1 	andeq	r0, r0, r1, ror #23
     a24:	f0860304 			; <UNDEFINED> instruction: 0xf0860304
     a28:	06000005 	streq	r0, [r0], -r5
     a2c:	00000742 	andeq	r0, r0, r2, asr #14
     a30:	00538803 	subseq	r8, r3, r3, lsl #16
     a34:	04040000 	streq	r0, [r4], #-0
     a38:	3a06001c 	bcc	180ab0 <__bss_end+0x17d934>
     a3c:	03000007 	movweq	r0, #7
     a40:	00005389 	andeq	r5, r0, r9, lsl #7
     a44:	1a020400 	bne	81a4c <__bss_end+0x7e8d0>
     a48:	0d360600 	ldceq	6, cr0, [r6, #-0]
     a4c:	8a030000 	bhi	c0a54 <__bss_end+0xbd8d8>
     a50:	00000053 	andeq	r0, r0, r3, asr r0
     a54:	00180204 	andseq	r0, r8, r4, lsl #4
     a58:	00074a06 	andeq	r4, r7, r6, lsl #20
     a5c:	538b0300 	orrpl	r0, fp, #0, 6
     a60:	04000000 	streq	r0, [r0], #-0
     a64:	06001404 	streq	r1, [r0], -r4, lsl #8
     a68:	00000d40 	andeq	r0, r0, r0, asr #26
     a6c:	00538c03 	subseq	r8, r3, r3, lsl #24
     a70:	04040000 	streq	r0, [r4], #-0
     a74:	d4060010 	strle	r0, [r6], #-16
     a78:	03000006 	movweq	r0, #6
     a7c:	0000538d 	andeq	r5, r0, sp, lsl #7
     a80:	0f010400 	svceq	0x00010400
     a84:	0c690600 	stcleq	6, cr0, [r9], #-0
     a88:	8f030000 	svchi	0x00030000
     a8c:	00000053 	andeq	r0, r0, r3, asr r0
     a90:	000e0104 	andeq	r0, lr, r4, lsl #2
     a94:	000d4a06 	andeq	r4, sp, r6, lsl #20
     a98:	53900300 	orrspl	r0, r0, #0, 6
     a9c:	04000000 	streq	r0, [r0], #-0
     aa0:	06000c02 	streq	r0, [r0], -r2, lsl #24
     aa4:	00000bd2 	ldrdeq	r0, [r0], -r2
     aa8:	00539103 	subseq	r9, r3, r3, lsl #2
     aac:	01040000 	mrseq	r0, (UNDEF: 4)
     ab0:	7d06000b 	stcvc	0, cr0, [r6, #-44]	; 0xffffffd4
     ab4:	03000005 	movweq	r0, #5
     ab8:	00005392 	muleq	r0, r2, r3
     abc:	0a010400 	beq	41ac4 <__bss_end+0x3e948>
     ac0:	06110600 	ldreq	r0, [r1], -r0, lsl #12
     ac4:	93030000 	movwls	r0, #12288	; 0x3000
     ac8:	00000053 	andeq	r0, r0, r3, asr r0
     acc:	00090104 	andeq	r0, r9, r4, lsl #2
     ad0:	000d2f06 	andeq	r2, sp, r6, lsl #30
     ad4:	53940300 	orrspl	r0, r4, #0, 6
     ad8:	04000000 	streq	r0, [r0], #-0
     adc:	06000801 	streq	r0, [r0], -r1, lsl #16
     ae0:	00000d54 	andeq	r0, r0, r4, asr sp
     ae4:	00539503 	subseq	r9, r3, r3, lsl #10
     ae8:	01040000 	mrseq	r0, (UNDEF: 4)
     aec:	19060007 	stmdbne	r6, {r0, r1, r2}
     af0:	0300000c 	movweq	r0, #12
     af4:	00005396 	muleq	r0, r6, r3
     af8:	06010400 	streq	r0, [r1], -r0, lsl #8
     afc:	0ca60600 	stceq	6, cr0, [r6]
     b00:	97030000 	strls	r0, [r3, -r0]
     b04:	00000053 	andeq	r0, r0, r3, asr r0
     b08:	00050104 	andeq	r0, r5, r4, lsl #2
     b0c:	000e7306 	andeq	r7, lr, r6, lsl #6
     b10:	53980300 	orrspl	r0, r8, #0, 6
     b14:	04000000 	streq	r0, [r0], #-0
     b18:	06000401 	streq	r0, [r0], -r1, lsl #8
     b1c:	00000bfd 	strdeq	r0, [r0], -sp
     b20:	00539903 	subseq	r9, r3, r3, lsl #18
     b24:	01040000 	mrseq	r0, (UNDEF: 4)
     b28:	5e060003 	cdppl	0, 0, cr0, cr6, cr3, {0}
     b2c:	0300000d 	movweq	r0, #13
     b30:	0000539a 	muleq	r0, sl, r3
     b34:	01020400 	tsteq	r2, r0, lsl #8
     b38:	0cac0600 	stceq	6, cr0, [ip]
     b3c:	9b030000 	blls	c0b44 <__bss_end+0xbd9c8>
     b40:	00000053 	andeq	r0, r0, r3, asr r0
     b44:	00000104 	andeq	r0, r0, r4, lsl #2
     b48:	04840300 	streq	r0, [r4], #768	; 0x300
     b4c:	9c030000 	stcls	0, cr0, [r3], {-0}
     b50:	000004c6 	andeq	r0, r0, r6, asr #9
     b54:	a4030405 	strge	r0, [r3], #-1029	; 0xfffffbfb
     b58:	0000065e 	andeq	r0, r0, lr, asr r6
     b5c:	000fe306 	andeq	lr, pc, r6, lsl #6
     b60:	53a60300 			; <UNDEFINED> instruction: 0x53a60300
     b64:	04000000 	streq	r0, [r0], #-0
     b68:	06001e02 	streq	r1, [r0], -r2, lsl #28
     b6c:	00000d36 	andeq	r0, r0, r6, lsr sp
     b70:	0053a703 	subseq	sl, r3, r3, lsl #14
     b74:	06040000 	streq	r0, [r4], -r0
     b78:	e7060018 	smlad	r6, r8, r0, r0
     b7c:	0300000c 	movweq	r0, #12
     b80:	000053a8 	andeq	r5, r0, r8, lsr #7
     b84:	16020400 	strne	r0, [r2], -r0, lsl #8
     b88:	0d400600 	stcleq	6, cr0, [r0, #-0]
     b8c:	a9030000 	stmdbge	r3, {}	; <UNPREDICTABLE>
     b90:	00000053 	andeq	r0, r0, r3, asr r0
     b94:	00100604 	andseq	r0, r0, r4, lsl #12
     b98:	0008c406 	andeq	ip, r8, r6, lsl #8
     b9c:	53aa0300 			; <UNDEFINED> instruction: 0x53aa0300
     ba0:	04000000 	streq	r0, [r0], #-0
     ba4:	06000e02 	streq	r0, [r0], -r2, lsl #28
     ba8:	00000d4a 	andeq	r0, r0, sl, asr #26
     bac:	0053ab03 	subseq	sl, r3, r3, lsl #22
     bb0:	0e040000 	cdpeq	0, 0, cr0, cr4, cr0, {0}
     bb4:	07000000 	streq	r0, [r0, -r0]
     bb8:	7da20304 	stcvc	3, cr0, [r2, #16]!
     bbc:	08000006 	stmdaeq	r0, {r1, r2}
     bc0:	000004d4 	ldrdeq	r0, [r0], -r4
     bc4:	0053a303 	subseq	sl, r3, r3, lsl #6
     bc8:	d2080000 	andle	r0, r8, #0
     bcc:	0300000a 	movweq	r0, #10
     bd0:	0005fbac 	andeq	pc, r5, ip, lsr #23
     bd4:	f3030000 	vhadd.u8	d0, d3, d0
     bd8:	03000005 	movweq	r0, #5
     bdc:	00065ead 	andeq	r5, r6, sp, lsr #29
     be0:	04540900 	ldrbeq	r0, [r4], #-2304	; 0xfffff700
     be4:	03040000 	movweq	r0, #16384	; 0x4000
     be8:	0006feb4 			; <UNDEFINED> instruction: 0x0006feb4
     bec:	0d360600 	ldceq	6, cr0, [r6, #-0]
     bf0:	b6030000 	strlt	r0, [r3], -r0
     bf4:	00000053 	andeq	r0, r0, r3, asr r0
     bf8:	001c0404 	andseq	r0, ip, r4, lsl #8
     bfc:	000b2a06 	andeq	r2, fp, r6, lsl #20
     c00:	53b70300 			; <UNDEFINED> instruction: 0x53b70300
     c04:	04000000 	streq	r0, [r0], #-0
     c08:	06001a02 	streq	r1, [r0], -r2, lsl #20
     c0c:	00000fa6 	andeq	r0, r0, r6, lsr #31
     c10:	0053b803 	subseq	fp, r3, r3, lsl #16
     c14:	02040000 	andeq	r0, r4, #0
     c18:	59060018 	stmdbpl	r6, {r3, r4}
     c1c:	0300000c 	movweq	r0, #12
     c20:	000053b9 			; <UNDEFINED> instruction: 0x000053b9
     c24:	16020400 	strne	r0, [r2], -r0, lsl #8
     c28:	0d400600 	stcleq	6, cr0, [r0, #-0]
     c2c:	ba030000 	blt	c0c34 <__bss_end+0xbdab8>
     c30:	00000053 	andeq	r0, r0, r3, asr r0
     c34:	00140204 	andseq	r0, r4, r4, lsl #4
     c38:	000c4406 	andeq	r4, ip, r6, lsl #8
     c3c:	53bb0300 			; <UNDEFINED> instruction: 0x53bb0300
     c40:	04000000 	streq	r0, [r0], #-0
     c44:	06001202 	streq	r1, [r0], -r2, lsl #4
     c48:	00000d4a 	andeq	r0, r0, sl, asr #26
     c4c:	0053bc03 	subseq	fp, r3, r3, lsl #24
     c50:	12040000 	andne	r0, r4, #0
     c54:	03000000 	movweq	r0, #0
     c58:	00000eea 	andeq	r0, r0, sl, ror #29
     c5c:	0688bd03 	streq	fp, [r8], r3, lsl #26
     c60:	04050000 	streq	r0, [r5], #-0
     c64:	076cc503 	strbeq	ip, [ip, -r3, lsl #10]!
     c68:	e9060000 	stmdb	r6, {}	; <UNPREDICTABLE>
     c6c:	03000007 	movweq	r0, #7
     c70:	000053c7 	andeq	r5, r0, r7, asr #7
     c74:	1b050400 	blne	141c7c <__bss_end+0x13eb00>
     c78:	0fda0600 	svceq	0x00da0600
     c7c:	c8030000 	stmdagt	r3, {}	; <UNPREDICTABLE>
     c80:	00000053 	andeq	r0, r0, r3, asr r0
     c84:	00100b04 	andseq	r0, r0, r4, lsl #22
     c88:	0007ee06 	andeq	lr, r7, r6, lsl #28
     c8c:	53c90300 	bicpl	r0, r9, #0, 6
     c90:	04000000 	streq	r0, [r0], #-0
     c94:	06000e02 	streq	r0, [r0], -r2, lsl #28
     c98:	00000d40 	andeq	r0, r0, r0, asr #26
     c9c:	0053ca03 	subseq	ip, r3, r3, lsl #20
     ca0:	06040000 	streq	r0, [r4], -r0
     ca4:	48060008 	stmdami	r6, {r3}
     ca8:	0300000c 	movweq	r0, #12
     cac:	000053cb 	andeq	r5, r0, fp, asr #7
     cb0:	06020400 	streq	r0, [r2], -r0, lsl #8
     cb4:	0d4a0600 	stcleq	6, cr0, [sl, #-0]
     cb8:	cc030000 	stcgt	0, cr0, [r3], {-0}
     cbc:	00000053 	andeq	r0, r0, r3, asr r0
     cc0:	00000604 	andeq	r0, r0, r4, lsl #12
     cc4:	03040700 	movweq	r0, #18176	; 0x4700
     cc8:	00078bc3 	andeq	r8, r7, r3, asr #23
     ccc:	04d40800 	ldrbeq	r0, [r4], #2048	; 0x800
     cd0:	c4030000 	strgt	r0, [r3], #-0
     cd4:	00000053 	andeq	r0, r0, r3, asr r0
     cd8:	000ad208 	andeq	sp, sl, r8, lsl #4
     cdc:	09cd0300 	stmibeq	sp, {r8, r9}^
     ce0:	00000007 	andeq	r0, r0, r7
     ce4:	000b6703 	andeq	r6, fp, r3, lsl #14
     ce8:	6cce0300 	stclvs	3, cr0, [lr], {0}
     cec:	09000007 	stmdbeq	r0, {r0, r1, r2}
     cf0:	000009e0 	andeq	r0, r0, r0, ror #19
     cf4:	c1d00304 	bicsgt	r0, r0, r4, lsl #6
     cf8:	06000007 	streq	r0, [r0], -r7
     cfc:	00000f9d 	muleq	r0, sp, pc	; <UNPREDICTABLE>
     d00:	0053d203 	subseq	sp, r3, r3, lsl #4
     d04:	10040000 	andne	r0, r4, r0
     d08:	da060010 	ble	180d50 <__bss_end+0x17dbd4>
     d0c:	0300000f 	movweq	r0, #15
     d10:	000053d3 	ldrdeq	r5, [r0], -r3
     d14:	00100400 	andseq	r0, r0, r0, lsl #8
     d18:	30030000 	andcc	r0, r3, r0
     d1c:	0300000e 	movweq	r0, #14
     d20:	000796d4 	ldrdeq	r9, [r7], -r4
     d24:	10500a00 	subsne	r0, r0, r0, lsl #20
     d28:	02dc0000 	sbcseq	r0, ip, #0
     d2c:	0e99d603 	cdpeq	6, 9, cr13, cr9, cr3, {0}
     d30:	780b0000 	stmdavc	fp, {}	; <UNPREDICTABLE>
     d34:	03000009 	movweq	r0, #9
     d38:	000e99d8 	ldrdeq	r9, [lr], -r8
     d3c:	360b0000 	strcc	r0, [fp], -r0
     d40:	0300000d 	movweq	r0, #13
     d44:	000e9ed9 	ldrdeq	r9, [lr], -r9	; <UNPREDICTABLE>
     d48:	480b0400 	stmdami	fp, {sl}
     d4c:	03000010 	movweq	r0, #16
     d50:	000ea3da 	ldrdeq	sl, [lr], -sl	; <UNPREDICTABLE>
     d54:	400b0800 	andmi	r0, fp, r0, lsl #16
     d58:	0300000d 	movweq	r0, #13
     d5c:	000e9edb 	ldrdeq	r9, [lr], -fp
     d60:	490b0c00 	stmdbmi	fp, {sl, fp}
     d64:	0300000b 	movweq	r0, #11
     d68:	000e9edc 	ldrdeq	r9, [lr], -ip
     d6c:	4a0b1000 	bmi	2c4d74 <__bss_end+0x2c1bf8>
     d70:	0300000d 	movweq	r0, #13
     d74:	000e9edd 	ldrdeq	r9, [lr], -sp
     d78:	a70b1400 	strge	r1, [fp, -r0, lsl #8]
     d7c:	03000005 	movweq	r0, #5
     d80:	000e9ede 	ldrdeq	r9, [lr], -lr
     d84:	540b1800 	strpl	r1, [fp], #-2048	; 0xfffff800
     d88:	0300000d 	movweq	r0, #13
     d8c:	000e9edf 	ldrdeq	r9, [lr], -pc	; <UNPREDICTABLE>
     d90:	800b1c00 	andhi	r1, fp, r0, lsl #24
     d94:	0300000c 	movweq	r0, #12
     d98:	000ea8e0 	andeq	sl, lr, r0, ror #17
     d9c:	5e0b2000 	cdppl	0, 0, cr2, cr11, cr0, {0}
     da0:	0300000d 	movweq	r0, #13
     da4:	000e9ee1 	andeq	r9, lr, r1, ror #29
     da8:	3e0b2400 	cfcpyscc	mvf2, mvf11
     dac:	03000005 	movweq	r0, #5
     db0:	000eade2 	andeq	sl, lr, r2, ror #27
     db4:	680b2800 	stmdavs	fp, {fp, sp}
     db8:	0300000d 	movweq	r0, #13
     dbc:	000e9ee3 	andeq	r9, lr, r3, ror #29
     dc0:	750b2c00 	strvc	r2, [fp, #-3072]	; 0xfffff400
     dc4:	0300000c 	movweq	r0, #12
     dc8:	000e9ee4 	andeq	r9, lr, r4, ror #29
     dcc:	720b3000 	andvc	r3, fp, #0
     dd0:	0300000d 	movweq	r0, #13
     dd4:	000e9ee5 	andeq	r9, lr, r5, ror #29
     dd8:	cd0b3400 	cfstrsgt	mvf3, [fp, #-0]
     ddc:	03000009 	movweq	r0, #9
     de0:	000eb2e6 	andeq	fp, lr, r6, ror #5
     de4:	7c0b3800 	stcvc	8, cr3, [fp], {-0}
     de8:	0300000d 	movweq	r0, #13
     dec:	000e9ee7 	andeq	r9, lr, r7, ror #29
     df0:	2f0b3c00 	svccs	0x000b3c00
     df4:	03000007 	movweq	r0, #7
     df8:	000eb7e8 	andeq	fp, lr, r8, ror #15
     dfc:	ba0b4000 	blt	2d0e04 <__bss_end+0x2cdc88>
     e00:	03000010 	movweq	r0, #16
     e04:	000e9ee9 	andeq	r9, lr, r9, ror #29
     e08:	9e0b4400 	cfcpysls	mvf4, mvf11
     e0c:	03000005 	movweq	r0, #5
     e10:	000e9eea 	andeq	r9, lr, sl, ror #29
     e14:	c80b4800 	stmdagt	fp, {fp, lr}
     e18:	0300000c 	movweq	r0, #12
     e1c:	000e9eeb 	andeq	r9, lr, fp, ror #29
     e20:	510b4c00 	tstpl	fp, r0, lsl #24
     e24:	0300000b 	movweq	r0, #11
     e28:	000ebcec 	andeq	fp, lr, ip, ror #25
     e2c:	2a0b5000 	bcs	2d4e34 <__bss_end+0x2d1cb8>
     e30:	0300000b 	movweq	r0, #11
     e34:	000ec1ed 	andeq	ip, lr, sp, ror #3
     e38:	520b5400 	andpl	r5, fp, #0, 8
     e3c:	03000007 	movweq	r0, #7
     e40:	000ec6ee 	andeq	ip, lr, lr, ror #13
     e44:	290b5800 	stmdbcs	fp, {fp, ip, lr}
     e48:	0300000f 	movweq	r0, #15
     e4c:	000e9eef 	andeq	r9, lr, pc, ror #29
     e50:	130b5c00 	movwne	r5, #48128	; 0xbc00
     e54:	0300000e 	movweq	r0, #14
     e58:	000e9ef0 	strdeq	r9, [lr], -r0
     e5c:	3e0b6000 	cdpcc	0, 0, cr6, cr11, cr0, {0}
     e60:	03000009 	movweq	r0, #9
     e64:	000e9ef1 	strdeq	r9, [lr], -r1
     e68:	ed0b6400 	cfstrs	mvf6, [fp, #-0]
     e6c:	0300000f 	movweq	r0, #15
     e70:	000e9ef2 	strdeq	r9, [lr], -r2
     e74:	d80b6800 	stmdale	fp, {fp, sp, lr}
     e78:	0300000b 	movweq	r0, #11
     e7c:	000e9ef3 	strdeq	r9, [lr], -r3
     e80:	860b6c00 	strhi	r6, [fp], -r0, lsl #24
     e84:	0300000d 	movweq	r0, #13
     e88:	000ee2f4 	strdeq	lr, [lr], -r4
     e8c:	780b7000 	stmdavc	fp, {ip, sp, lr}
     e90:	03000010 	movweq	r0, #16
     e94:	000e9ef5 	strdeq	r9, [lr], -r5
     e98:	f60b8000 			; <UNDEFINED> instruction: 0xf60b8000
     e9c:	0300000f 	movweq	r0, #15
     ea0:	000e9ef6 	strdeq	r9, [lr], -r6
     ea4:	530c8400 	movwpl	r8, #50176	; 0xc400
     ea8:	03003064 	movweq	r3, #100	; 0x64
     eac:	000e9ef7 	strdeq	r9, [lr], -r7
     eb0:	530c8800 	movwpl	r8, #51200	; 0xc800
     eb4:	03003164 	movweq	r3, #356	; 0x164
     eb8:	000e9ef8 	strdeq	r9, [lr], -r8
     ebc:	530c8c00 	movwpl	r8, #52224	; 0xcc00
     ec0:	03003264 	movweq	r3, #612	; 0x264
     ec4:	000e9ef9 	strdeq	r9, [lr], -r9	; <UNPREDICTABLE>
     ec8:	010b9000 	mrseq	r9, (UNDEF: 11)
     ecc:	03000010 	movweq	r0, #16
     ed0:	000ef7fa 	strdeq	pc, [lr], -sl
     ed4:	530c9400 	movwpl	r9, #50176	; 0xc400
     ed8:	fb030073 	blx	c10ae <__bss_end+0xbdf32>
     edc:	00000e9e 	muleq	r0, lr, lr
     ee0:	0e090b9c 	vmoveq.32	d25[0], r0
     ee4:	fc030000 	stc2	0, cr0, [r3], {-0}
     ee8:	00000e9e 	muleq	r0, lr, lr
     eec:	0e0e0ba0 	vmlaeq.f64	d0, d30, d16
     ef0:	fd030000 	stc2	0, cr0, [r3, #-0]
     ef4:	00000e9e 	muleq	r0, lr, lr
     ef8:	100c0ba4 	andne	r0, ip, r4, lsr #23
     efc:	fe030000 	cdp2	0, 0, cr0, cr3, cr0, {0}
     f00:	00000efc 	strdeq	r0, [r0], -ip
     f04:	05940ba8 	ldreq	r0, [r4, #2984]	; 0xba8
     f08:	ff030000 			; <UNDEFINED> instruction: 0xff030000
     f0c:	00000e9e 	muleq	r0, lr, lr
     f10:	05990db0 	ldreq	r0, [r9, #3504]	; 0xdb0
     f14:	00030000 	andeq	r0, r3, r0
     f18:	000e9e01 	andeq	r9, lr, r1, lsl #28
     f1c:	d50db400 	strle	fp, [sp, #-1024]	; 0xfffffc00
     f20:	03000009 	movweq	r0, #9
     f24:	0f010101 	svceq	0x00010101
     f28:	0db80000 	ldceq	0, cr0, [r8]
     f2c:	00000e67 	andeq	r0, r0, r7, ror #28
     f30:	9e010203 	cdpls	2, 0, cr0, cr1, cr3, {0}
     f34:	c000000e 	andgt	r0, r0, lr
     f38:	000b060d 	andeq	r0, fp, sp, lsl #12
     f3c:	01030300 	mrseq	r0, SP_svc
     f40:	00000f06 	andeq	r0, r0, r6, lsl #30
     f44:	73550ec4 	cmpvc	r5, #196, 28	; 0xc40
     f48:	04030062 	streq	r0, [r3], #-98	; 0xffffff9e
     f4c:	000e9e01 	andeq	r9, lr, r1, lsl #28
     f50:	540dcc00 	strpl	ip, [sp], #-3072	; 0xfffff400
     f54:	0300000f 	movweq	r0, #15
     f58:	0e9e0105 	fmleqe	f0, f6, f5
     f5c:	0dd00000 	ldcleq	0, cr0, [r0]
     f60:	000009f7 	strdeq	r0, [r0], -r7
     f64:	1b010603 	blne	42778 <__bss_end+0x3f5fc>
     f68:	d400000f 	strle	r0, [r0], #-15
     f6c:	00103c0d 	andseq	r3, r0, sp, lsl #24
     f70:	01070300 	mrseq	r0, SP_und
     f74:	00000e9e 	muleq	r0, lr, lr
     f78:	0ee20df0 	mcreq	13, 7, r0, cr2, cr0, {7}
     f7c:	08030000 	stmdaeq	r3, {}	; <UNPREDICTABLE>
     f80:	000e9e01 	andeq	r9, lr, r1, lsl #28
     f84:	340df400 	strcc	pc, [sp], #-1024	; 0xfffffc00
     f88:	0300000a 	movweq	r0, #10
     f8c:	0e9e0109 	fmleqe	f0, f6, #1.0
     f90:	0df80000 	ldcleq	0, cr0, [r8]
     f94:	00000b83 	andeq	r0, r0, r3, lsl #23
     f98:	9e010a03 	vmlals.f32	s0, s2, s6
     f9c:	fc00000e 	stc2	0, cr0, [r0], {14}
     fa0:	000c3b0f 	andeq	r3, ip, pc, lsl #22
     fa4:	010b0300 	mrseq	r0, (UNDEF: 59)
     fa8:	00000e9e 	muleq	r0, lr, lr
     fac:	42100100 	andsmi	r0, r0, #0, 2
     fb0:	03003065 	movweq	r3, #101	; 0x65
     fb4:	0e9e010c 	fmleqe	f0, f6, #4.0
     fb8:	01040000 	mrseq	r0, (UNDEF: 4)
     fbc:	000b3d0f 	andeq	r3, fp, pc, lsl #26
     fc0:	010d0300 	mrseq	r0, SP_mon
     fc4:	00000e9e 	muleq	r0, lr, lr
     fc8:	46100108 	ldrmi	r0, [r0], -r8, lsl #2
     fcc:	03003065 	movweq	r3, #101	; 0x65
     fd0:	0e9e010e 	fmleqe	f0, f6, #0.5
     fd4:	010c0000 	mrseq	r0, (UNDEF: 12)
     fd8:	00049e0f 	andeq	r9, r4, pc, lsl #28
     fdc:	010f0300 	mrseq	r0, SP_hyp
     fe0:	00000e9e 	muleq	r0, lr, lr
     fe4:	aa0f0110 	bge	3c142c <__bss_end+0x3be2b0>
     fe8:	03000004 	movweq	r0, #4
     fec:	0e9e0110 	mrceq	1, 4, r0, cr14, cr0, {0}
     ff0:	01140000 	tsteq	r4, r0
     ff4:	0005130f 	andeq	r1, r5, pc, lsl #6
     ff8:	01110300 	tsteq	r1, r0, lsl #6
     ffc:	00000e9e 	muleq	r0, lr, lr
    1000:	b60f0118 			; <UNDEFINED> instruction: 0xb60f0118
    1004:	03000004 	movweq	r0, #4
    1008:	0e9e0112 	mrceq	1, 4, r0, cr14, cr2, {0}
    100c:	011c0000 	tsteq	ip, r0
    1010:	000a080f 	andeq	r0, sl, pc, lsl #16
    1014:	01130300 	tsteq	r3, r0, lsl #6
    1018:	00000f30 	andeq	r0, r0, r0, lsr pc
    101c:	1b0f0120 	blne	3c14a4 <__bss_end+0x3be328>
    1020:	03000005 	movweq	r0, #5
    1024:	0e9e0114 	mrceq	1, 4, r0, cr14, cr4, {0}
    1028:	012c0000 			; <UNDEFINED> instruction: 0x012c0000
    102c:	0005530f 	andeq	r5, r5, pc, lsl #6
    1030:	01150300 	tsteq	r5, r0, lsl #6
    1034:	00000e9e 	muleq	r0, lr, lr
    1038:	b60f0130 			; <UNDEFINED> instruction: 0xb60f0130
    103c:	0300000d 	movweq	r0, #13
    1040:	0e9e0116 	mrceq	1, 4, r0, cr14, cr6, {0}
    1044:	01340000 	teqeq	r4, r0
    1048:	00055f0f 	andeq	r5, r5, pc, lsl #30
    104c:	01170300 	tsteq	r7, r0, lsl #6
    1050:	00000e9e 	muleq	r0, lr, lr
    1054:	56100138 			; <UNDEFINED> instruction: 0x56100138
    1058:	18030065 	stmdane	r3, {r0, r2, r5, r6}
    105c:	000e9e01 	andeq	r9, lr, r1, lsl #28
    1060:	0f013c00 	svceq	0x00013c00
    1064:	00000980 	andeq	r0, r0, r0, lsl #19
    1068:	9e011903 	cdpls	9, 0, cr1, cr1, cr3, {0}
    106c:	4000000e 	andmi	r0, r0, lr
    1070:	76411001 	strbvc	r1, [r1], -r1
    1074:	1a030073 	bne	c1248 <__bss_end+0xbe0cc>
    1078:	000e9e01 	andeq	r9, lr, r1, lsl #28
    107c:	0f014400 	svceq	0x00014400
    1080:	0000056b 	andeq	r0, r0, fp, ror #10
    1084:	9e011b03 	vmlals.f64	d1, d1, d3
    1088:	4800000e 	stmdami	r0, {r1, r2, r3}
    108c:	0a130f01 	beq	4c4c98 <__bss_end+0x4c1b1c>
    1090:	1c030000 	stcne	0, cr0, [r3], {-0}
    1094:	000e9e01 	andeq	r9, lr, r1, lsl #28
    1098:	0f014c00 	svceq	0x00014c00
    109c:	0000064e 	andeq	r0, r0, lr, asr #12
    10a0:	9e011d03 	cdpls	13, 0, cr1, cr1, cr3, {0}
    10a4:	5000000e 	andpl	r0, r0, lr
    10a8:	065a0f01 	ldrbeq	r0, [sl], -r1, lsl #30
    10ac:	1e030000 	cdpne	0, 0, cr0, cr3, cr0, {0}
    10b0:	000e9e01 	andeq	r9, lr, r1, lsl #28
    10b4:	0f015400 	svceq	0x00015400
    10b8:	00000666 	andeq	r0, r0, r6, ror #12
    10bc:	9e011f03 	cdpls	15, 0, cr1, cr1, cr3, {0}
    10c0:	5800000e 	stmdapl	r0, {r1, r2, r3}
    10c4:	06ce0f01 	strbeq	r0, [lr], r1, lsl #30
    10c8:	20030000 	andcs	r0, r3, r0
    10cc:	000e9e01 	andeq	r9, lr, r1, lsl #28
    10d0:	0f015c00 	svceq	0x00015c00
    10d4:	00000672 	andeq	r0, r0, r2, ror r6
    10d8:	9e012103 	adflss	f2, f1, f3
    10dc:	6000000e 	andvs	r0, r0, lr
    10e0:	0a1e0f01 	beq	784cec <__bss_end+0x781b70>
    10e4:	22030000 	andcs	r0, r3, #0
    10e8:	000e9e01 	andeq	r9, lr, r1, lsl #28
    10ec:	0f016400 	svceq	0x00016400
    10f0:	000005dc 	ldrdeq	r0, [r0], -ip
    10f4:	9e012303 	cdpls	3, 0, cr2, cr1, cr3, {0}
    10f8:	6800000e 	stmdavs	r0, {r1, r2, r3}
    10fc:	0f910f01 	svceq	0x00910f01
    1100:	24030000 	strcs	r0, [r3], #-0
    1104:	000e9e01 	andeq	r9, lr, r1, lsl #28
    1108:	0f016c00 	svceq	0x00016c00
    110c:	00000a29 	andeq	r0, r0, r9, lsr #20
    1110:	35012503 	strcc	r2, [r1, #-1283]	; 0xfffffafd
    1114:	7000000f 	andvc	r0, r0, pc
    1118:	08a50f01 	stmiaeq	r5!, {r0, r8, r9, sl, fp}
    111c:	26030000 	strcs	r0, [r3], -r0
    1120:	000e9e01 	andeq	r9, lr, r1, lsl #28
    1124:	0f018000 	svceq	0x00018000
    1128:	00000854 	andeq	r0, r0, r4, asr r8
    112c:	9e012703 	cdpls	7, 0, cr2, cr1, cr3, {0}
    1130:	8400000e 	strhi	r0, [r0], #-14
    1134:	08600f01 	stmdaeq	r0!, {r0, r8, r9, sl, fp}^
    1138:	28030000 	stmdacs	r3, {}	; <UNPREDICTABLE>
    113c:	000e9e01 	andeq	r9, lr, r1, lsl #28
    1140:	0f018800 	svceq	0x00018800
    1144:	0000086c 	andeq	r0, r0, ip, ror #16
    1148:	9e012903 	cdpls	9, 0, cr2, cr1, cr3, {0}
    114c:	8c00000e 	stchi	0, cr0, [r0], {14}
    1150:	0b320f01 	bleq	c84d5c <__bss_end+0xc81be0>
    1154:	2a030000 	bcs	c115c <__bss_end+0xbdfe0>
    1158:	000f3a01 	andeq	r3, pc, r1, lsl #20
    115c:	0f019000 	svceq	0x00019000
    1160:	0000089d 	muleq	r0, sp, r8
    1164:	9e012b03 	vmlals.f64	d2, d1, d3
    1168:	a000000e 	andge	r0, r0, lr
    116c:	07cc0f01 	strbeq	r0, [ip, r1, lsl #30]
    1170:	2c030000 	stccs	0, cr0, [r3], {-0}
    1174:	000e9e01 	andeq	r9, lr, r1, lsl #28
    1178:	0f01a400 	svceq	0x0001a400
    117c:	00000b90 	muleq	r0, r0, fp
    1180:	9e012d03 	cdpls	13, 0, cr2, cr1, cr3, {0}
    1184:	a800000e 	stmdage	r0, {r1, r2, r3}
    1188:	08f50f01 	ldmeq	r5!, {r0, r8, r9, sl, fp}^
    118c:	2e030000 	cdpcs	0, 0, cr0, cr3, cr0, {0}
    1190:	000e9e01 	andeq	r9, lr, r1, lsl #28
    1194:	1001ac00 	andne	sl, r1, r0, lsl #24
    1198:	00737441 	rsbseq	r7, r3, r1, asr #8
    119c:	9e012f03 	cdpls	15, 0, cr2, cr1, cr3, {0}
    11a0:	b000000e 	andlt	r0, r0, lr
    11a4:	0a3e0f01 	beq	f84db0 <__bss_end+0xf81c34>
    11a8:	30030000 	andcc	r0, r3, r0
    11ac:	000f4f01 	andeq	r4, pc, r1, lsl #30
    11b0:	0f01b400 	svceq	0x0001b400
    11b4:	00000878 	andeq	r0, r0, r8, ror r8
    11b8:	54013103 	strpl	r3, [r1], #-259	; 0xfffffefd
    11bc:	0000000f 	andeq	r0, r0, pc
    11c0:	0bf90f02 	bleq	ffe44dd0 <__bss_end+0xffe41c54>
    11c4:	32030000 	andcc	r0, r3, #0
    11c8:	000e9e01 	andeq	r9, lr, r1, lsl #28
    11cc:	0f020400 	svceq	0x00020400
    11d0:	00000fce 	andeq	r0, r0, lr, asr #31
    11d4:	69013303 	stmdbvs	r1, {r0, r1, r8, r9, ip, sp}
    11d8:	0800000f 	stmdaeq	r0, {r0, r1, r2, r3}
    11dc:	0aa60f02 	beq	fe984dec <__bss_end+0xfe981c70>
    11e0:	34030000 	strcc	r0, [r3], #-0
    11e4:	000f7e01 	andeq	r7, pc, r1, lsl #28
    11e8:	0f022000 	svceq	0x00022000
    11ec:	00000629 	andeq	r0, r0, r9, lsr #12
    11f0:	9e013503 	cfsh32ls	mvfx3, mvfx1, #3
    11f4:	2400000e 	strcs	r0, [r0], #-14
    11f8:	09620f02 	stmdbeq	r2!, {r1, r8, r9, sl, fp}^
    11fc:	36030000 	strcc	r0, [r3], -r0
    1200:	000e9e01 	andeq	r9, lr, r1, lsl #28
    1204:	0f022800 	svceq	0x00022800
    1208:	00000aed 	andeq	r0, r0, sp, ror #21
    120c:	9e013703 	cdpls	7, 0, cr3, cr1, cr3, {0}
    1210:	2c00000e 	stccs	0, cr0, [r0], {14}
    1214:	0c020f02 	stceq	15, cr0, [r2], {2}
    1218:	38030000 	stmdacc	r3, {}	; <UNPREDICTABLE>
    121c:	000e9e01 	andeq	r9, lr, r1, lsl #28
    1220:	0f023000 	svceq	0x00023000
    1224:	00000e49 	andeq	r0, r0, r9, asr #28
    1228:	9e013903 	cdpls	9, 0, cr3, cr1, cr3, {0}
    122c:	3400000e 	strcc	r0, [r0], #-14
    1230:	07620f02 	strbeq	r0, [r2, -r2, lsl #30]!
    1234:	3a030000 	bcc	c123c <__bss_end+0xbe0c0>
    1238:	000e9e01 	andeq	r9, lr, r1, lsl #28
    123c:	0f023800 	svceq	0x00023800
    1240:	0000079e 	muleq	r0, lr, r7
    1244:	9e013b03 	vmlals.f64	d3, d1, d3
    1248:	3c00000e 	stccc	0, cr0, [r0], {14}
    124c:	0aaf0f02 	beq	febc4e5c <__bss_end+0xfebc1ce0>
    1250:	3c030000 	stccc	0, cr0, [r3], {-0}
    1254:	000e9e01 	andeq	r9, lr, r1, lsl #28
    1258:	0f024000 	svceq	0x00024000
    125c:	000006a4 	andeq	r0, r0, r4, lsr #13
    1260:	9e013d03 	cdpls	13, 0, cr3, cr1, cr3, {0}
    1264:	4400000e 	strmi	r0, [r0], #-14
    1268:	0c4f0f02 	mcrreq	15, 0, r0, pc, cr2
    126c:	3e030000 	cdpcc	0, 0, cr0, cr3, cr0, {0}
    1270:	000e9e01 	andeq	r9, lr, r1, lsl #28
    1274:	0f024800 	svceq	0x00024800
    1278:	00000eb3 			; <UNDEFINED> instruction: 0x00000eb3
    127c:	9e013f03 	cdpls	15, 0, cr3, cr1, cr3, {0}
    1280:	4c00000e 	stcmi	0, cr0, [r0], {14}
    1284:	06c60f02 	strbeq	r0, [r6], r2, lsl #30
    1288:	40030000 	andmi	r0, r3, r0
    128c:	000e9e01 	andeq	r9, lr, r1, lsl #28
    1290:	0f025000 	svceq	0x00025000
    1294:	0000076e 	andeq	r0, r0, lr, ror #14
    1298:	83014103 	movwhi	r4, #4355	; 0x1103
    129c:	5400000f 	strpl	r0, [r0], #-15
    12a0:	0af70f02 	beq	ffdc4eb0 <__bss_end+0xffdc1d34>
    12a4:	42030000 	andmi	r0, r3, #0
    12a8:	000e9e01 	andeq	r9, lr, r1, lsl #28
    12ac:	0f026000 	svceq	0x00026000
    12b0:	0000077a 	andeq	r0, r0, sl, ror r7
    12b4:	88014303 	stmdahi	r1, {r0, r1, r8, r9, lr}
    12b8:	6400000f 	strvs	r0, [r0], #-15
    12bc:	0ac70f02 	beq	ff1c4ecc <__bss_end+0xff1c1d50>
    12c0:	44030000 	strmi	r0, [r3], #-0
    12c4:	000e9e01 	andeq	r9, lr, r1, lsl #28
    12c8:	0f027000 	svceq	0x00027000
    12cc:	00000786 	andeq	r0, r0, r6, lsl #15
    12d0:	8d014503 	cfstr32hi	mvfx4, [r1, #-12]
    12d4:	7400000f 	strvc	r0, [r0], #-15
    12d8:	0abb0f02 	beq	feec4ee8 <__bss_end+0xfeec1d6c>
    12dc:	46030000 	strmi	r0, [r3], -r0
    12e0:	000e9e01 	andeq	r9, lr, r1, lsl #28
    12e4:	0f028000 	svceq	0x00028000
    12e8:	00000df2 	strdeq	r0, [r0], -r2
    12ec:	9e014703 	cdpls	7, 0, cr4, cr1, cr3, {0}
    12f0:	8400000e 	strhi	r0, [r0], #-14
    12f4:	0fb10f02 	svceq	0x00b10f02
    12f8:	48030000 	stmdami	r3, {}	; <UNPREDICTABLE>
    12fc:	000e9e01 	andeq	r9, lr, r1, lsl #28
    1300:	0f028800 	svceq	0x00028800
    1304:	00000fc1 	andeq	r0, r0, r1, asr #31
    1308:	9e014903 	cdpls	9, 0, cr4, cr1, cr3, {0}
    130c:	8c00000e 	stchi	0, cr0, [r0], {14}
    1310:	04440f02 	strbeq	r0, [r4], #-3842	; 0xfffff0fe
    1314:	4a030000 	bmi	c131c <__bss_end+0xbe1a0>
    1318:	000e9e01 	andeq	r9, lr, r1, lsl #28
    131c:	0f029000 	svceq	0x00029000
    1320:	00000e1c 	andeq	r0, r0, ip, lsl lr
    1324:	92014b03 	andls	r4, r1, #3072	; 0xc00
    1328:	9400000f 	strls	r0, [r0], #-15
    132c:	07d30f02 	ldrbeq	r0, [r3, r2, lsl #30]
    1330:	4c030000 	stcmi	0, cr0, [r3], {-0}
    1334:	000e9e01 	andeq	r9, lr, r1, lsl #28
    1338:	0f029c00 	svceq	0x00029c00
    133c:	00000a52 	andeq	r0, r0, r2, asr sl
    1340:	9e014d03 	cdpls	13, 0, cr4, cr1, cr3, {0}
    1344:	a000000e 	andge	r0, r0, lr
    1348:	067e0f02 	ldrbteq	r0, [lr], -r2, lsl #30
    134c:	4e030000 	cdpmi	0, 0, cr0, cr3, cr0, {0}
    1350:	000e9e01 	andeq	r9, lr, r1, lsl #28
    1354:	0f02a400 	svceq	0x0002a400
    1358:	00000d9c 	muleq	r0, ip, sp
    135c:	9e014f03 	cdpls	15, 0, cr4, cr1, cr3, {0}
    1360:	a800000e 	stmdage	r0, {r1, r2, r3}
    1364:	0f690f02 	svceq	0x00690f02
    1368:	50030000 	andpl	r0, r3, r0
    136c:	000e9e01 	andeq	r9, lr, r1, lsl #28
    1370:	0f02ac00 	svceq	0x0002ac00
    1374:	00000f7d 	andeq	r0, r0, sp, ror pc
    1378:	9e015103 	adflss	f5, f1, f3
    137c:	b000000e 	andlt	r0, r0, lr
    1380:	07920f02 	ldreq	r0, [r2, r2, lsl #30]
    1384:	52030000 	andpl	r0, r3, #0
    1388:	000f9701 	andeq	r9, pc, r1, lsl #14
    138c:	0f02b400 	svceq	0x0002b400
    1390:	00000b9e 	muleq	r0, lr, fp
    1394:	9e015303 	cdpls	3, 0, cr5, cr1, cr3, {0}
    1398:	c000000e 	andgt	r0, r0, lr
    139c:	0ba80f02 	bleq	fea04fac <__bss_end+0xfea01e30>
    13a0:	54030000 	strpl	r0, [r3], #-0
    13a4:	000e9e01 	andeq	r9, lr, r1, lsl #28
    13a8:	0f02c400 	svceq	0x0002c400
    13ac:	00000bb2 			; <UNDEFINED> instruction: 0x00000bb2
    13b0:	9e015503 	cfsh32ls	mvfx5, mvfx1, #3
    13b4:	c800000e 	stmdagt	r0, {r1, r2, r3}
    13b8:	0ad70f02 	beq	ff5c4fc8 <__bss_end+0xff5c1e4c>
    13bc:	56030000 	strpl	r0, [r3], -r0
    13c0:	000e9e01 	andeq	r9, lr, r1, lsl #28
    13c4:	0f02cc00 	svceq	0x0002cc00
    13c8:	00000d12 	andeq	r0, r0, r2, lsl sp
    13cc:	9e015703 	cdpls	7, 0, cr5, cr1, cr3, {0}
    13d0:	d000000e 	andle	r0, r0, lr
    13d4:	0ae20f02 	beq	ff884fe4 <__bss_end+0xff881e68>
    13d8:	58030000 	stmdapl	r3, {}	; <UNPREDICTABLE>
    13dc:	000e9e01 	andeq	r9, lr, r1, lsl #28
    13e0:	0f02d400 	svceq	0x0002d400
    13e4:	00000823 	andeq	r0, r0, r3, lsr #16
    13e8:	9e015903 	cdpls	9, 0, cr5, cr1, cr3, {0}
    13ec:	d800000e 	stmdale	r0, {r1, r2, r3}
    13f0:	5e110002 	cdppl	0, 1, cr0, cr1, cr2, {0}
    13f4:	11000001 	tstne	r0, r1
    13f8:	00000053 	andeq	r0, r0, r3, asr r0
    13fc:	00021b11 	andeq	r1, r2, r1, lsl fp
    1400:	02f61100 	rscseq	r1, r6, #0, 2
    1404:	ef110000 	svc	0x00110000
    1408:	11000003 	tstne	r0, r3
    140c:	000004bb 			; <UNDEFINED> instruction: 0x000004bb
    1410:	0005f011 	andeq	pc, r5, r1, lsl r0	; <UNPREDICTABLE>
    1414:	067d1100 	ldrbteq	r1, [sp], -r0, lsl #2
    1418:	fe110000 	cdp2	0, 1, cr0, cr1, cr0, {0}
    141c:	11000006 	tstne	r0, r6
    1420:	0000078b 	andeq	r0, r0, fp, lsl #15
    1424:	00005312 	andeq	r5, r0, r2, lsl r3
    1428:	000edb00 	andeq	sp, lr, r0, lsl #22
    142c:	0edb1300 	cdpeq	3, 13, cr1, cr11, cr0, {0}
    1430:	00030000 	andeq	r0, r3, r0
    1434:	2f070402 	svccs	0x00070402
    1438:	11000002 	tstne	r0, r2
    143c:	00000ecb 	andeq	r0, r0, fp, asr #29
    1440:	00005312 	andeq	r5, r0, r2, lsl r3
    1444:	000ef700 	andeq	pc, lr, r0, lsl #14
    1448:	0edb1300 	cdpeq	3, 13, cr1, cr11, cr0, {0}
    144c:	00010000 	andeq	r0, r1, r0
    1450:	000ee711 	andeq	lr, lr, r1, lsl r7
    1454:	0ee71100 	cdpeq	1, 14, cr1, cr7, cr0, {0}
    1458:	e7110000 	ldr	r0, [r1, -r0]
    145c:	1100000e 	tstne	r0, lr
    1460:	00000ee7 	andeq	r0, r0, r7, ror #29
    1464:	00005312 	andeq	r5, r0, r2, lsl r3
    1468:	000f1b00 	andeq	r1, pc, r0, lsl #22
    146c:	0edb1300 	cdpeq	3, 13, cr1, cr11, cr0, {0}
    1470:	00060000 	andeq	r0, r6, r0
    1474:	000f0b11 	andeq	r0, pc, r1, lsl fp	; <UNPREDICTABLE>
    1478:	00531200 	subseq	r1, r3, r0, lsl #4
    147c:	0f300000 	svceq	0x00300000
    1480:	db130000 	blle	4c1488 <__bss_end+0x4be30c>
    1484:	0200000e 	andeq	r0, r0, #14
    1488:	0f201100 	svceq	0x00201100
    148c:	cb110000 	blgt	441494 <__bss_end+0x43e318>
    1490:	1100000e 	tstne	r0, lr
    1494:	00000ecb 	andeq	r0, r0, fp, asr #29
    1498:	00005312 	andeq	r5, r0, r2, lsl r3
    149c:	000f4f00 	andeq	r4, pc, r0, lsl #30
    14a0:	0edb1300 	cdpeq	3, 13, cr1, cr11, cr0, {0}
    14a4:	00120000 	andseq	r0, r2, r0
    14a8:	000f3f11 	andeq	r3, pc, r1, lsl pc	; <UNPREDICTABLE>
    14ac:	07c11100 	strbeq	r1, [r1, r0, lsl #2]
    14b0:	53120000 	tstpl	r2, #0
    14b4:	69000000 	stmdbvs	r0, {}	; <UNPREDICTABLE>
    14b8:	1300000f 	movwne	r0, #15
    14bc:	00000edb 	ldrdeq	r0, [r0], -fp
    14c0:	59110005 	ldmdbpl	r1, {r0, r2}
    14c4:	1200000f 	andne	r0, r0, #15
    14c8:	00000053 	andeq	r0, r0, r3, asr r0
    14cc:	00000f7e 	andeq	r0, r0, lr, ror pc
    14d0:	000edb13 	andeq	sp, lr, r3, lsl fp
    14d4:	11000000 	mrsne	r0, (UNDEF: 0)
    14d8:	00000f6e 	andeq	r0, r0, lr, ror #30
    14dc:	000f2011 	andeq	r2, pc, r1, lsl r0	; <UNPREDICTABLE>
    14e0:	0f201100 	svceq	0x00201100
    14e4:	20110000 	andscs	r0, r1, r0
    14e8:	1100000f 	tstne	r0, pc
    14ec:	00000ee7 	andeq	r0, r0, r7, ror #29
    14f0:	000f2011 	andeq	r2, pc, r1, lsl r0	; <UNPREDICTABLE>
    14f4:	0e961400 	cdpeq	4, 9, cr1, cr6, cr0, {0}
    14f8:	5a030000 	bpl	c1500 <__bss_end+0xbe384>
    14fc:	0007cc01 	andeq	ip, r7, r1, lsl #24
    1500:	9c041500 	cfstr32ls	mvfx1, [r4], {-0}
    1504:	0900000f 	stmdbeq	r0, {r0, r1, r2, r3}
    1508:	00000c88 	andeq	r0, r0, r8, lsl #25
    150c:	d3180408 	tstle	r8, #8, 8	; 0x8000000
    1510:	0b00000f 	bleq	1554 <set_ttbr0+0x8>
    1514:	00000523 	andeq	r0, r0, r3, lsr #10
    1518:	00531904 	subseq	r1, r3, r4, lsl #18
    151c:	0b000000 	bleq	1524 <save_processor_state+0x4>
    1520:	0000082d 	andeq	r0, r0, sp, lsr #16
    1524:	00531a04 	subseq	r1, r3, r4, lsl #20
    1528:	00040000 	andeq	r0, r4, r0
    152c:	000ea809 	andeq	sl, lr, r9, lsl #16
    1530:	1d042400 	cfstrsne	mvf2, [r4, #-0]
    1534:	0000104c 	andeq	r1, r0, ip, asr #32
    1538:	000f060b 	andeq	r0, pc, fp, lsl #12
    153c:	531e0400 	tstpl	lr, #0, 8
    1540:	00000000 	andeq	r0, r0, r0
    1544:	000ecd0b 	andeq	ip, lr, fp, lsl #26
    1548:	531f0400 	tstpl	pc, #0, 8
    154c:	04000000 	streq	r0, [r0], #-0
    1550:	0008800b 	andeq	r8, r8, fp
    1554:	53200400 	noppl	{0}	; <UNPREDICTABLE>
    1558:	08000000 	stmdaeq	r0, {}	; <UNPREDICTABLE>
    155c:	000b490b 	andeq	r4, fp, fp, lsl #18
    1560:	53220400 			; <UNDEFINED> instruction: 0x53220400
    1564:	0c000000 	stceq	0, cr0, [r0], {-0}
    1568:	0005a70b 	andeq	sl, r5, fp, lsl #14
    156c:	53230400 			; <UNDEFINED> instruction: 0x53230400
    1570:	10000000 	andne	r0, r0, r0
    1574:	0009620b 	andeq	r6, r9, fp, lsl #4
    1578:	53240400 			; <UNDEFINED> instruction: 0x53240400
    157c:	14000000 	strne	r0, [r0], #-0
    1580:	000aed0b 	andeq	lr, sl, fp, lsl #26
    1584:	53250400 			; <UNDEFINED> instruction: 0x53250400
    1588:	18000000 	stmdane	r0, {}	; <UNPREDICTABLE>
    158c:	000fb10b 	andeq	fp, pc, fp, lsl #2
    1590:	53260400 			; <UNDEFINED> instruction: 0x53260400
    1594:	1c000000 	stcne	0, cr0, [r0], {-0}
    1598:	000fc10b 	andeq	ip, pc, fp, lsl #2
    159c:	53270400 			; <UNDEFINED> instruction: 0x53270400
    15a0:	20000000 	andcs	r0, r0, r0
    15a4:	06410900 	strbeq	r0, [r1], -r0, lsl #18
    15a8:	04080000 	streq	r0, [r8], #-0
    15ac:	0010954a 	andseq	r9, r0, sl, asr #10
    15b0:	074a0b00 	strbeq	r0, [sl, -r0, lsl #22]
    15b4:	4b040000 	blmi	1015bc <__bss_end+0xfe440>
    15b8:	0000002c 	andeq	r0, r0, ip, lsr #32
    15bc:	073a0b00 	ldreq	r0, [sl, -r0, lsl #22]!
    15c0:	4c040000 	stcmi	0, cr0, [r4], {-0}
    15c4:	0000002c 	andeq	r0, r0, ip, lsr #32
    15c8:	07420b01 	strbeq	r0, [r2, -r1, lsl #22]
    15cc:	4d040000 	stcmi	0, cr0, [r4, #-0]
    15d0:	0000002c 	andeq	r0, r0, ip, lsr #32
    15d4:	075a0b02 	ldrbeq	r0, [sl, -r2, lsl #22]
    15d8:	4e040000 	cdpmi	0, 0, cr0, cr4, cr0, {0}
    15dc:	0000002c 	andeq	r0, r0, ip, lsr #32
    15e0:	6c500c03 	mrrcvs	12, 0, r0, r0, cr3	; <UNPREDICTABLE>
    15e4:	4f04006c 	svcmi	0x0004006c
    15e8:	00000053 	andeq	r0, r0, r3, asr r0
    15ec:	0b160004 	bleq	581604 <__bss_end+0x57e488>
    15f0:	04000002 	streq	r0, [r0], #-2
    15f4:	0000005e 	andeq	r0, r0, lr, asr r0
    15f8:	1124890c 			; <UNDEFINED> instruction: 0x1124890c
    15fc:	d4170000 	ldrle	r0, [r7], #-0
    1600:	00000000 	andeq	r0, r0, r0
    1604:	00012917 	andeq	r2, r1, r7, lsl r9
    1608:	e1170100 	tst	r7, r0, lsl #2
    160c:	02000000 	andeq	r0, r0, #0
    1610:	00010617 	andeq	r0, r1, r7, lsl r6
    1614:	53170300 	tstpl	r7, #0, 6
    1618:	04000002 	streq	r0, [r0], #-2
    161c:	0001d217 	andeq	sp, r1, r7, lsl r2
    1620:	ba170500 	blt	5c2a28 <__bss_end+0x5bf8ac>
    1624:	06000001 	streq	r0, [r0], -r1
    1628:	0001f517 	andeq	pc, r1, r7, lsl r5	; <UNPREDICTABLE>
    162c:	c8170700 	ldmdagt	r7, {r8, r9, sl}
    1630:	08000000 	stmdaeq	r0, {}	; <UNPREDICTABLE>
    1634:	0000fb17 	andeq	pc, r0, r7, lsl fp	; <UNPREDICTABLE>
    1638:	c7170900 	ldrgt	r0, [r7, -r0, lsl #18]
    163c:	0a000001 	beq	1648 <serial_init_nommu+0xc>
    1640:	00026d17 	andeq	r6, r2, r7, lsl sp
    1644:	05170b00 	ldreq	r0, [r7, #-2816]	; 0xfffff500
    1648:	0c000002 	stceq	0, cr0, [r0], {2}
    164c:	00022117 	andeq	r2, r2, r7, lsl r1
    1650:	1a170d00 	bne	5c4a58 <__bss_end+0x5c18dc>
    1654:	0e000003 	cdpeq	0, 0, cr0, cr0, cr3, {0}
    1658:	00025f17 	andeq	r5, r2, r7, lsl pc
    165c:	ea170f00 	b	5c5264 <__bss_end+0x5c20e8>
    1660:	10000002 	andne	r0, r0, r2
    1664:	00024617 	andeq	r4, r2, r7, lsl r6
    1668:	04171100 	ldreq	r1, [r7], #-256	; 0xffffff00
    166c:	12000003 	andne	r0, r0, #3
    1670:	0000ee17 	andeq	lr, r0, r7, lsl lr
    1674:	cf171300 	svcgt	0x00171300
    1678:	14000002 	strne	r0, [r0], #-2
    167c:	08010200 	stmdaeq	r1, {r9}
    1680:	0000011b 	andeq	r0, r0, fp, lsl r1
    1684:	e3070402 	movw	r0, #29698	; 0x7402
    1688:	15000001 	strne	r0, [r0, #-1]
    168c:	00005e04 	andeq	r5, r0, r4, lsl #28
    1690:	5e041800 	cdppl	8, 0, cr1, cr4, cr0, {0}
    1694:	05000000 	streq	r0, [r0, #-0]
    1698:	00119828 	andseq	r9, r1, r8, lsr #16
    169c:	080a1700 	stmdaeq	sl, {r8, r9, sl, ip}
    16a0:	17010000 	strne	r0, [r1, -r0]
    16a4:	00001060 	andeq	r1, r0, r0, rrx
    16a8:	05af1702 	streq	r1, [pc, #1794]!	; 1db2 <printk+0x136>
    16ac:	17040000 	strne	r0, [r4, -r0]
    16b0:	000006f7 	strdeq	r0, [r0], -r7
    16b4:	08391708 	ldmdaeq	r9!, {r3, r8, r9, sl, ip}
    16b8:	17100000 	ldrne	r0, [r0, -r0]
    16bc:	00000f34 	andeq	r0, r0, r4, lsr pc
    16c0:	06db1720 	ldrbeq	r1, [fp], r0, lsr #14
    16c4:	17400000 	strbne	r0, [r0, -r0]
    16c8:	0000107e 	andeq	r1, r0, lr, ror r0
    16cc:	101c1980 	andsne	r1, ip, r0, lsl #19
    16d0:	01000000 	mrseq	r0, (UNDEF: 0)
    16d4:	000dcc19 	andeq	ip, sp, r9, lsl ip
    16d8:	19020000 	stmdbne	r2, {}	; <UNPREDICTABLE>
    16dc:	00000947 	andeq	r0, r0, r7, asr #18
    16e0:	57190400 	ldrpl	r0, [r9, -r0, lsl #8]
    16e4:	0000000e 	andeq	r0, r0, lr
    16e8:	070d1908 	streq	r1, [sp, -r8, lsl #18]
    16ec:	10000000 	andne	r0, r0, r0
    16f0:	058a0900 	streq	r0, [sl, #2304]	; 0x900
    16f4:	05240000 	streq	r0, [r4, #-0]!
    16f8:	0012104c 	andseq	r1, r2, ip, asr #32
    16fc:	10170b00 	andsne	r0, r7, r0, lsl #22
    1700:	4e050000 	cdpmi	0, 0, cr0, cr5, cr0, {0}
    1704:	00000053 	andeq	r0, r0, r3, asr r0
    1708:	72630c00 	rsbvc	r0, r3, #0, 24
    170c:	53500500 	cmppl	r0, #0, 10
    1710:	04000000 	streq	r0, [r0], #-0
    1714:	000da90b 	andeq	sl, sp, fp, lsl #18
    1718:	53510500 	cmppl	r1, #0, 10
    171c:	08000000 	stmdaeq	r0, {}	; <UNPREDICTABLE>
    1720:	000e020b 	andeq	r0, lr, fp, lsl #4
    1724:	53530500 	cmppl	r3, #0, 10
    1728:	0c000000 	stceq	0, cr0, [r0], {-0}
    172c:	000f100b 	andeq	r1, pc, fp
    1730:	53540500 	cmppl	r4, #0, 10
    1734:	10000000 	andne	r0, r0, r0
    1738:	000a7c0b 	andeq	r7, sl, fp, lsl #24
    173c:	53550500 	cmppl	r5, #0, 10
    1740:	14000000 	strne	r0, [r0], #-0
    1744:	0008f00b 	andeq	pc, r8, fp
    1748:	53580500 	cmppl	r8, #0, 10
    174c:	18000000 	stmdane	r0, {}	; <UNPREDICTABLE>
    1750:	000ded0b 	andeq	lr, sp, fp, lsl #26
    1754:	535b0500 	cmppl	fp, #0, 10
    1758:	1c000000 	stcne	0, cr0, [r0], {-0}
    175c:	000e7c0b 	andeq	r7, lr, fp, lsl #24
    1760:	535c0500 	cmppl	ip, #0, 10
    1764:	20000000 	andcs	r0, r0, r0
    1768:	109a0900 	addsne	r0, sl, r0, lsl #18
    176c:	05d00000 	ldrbeq	r0, [r0]
    1770:	0012b962 	andseq	fp, r2, r2, ror #18
    1774:	0b1b0b00 	bleq	6c437c <__bss_end+0x6c1200>
    1778:	63050000 	movwvs	r0, #20480	; 0x5000
    177c:	000012b9 			; <UNDEFINED> instruction: 0x000012b9
    1780:	096f0b00 	stmdbeq	pc!, {r8, r9, fp}^	; <UNPREDICTABLE>
    1784:	64050000 	strvs	r0, [r5], #-0
    1788:	00000e9e 	muleq	r0, lr, lr
    178c:	05e40b04 	strbeq	r0, [r4, #2820]!	; 0xb04
    1790:	65050000 	strvs	r0, [r5, #-0]
    1794:	00000053 	andeq	r0, r0, r3, asr r0
    1798:	0c0f0b08 	stceq	11, cr0, [pc], {8}
    179c:	66050000 	strvs	r0, [r5], -r0
    17a0:	00000053 	andeq	r0, r0, r3, asr r0
    17a4:	0ec30b0c 	vdiveq.f64	d16, d3, d12
    17a8:	67050000 	strvs	r0, [r5, -r0]
    17ac:	00000053 	andeq	r0, r0, r3, asr r0
    17b0:	04790b10 	ldrbteq	r0, [r9], #-2832	; 0xfffff4f0
    17b4:	68050000 	stmdavs	r5, {}	; <UNPREDICTABLE>
    17b8:	00000053 	andeq	r0, r0, r3, asr r0
    17bc:	07a90b14 			; <UNDEFINED> instruction: 0x07a90b14
    17c0:	69050000 	stmdbvs	r5, {}	; <UNPREDICTABLE>
    17c4:	00000053 	andeq	r0, r0, r3, asr r0
    17c8:	04da0b18 	ldrbeq	r0, [sl], #2840	; 0xb18
    17cc:	6a050000 	bvs	1417d4 <__bss_end+0x13e658>
    17d0:	000012c1 	andeq	r1, r0, r1, asr #5
    17d4:	07e10b1c 			; <UNDEFINED> instruction: 0x07e10b1c
    17d8:	6b050000 	blvs	1417e0 <__bss_end+0x13e664>
    17dc:	00000fae 	andeq	r0, r0, lr, lsr #31
    17e0:	0a490b54 	beq	1244538 <__bss_end+0x12413bc>
    17e4:	6c050000 	stcvs	0, cr0, [r5], {-0}
    17e8:	00000fd3 	ldrdeq	r0, [r0], -r3
    17ec:	1ef30b5c 	vmovne.u8	r0, d3[6]
    17f0:	6d050000 	stcvs	0, cr0, [r5, #-0]
    17f4:	0000104c 	andeq	r1, r0, ip, asr #32
    17f8:	05840b80 	streq	r0, [r4, #2944]	; 0xb80
    17fc:	6e050000 	cdpvs	0, 0, cr0, cr5, cr0, {0}
    1800:	00001198 	muleq	r0, r8, r1
    1804:	07f30b88 	ldrbeq	r0, [r3, r8, lsl #23]!
    1808:	6f050000 	svcvs	0x00050000
    180c:	00001198 	muleq	r0, r8, r1
    1810:	041500ac 	ldreq	r0, [r5], #-172	; 0xffffff54
    1814:	000012bf 			; <UNDEFINED> instruction: 0x000012bf
    1818:	5312041a 	tstpl	r2, #436207616	; 0x1a000000
    181c:	d1000000 	mrsle	r0, (UNDEF: 0)
    1820:	13000012 	movwne	r0, #18
    1824:	00000edb 	ldrdeq	r0, [r0], -fp
    1828:	0415000d 	ldreq	r0, [r5], #-13
    182c:	000012d7 	ldrdeq	r1, [r0], -r7
    1830:	00004c1b 	andeq	r4, r0, fp, lsl ip
    1834:	0a971c00 	beq	fe5c883c <__bss_end+0xfe5c56c0>
    1838:	3e010000 	cdpcc	0, 0, cr0, cr1, cr0, {0}
    183c:	0000004c 	andeq	r0, r0, ip, asr #32
    1840:	00000134 	andeq	r0, r0, r4, lsr r1
    1844:	0000014c 	andeq	r0, r0, ip, asr #2
    1848:	14a39c01 	strtne	r9, [r3], #3073	; 0xc01
    184c:	401d0000 	andsmi	r0, sp, r0
    1850:	cd000001 	stcgt	0, cr0, [r0, #-4]
    1854:	09000016 	stmdbeq	r0, {r1, r2, r4}
    1858:	1e000013 	mcrne	0, 0, r0, cr0, cr3, {0}
    185c:	08025001 	stmdaeq	r2, {r0, ip, lr}
    1860:	481f0047 	ldmdami	pc, {r0, r1, r2, r6}	; <UNPREDICTABLE>
    1864:	d8000001 	stmdale	r0, {r0}
    1868:	1d000016 	stcne	0, cr0, [r0, #-88]	; 0xffffffa8
    186c:	00000154 	andeq	r0, r0, r4, asr r1
    1870:	000016cd 	andeq	r1, r0, sp, asr #13
    1874:	00001326 	andeq	r1, r0, r6, lsr #6
    1878:	0250011e 	subseq	r0, r0, #-2147483641	; 0x80000007
    187c:	1d004808 	stcne	8, cr4, [r0, #-32]	; 0xffffffe0
    1880:	0000015c 	andeq	r0, r0, ip, asr r1
    1884:	000016e3 	andeq	r1, r0, r3, ror #13
    1888:	0000133b 	andeq	r1, r0, fp, lsr r3
    188c:	0350011e 	cmpeq	r0, #-2147483641	; 0x80000007
    1890:	0000d474 	andeq	sp, r0, r4, ror r4
    1894:	0001641d 	andeq	r6, r1, sp, lsl r4
    1898:	0016ee00 	andseq	lr, r6, r0, lsl #28
    189c:	00135000 	andseq	r5, r3, r0
    18a0:	50011e00 	andpl	r1, r1, r0, lsl #28
    18a4:	01807403 	orreq	r7, r0, r3, lsl #8
    18a8:	01681f00 	cmneq	r8, r0, lsl #30
    18ac:	16f90000 	ldrbtne	r0, [r9], r0
    18b0:	701f0000 	andsvc	r0, pc, r0
    18b4:	04000001 	streq	r0, [r0], #-1
    18b8:	1d000017 	stcne	0, cr0, [r0, #-92]	; 0xffffffa4
    18bc:	00000188 	andeq	r0, r0, r8, lsl #3
    18c0:	000016cd 	andeq	r1, r0, sp, asr #13
    18c4:	00001376 	andeq	r1, r0, r6, ror r3
    18c8:	0250011e 	subseq	r0, r0, #-2147483641	; 0x80000007
    18cc:	1d004908 	stcne	9, cr4, [r0, #-32]	; 0xffffffe0
    18d0:	00000190 	muleq	r0, r0, r1
    18d4:	0000170f 	andeq	r1, r0, pc, lsl #14
    18d8:	0000138d 	andeq	r1, r0, sp, lsl #7
    18dc:	0550011e 	ldrbeq	r0, [r0, #-286]	; 0xfffffee2
    18e0:	00301803 	eorseq	r1, r0, r3, lsl #16
    18e4:	981d0000 	ldmdals	sp, {}	; <UNPREDICTABLE>
    18e8:	1a000001 	bne	18f4 <serial_puts+0xc>
    18ec:	a1000017 	tstge	r0, r7, lsl r0
    18f0:	1e000013 	mcrne	0, 0, r0, cr0, cr3, {0}
    18f4:	08025001 	stmdaeq	r2, {r0, ip, lr}
    18f8:	a01d004a 	andsge	r0, sp, sl, asr #32
    18fc:	1a000001 	bne	1908 <serial_puts+0x20>
    1900:	b5000017 	strlt	r0, [r0, #-23]	; 0xffffffe9
    1904:	1e000013 	mcrne	0, 0, r0, cr0, cr3, {0}
    1908:	08025001 	stmdaeq	r2, {r0, ip, lr}
    190c:	a81f004b 	ldmdage	pc, {r0, r1, r3, r6}	; <UNPREDICTABLE>
    1910:	25000001 	strcs	r0, [r0, #-1]
    1914:	1d000017 	stcne	0, cr0, [r0, #-92]	; 0xffffffa4
    1918:	000001b0 			; <UNDEFINED> instruction: 0x000001b0
    191c:	00001730 	andeq	r1, r0, r0, lsr r7
    1920:	000013d1 	ldrdeq	r1, [r0], -r1	; <UNPREDICTABLE>
    1924:	0150011e 	cmpeq	r0, lr, lsl r1
    1928:	c41d0031 	ldrgt	r0, [sp], #-49	; 0xffffffcf
    192c:	1a000001 	bne	1938 <serial_puts+0x50>
    1930:	e5000017 	str	r0, [r0, #-23]	; 0xffffffe9
    1934:	1e000013 	mcrne	0, 0, r0, cr0, cr3, {0}
    1938:	08025001 	stmdaeq	r2, {r0, ip, lr}
    193c:	d01d004e 	andsle	r0, sp, lr, asr #32
    1940:	3b000001 	blcc	194c <serial_puts+0x64>
    1944:	fc000017 	stc2	0, cr0, [r0], {23}
    1948:	1e000013 	mcrne	0, 0, r0, cr0, cr3, {0}
    194c:	03055101 	movweq	r5, #20737	; 0x5101
    1950:	00002fac 	andeq	r2, r0, ip, lsr #31
    1954:	01e41d00 	mvneq	r1, r0, lsl #26
    1958:	17460000 	strbne	r0, [r6, -r0]
    195c:	14130000 	ldrne	r0, [r3], #-0
    1960:	011e0000 	tsteq	lr, r0
    1964:	28030550 	stmdacs	r3, {r4, r6, r8, sl}
    1968:	0000002c 	andeq	r0, r0, ip, lsr #32
    196c:	0001f41d 	andeq	pc, r1, sp, lsl r4	; <UNPREDICTABLE>
    1970:	00175100 	andseq	r5, r7, r0, lsl #2
    1974:	00142a00 	andseq	r2, r4, r0, lsl #20
    1978:	50011e00 	andpl	r1, r1, r0, lsl #28
    197c:	2c4c0305 	mcrrcs	3, 0, r0, ip, cr5
    1980:	1f000000 	svcne	0x00000000
    1984:	000001f8 	strdeq	r0, [r0], -r8
    1988:	0000175c 	andeq	r1, r0, ip, asr r7
    198c:	0002081d 	andeq	r0, r2, sp, lsl r8
    1990:	00176700 	andseq	r6, r7, r0, lsl #14
    1994:	00144a00 	andseq	r4, r4, r0, lsl #20
    1998:	50011e00 	andpl	r1, r1, r0, lsl #28
    199c:	2c7c0305 	ldclcs	3, cr0, [ip], #-20	; 0xffffffec
    19a0:	1d000000 	stcne	0, cr0, [r0, #-0]
    19a4:	00000218 	andeq	r0, r0, r8, lsl r2
    19a8:	00001767 	andeq	r1, r0, r7, ror #14
    19ac:	00001461 	andeq	r1, r0, r1, ror #8
    19b0:	0550011e 	ldrbeq	r0, [r0, #-286]	; 0xfffffee2
    19b4:	002c9803 	eoreq	r9, ip, r3, lsl #16
    19b8:	281d0000 	ldmdacs	sp, {}	; <UNPREDICTABLE>
    19bc:	67000002 	strvs	r0, [r0, -r2]
    19c0:	78000017 	stmdavc	r0, {r0, r1, r2, r4}
    19c4:	1e000014 	mcrne	0, 0, r0, cr0, cr4, {0}
    19c8:	03055001 	movweq	r5, #20481	; 0x5001
    19cc:	00002cbc 			; <UNDEFINED> instruction: 0x00002cbc
    19d0:	02541d00 	subseq	r1, r4, #0, 26
    19d4:	17670000 	strbne	r0, [r7, -r0]!
    19d8:	148f0000 	strne	r0, [pc], #0	; 19e0 <serial_gets+0x50>
    19dc:	011e0000 	tsteq	lr, r0
    19e0:	ec030550 	cfstr32	mvfx0, [r3], {80}	; 0x50
    19e4:	0000002c 	andeq	r0, r0, ip, lsr #32
    19e8:	00027420 	andeq	r7, r2, r0, lsr #8
    19ec:	00176700 	andseq	r6, r7, r0, lsl #14
    19f0:	50011e00 	andpl	r1, r1, r0, lsl #28
    19f4:	2d040305 	stccs	3, cr0, [r4, #-20]	; 0xffffffec
    19f8:	00000000 	andeq	r0, r0, r0
    19fc:	000cf421 	andeq	pc, ip, r1, lsr #8
    1a00:	80880100 	addhi	r0, r8, r0, lsl #2
    1a04:	6c000002 	stcvs	0, cr0, [r0], {2}
    1a08:	01000001 	tsteq	r0, r1
    1a0c:	0016519c 	mulseq	r6, ip, r1
    1a10:	0e292200 	cdpeq	2, 2, cr2, cr9, cr0, {0}
    1a14:	8a010000 	bhi	41a1c <__bss_end+0x3e8a0>
    1a18:	00000fa8 	andeq	r0, r0, r8, lsr #31
    1a1c:	000000d5 	ldrdeq	r0, [r0], -r5
    1a20:	000b9722 	andeq	r9, fp, r2, lsr #14
    1a24:	5e8b0100 	rmfple	f0, f3, f0
    1a28:	fe000000 	cdp2	0, 0, cr0, cr0, cr0, {0}
    1a2c:	23000000 	movwcs	r0, #0
    1a30:	0000046e 	andeq	r0, r0, lr, ror #8
    1a34:	005e8c01 	subseq	r8, lr, r1, lsl #24
    1a38:	23000000 	movwcs	r0, #0
    1a3c:	00000bbc 			; <UNDEFINED> instruction: 0x00000bbc
    1a40:	005e8d01 	subseq	r8, lr, r1, lsl #26
    1a44:	23000000 	movwcs	r0, #0
    1a48:	00000636 	andeq	r0, r0, r6, lsr r6
    1a4c:	005e8e01 	subseq	r8, lr, r1, lsl #28
    1a50:	23000000 	movwcs	r0, #0
    1a54:	00000dae 	andeq	r0, r0, lr, lsr #27
    1a58:	005e8f01 	subseq	r8, lr, r1, lsl #30
    1a5c:	23000000 	movwcs	r0, #0
    1a60:	00000dbb 			; <UNDEFINED> instruction: 0x00000dbb
    1a64:	005e9001 	subseq	r9, lr, r1
    1a68:	23000000 	movwcs	r0, #0
    1a6c:	00000577 	andeq	r0, r0, r7, ror r5
    1a70:	005e9101 	subseq	r9, lr, r1, lsl #2
    1a74:	1d000000 	stcne	0, cr0, [r0, #-0]
    1a78:	000002bc 			; <UNDEFINED> instruction: 0x000002bc
    1a7c:	00001730 	andeq	r1, r0, r0, lsr r7
    1a80:	00001531 	andeq	r1, r0, r1, lsr r5
    1a84:	0150011e 	cmpeq	r0, lr, lsl r1
    1a88:	cc1f0030 	ldcgt	0, cr0, [pc], {48}	; 0x30
    1a8c:	72000002 	andvc	r0, r0, #2
    1a90:	1d000017 	stcne	0, cr0, [r0, #-92]	; 0xffffffa4
    1a94:	000002d4 	ldrdeq	r0, [r0], -r4
    1a98:	000016cd 	andeq	r1, r0, sp, asr #13
    1a9c:	0000154e 	andeq	r1, r0, lr, asr #10
    1aa0:	0250011e 	subseq	r0, r0, #-2147483641	; 0x80000007
    1aa4:	1d002008 	stcne	0, cr2, [r0, #-32]	; 0xffffffe0
    1aa8:	000002f0 	strdeq	r0, [r0], -r0	; <UNPREDICTABLE>
    1aac:	0000177d 	andeq	r1, r0, sp, ror r7
    1ab0:	00001568 	andeq	r1, r0, r8, ror #10
    1ab4:	0250011e 	subseq	r0, r0, #-2147483641	; 0x80000007
    1ab8:	011e0075 	tsteq	lr, r5, ror r0
    1abc:	d0080252 	andle	r0, r8, r2, asr r2
    1ac0:	02f81d00 	rscseq	r1, r8, #0, 26
    1ac4:	16cd0000 	strbne	r0, [sp], r0
    1ac8:	157c0000 	ldrbne	r0, [ip, #-0]!
    1acc:	011e0000 	tsteq	lr, r0
    1ad0:	21080250 	tstcs	r8, r0, asr r2
    1ad4:	030c1d00 	movweq	r1, #52480	; 0xcd00
    1ad8:	17880000 	strne	r0, [r8, r0]
    1adc:	15930000 	ldrne	r0, [r3]
    1ae0:	011e0000 	tsteq	lr, r0
    1ae4:	ec030550 	cfstr32	mvfx0, [r3], {80}	; 0x50
    1ae8:	0000002f 	andeq	r0, r0, pc, lsr #32
    1aec:	0003141d 	andeq	r1, r3, sp, lsl r4
    1af0:	0016cd00 	andseq	ip, r6, r0, lsl #26
    1af4:	0015a700 	andseq	sl, r5, r0, lsl #14
    1af8:	50011e00 	andpl	r1, r1, r0, lsl #28
    1afc:	00230802 	eoreq	r0, r3, r2, lsl #16
    1b00:	0003281d 	andeq	r2, r3, sp, lsl r8
    1b04:	0016cd00 	andseq	ip, r6, r0, lsl #26
    1b08:	0015bb00 	andseq	fp, r5, r0, lsl #22
    1b0c:	50011e00 	andpl	r1, r1, r0, lsl #28
    1b10:	00240802 	eoreq	r0, r4, r2, lsl #16
    1b14:	0003341d 	andeq	r3, r3, sp, lsl r4
    1b18:	00179300 	andseq	r9, r7, r0, lsl #6
    1b1c:	0015d300 	andseq	sp, r5, r0, lsl #6
    1b20:	50011e00 	andpl	r1, r1, r0, lsl #28
    1b24:	011e3101 	tsteq	lr, r1, lsl #2
    1b28:	00300151 	eorseq	r0, r0, r1, asr r1
    1b2c:	0003381f 	andeq	r3, r3, pc, lsl r8
    1b30:	0016f900 	andseq	pc, r6, r0, lsl #18
    1b34:	03401d00 	movteq	r1, #3328	; 0xd00
    1b38:	17040000 	strne	r0, [r4, -r0]
    1b3c:	15ef0000 	strbne	r0, [pc, #0]!	; 1b44 <print_align+0x54>
    1b40:	011e0000 	tsteq	lr, r0
    1b44:	003a0150 	eorseq	r0, sl, r0, asr r1
    1b48:	0003541d 	andeq	r5, r3, sp, lsl r4
    1b4c:	0016cd00 	andseq	ip, r6, r0, lsl #26
    1b50:	00160300 	andseq	r0, r6, r0, lsl #6
    1b54:	50011e00 	andpl	r1, r1, r0, lsl #28
    1b58:	00260802 	eoreq	r0, r6, r2, lsl #16
    1b5c:	00036c1d 	andeq	r6, r3, sp, lsl ip
    1b60:	0016cd00 	andseq	ip, r6, r0, lsl #26
    1b64:	00161700 	andseq	r1, r6, r0, lsl #14
    1b68:	50011e00 	andpl	r1, r1, r0, lsl #28
    1b6c:	00270802 	eoreq	r0, r7, r2, lsl #16
    1b70:	0003701f 	andeq	r7, r3, pc, lsl r0
    1b74:	0016f900 	andseq	pc, r6, r0, lsl #18
    1b78:	037c2400 	cmneq	ip, #0, 8
    1b7c:	179e0000 	ldrne	r0, [lr, r0]
    1b80:	16340000 	ldrtne	r0, [r4], -r0
    1b84:	011e0000 	tsteq	lr, r0
    1b88:	64080250 	strvs	r0, [r8], #-592	; 0xfffffdb0
    1b8c:	03b01f00 	movseq	r1, #0, 30
    1b90:	17a90000 	strne	r0, [r9, r0]!
    1b94:	bc200000 	stclt	0, cr0, [r0], #-0
    1b98:	46000003 	strmi	r0, [r0], -r3
    1b9c:	1e000017 	mcrne	0, 0, r0, cr0, cr7, {0}
    1ba0:	03055001 	movweq	r5, #20481	; 0x5001
    1ba4:	00002d1c 	andeq	r2, r0, ip, lsl sp
    1ba8:	02250000 	eoreq	r0, r5, #0
    1bac:	0100000a 	tsteq	r0, sl
    1bb0:	00004c1a 	andeq	r4, r0, sl, lsl ip
    1bb4:	0a762500 	beq	1d8afbc <__bss_end+0x1d87e40>
    1bb8:	1a010000 	bne	41bc0 <__bss_end+0x3ea44>
    1bbc:	0000004c 	andeq	r0, r0, ip, asr #32
    1bc0:	0010c225 	andseq	ip, r0, r5, lsr #4
    1bc4:	5e1b0100 	mufple	f0, f3, f0
    1bc8:	26000000 	strcs	r0, [r0], -r0
    1bcc:	00000e81 	andeq	r0, r0, r1, lsl #29
    1bd0:	11321c01 	teqne	r2, r1, lsl #24
    1bd4:	03050000 	movweq	r0, #20480	; 0x5000
    1bd8:	00002da8 	andeq	r2, r0, r8, lsr #27
    1bdc:	00050c23 	andeq	r0, r5, r3, lsr #24
    1be0:	5e1d0100 	mufple	f0, f5, f0
    1be4:	00000000 	andeq	r0, r0, r0
    1be8:	000e8827 	andeq	r8, lr, r7, lsr #16
    1bec:	10110100 	andsne	r0, r1, r0, lsl #2
    1bf0:	05000012 	streq	r0, [r0, #-18]	; 0xffffffee
    1bf4:	002f9003 	eoreq	r9, pc, r3
    1bf8:	08e42800 	stmiaeq	r4!, {fp, sp}^
    1bfc:	13010000 	movwne	r0, #4096	; 0x1000
    1c00:	000016ab 	andeq	r1, r0, fp, lsr #13
    1c04:	11240415 			; <UNDEFINED> instruction: 0x11240415
    1c08:	8d280000 	stchi	0, cr0, [r8, #-0]
    1c0c:	01000006 	tsteq	r0, r6
    1c10:	0016ab14 	andseq	sl, r6, r4, lsl fp
    1c14:	0bc72700 	bleq	ff1cb81c <__bss_end+0xff1c86a0>
    1c18:	19010000 	stmdbne	r1, {}	; <UNPREDICTABLE>
    1c1c:	000012d1 	ldrdeq	r1, [r0], -r1	; <UNPREDICTABLE>
    1c20:	30600305 	rsbcc	r0, r0, r5, lsl #6
    1c24:	fc290000 	stc2	0, cr0, [r9], #-0
    1c28:	fc00000c 	stc2	0, cr0, [r0], {12}
    1c2c:	0600000c 	streq	r0, [r0], -ip
    1c30:	0f172954 	svceq	0x00172954
    1c34:	0f170000 	svceq	0x00170000
    1c38:	89070000 	stmdbhi	r7, {}	; <UNPREDICTABLE>
    1c3c:	000a8829 	andeq	r8, sl, r9, lsr #16
    1c40:	000a8800 	andeq	r8, sl, r0, lsl #16
    1c44:	29830400 	stmibcs	r3, {sl}
    1c48:	000008ad 	andeq	r0, r0, sp, lsr #17
    1c4c:	000008ad 	andeq	r0, r0, sp, lsr #17
    1c50:	1c298504 	cfstr32ne	mvfx8, [r9], #-16
    1c54:	1c00000d 	stcne	0, cr0, [r0], {13}
    1c58:	0800000d 	stmdaeq	r0, {r0, r2, r3}
    1c5c:	07b1291a 			; <UNDEFINED> instruction: 0x07b1291a
    1c60:	07b10000 	ldreq	r0, [r1, r0]!
    1c64:	1c080000 	stcne	0, cr0, [r8], {-0}
    1c68:	0004c229 	andeq	ip, r4, r9, lsr #4
    1c6c:	0004c200 	andeq	ip, r4, r0, lsl #4
    1c70:	29960500 	ldmibcs	r6, {r8, sl}
    1c74:	00000503 	andeq	r0, r0, r3, lsl #10
    1c78:	00000503 	andeq	r0, r0, r3, lsl #10
    1c7c:	85295306 	strhi	r5, [r9, #-774]!	; 0xfffffcfa
    1c80:	85000009 	strhi	r0, [r0, #-9]
    1c84:	05000009 	streq	r0, [r0, #-9]
    1c88:	05462989 	strbeq	r2, [r6, #-2441]	; 0xfffff677
    1c8c:	05460000 	strbeq	r0, [r6, #-0]
    1c90:	81040000 	mrshi	r0, (UNDEF: 4)
    1c94:	0004f429 	andeq	pc, r4, r9, lsr #8
    1c98:	0004f400 	andeq	pc, r4, r0, lsl #8
    1c9c:	298f0500 	stmibcs	pc, {r8, sl}	; <UNPREDICTABLE>
    1ca0:	000007ba 			; <UNDEFINED> instruction: 0x000007ba
    1ca4:	000007ba 			; <UNDEFINED> instruction: 0x000007ba
    1ca8:	90293909 	eorls	r3, r9, r9, lsl #18
    1cac:	9000000d 	andls	r0, r0, sp
    1cb0:	0900000d 	stmdbeq	r0, {r0, r2, r3}
    1cb4:	052b2936 	streq	r2, [fp, #-2358]!	; 0xfffff6ca
    1cb8:	052b0000 	streq	r0, [fp, #-0]!
    1cbc:	8f070000 	svchi	0x00070000
    1cc0:	000aff29 	andeq	pc, sl, r9, lsr #30
    1cc4:	000aff00 	andeq	pc, sl, r0, lsl #30
    1cc8:	29180a00 	ldmdbcs	r8, {r9, fp}
    1ccc:	000008ce 	andeq	r0, r0, lr, asr #17
    1cd0:	000008ce 	andeq	r0, r0, lr, asr #17
    1cd4:	64294e06 	strtvs	r4, [r9], #-3590	; 0xfffff1fa
    1cd8:	64000003 	strvs	r0, [r0], #-3
    1cdc:	0b000003 	bleq	1cf0 <printk+0x74>
    1ce0:	0618293b 			; <UNDEFINED> instruction: 0x0618293b
    1ce4:	06180000 	ldreq	r0, [r8], -r0
    1ce8:	89040000 	stmdbhi	r4, {}	; <UNPREDICTABLE>
    1cec:	00099329 	andeq	r9, r9, r9, lsr #6
    1cf0:	00099300 	andeq	r9, r9, r0, lsl #6
    1cf4:	29170800 	ldmdbcs	r7, {fp}
    1cf8:	00000f60 	andeq	r0, r0, r0, ror #30
    1cfc:	00000f60 	andeq	r0, r0, r0, ror #30
    1d00:	bb291b08 	bllt	a48928 <__bss_end+0xa457ac>
    1d04:	bb000009 	bllt	1d30 <printk+0xb4>
    1d08:	09000009 	stmdbeq	r0, {r0, r3}
    1d0c:	02f40038 	rscseq	r0, r4, #56	; 0x38
    1d10:	00040000 	andeq	r0, r4, r0
    1d14:	00000412 	andeq	r0, r0, r2, lsl r4
    1d18:	00000104 	andeq	r0, r0, r4, lsl #2
    1d1c:	330c0000 	movwcc	r0, #49152	; 0xc000
    1d20:	54000011 	strpl	r0, [r0], #-17	; 0xffffffef
    1d24:	ec000001 	stc	0, cr0, [r0], {1}
    1d28:	78000003 	stmdavc	r0, {r0, r1}
    1d2c:	ba000001 	blt	1d38 <printk+0xbc>
    1d30:	02000004 	andeq	r0, r0, #4
    1d34:	01140601 	tsteq	r4, r1, lsl #12
    1d38:	01020000 	mrseq	r0, (UNDEF: 2)
    1d3c:	00011208 	andeq	r1, r1, r8, lsl #4
    1d40:	05020200 	streq	r0, [r2, #-512]	; 0xfffffe00
    1d44:	00000278 	andeq	r0, r0, r8, ror r2
    1d48:	36070202 	strcc	r0, [r7], -r2, lsl #4
    1d4c:	03000001 	movweq	r0, #1
    1d50:	6e690504 	cdpvs	5, 6, cr0, cr9, cr4, {0}
    1d54:	82040074 	andhi	r0, r4, #116	; 0x74
    1d58:	0400000a 	streq	r0, [r0], #-10
    1d5c:	00005313 	andeq	r5, r0, r3, lsl r3
    1d60:	07040200 	streq	r0, [r4, -r0, lsl #4]
    1d64:	000001e8 	andeq	r0, r0, r8, ror #3
    1d68:	38050802 	stmdacc	r5, {r1, fp}
    1d6c:	02000002 	andeq	r0, r0, #2
    1d70:	01de0708 	bicseq	r0, lr, r8, lsl #14
    1d74:	48050000 	stmdami	r5, {}	; <UNPREDICTABLE>
    1d78:	02000000 	andeq	r0, r0, #0
    1d7c:	022f0704 	eoreq	r0, pc, #4, 14	; 0x100000
    1d80:	0b060000 	bleq	181d88 <__bss_end+0x17ec0c>
    1d84:	04000002 	streq	r0, [r0], #-2
    1d88:	00000053 	andeq	r0, r0, r3, asr r0
    1d8c:	01038905 	tsteq	r3, r5, lsl #18
    1d90:	d4070000 	strle	r0, [r7], #-0
    1d94:	00000000 	andeq	r0, r0, r0
    1d98:	00012907 	andeq	r2, r1, r7, lsl #18
    1d9c:	e1070100 	mrs	r0, (UNDEF: 23)
    1da0:	02000000 	andeq	r0, r0, #0
    1da4:	00010607 	andeq	r0, r1, r7, lsl #12
    1da8:	53070300 	movwpl	r0, #29440	; 0x7300
    1dac:	04000002 	streq	r0, [r0], #-2
    1db0:	0001d207 	andeq	sp, r1, r7, lsl #4
    1db4:	ba070500 	blt	1c31bc <__bss_end+0x1c0040>
    1db8:	06000001 	streq	r0, [r0], -r1
    1dbc:	0001f507 	andeq	pc, r1, r7, lsl #10
    1dc0:	c8070700 	stmdagt	r7, {r8, r9, sl}
    1dc4:	08000000 	stmdaeq	r0, {}	; <UNPREDICTABLE>
    1dc8:	0000fb07 	andeq	pc, r0, r7, lsl #22
    1dcc:	c7070900 	strgt	r0, [r7, -r0, lsl #18]
    1dd0:	0a000001 	beq	1ddc <printk+0x160>
    1dd4:	00026d07 	andeq	r6, r2, r7, lsl #26
    1dd8:	05070b00 	streq	r0, [r7, #-2816]	; 0xfffff500
    1ddc:	0c000002 	stceq	0, cr0, [r0], {2}
    1de0:	00022107 	andeq	r2, r2, r7, lsl #2
    1de4:	1a070d00 	bne	1c51ec <__bss_end+0x1c2070>
    1de8:	0e000003 	cdpeq	0, 0, cr0, cr0, cr3, {0}
    1dec:	00025f07 	andeq	r5, r2, r7, lsl #30
    1df0:	ea070f00 	b	1c59f8 <__bss_end+0x1c287c>
    1df4:	10000002 	andne	r0, r0, r2
    1df8:	00024607 	andeq	r4, r2, r7, lsl #12
    1dfc:	04071100 	streq	r1, [r7], #-256	; 0xffffff00
    1e00:	12000003 	andne	r0, r0, #3
    1e04:	0000ee07 	andeq	lr, r0, r7, lsl #28
    1e08:	cf071300 	svcgt	0x00071300
    1e0c:	14000002 	strne	r0, [r0], #-2
    1e10:	08010200 	stmdaeq	r1, {r9}
    1e14:	0000011b 	andeq	r0, r0, fp, lsl r1
    1e18:	e3070402 	movw	r0, #29698	; 0x7402
    1e1c:	08000001 	stmdaeq	r0, {r0}
    1e20:	000010e6 	andeq	r1, r0, r6, ror #1
    1e24:	03ec1601 	mvneq	r1, #1048576	; 0x100000
    1e28:	00200000 	eoreq	r0, r0, r0
    1e2c:	9c010000 	stcls	0, cr0, [r1], {-0}
    1e30:	00000135 	andeq	r0, r0, r5, lsr r1
    1e34:	0010cc09 	andseq	ip, r0, r9, lsl #24
    1e38:	68190100 	ldmdavs	r9, {r8}
    1e3c:	02000000 	andeq	r0, r0, #0
    1e40:	08007c91 	stmdaeq	r0, {r0, r4, r7, sl, fp, ip, sp, lr}
    1e44:	0000116f 	andeq	r1, r0, pc, ror #2
    1e48:	041cc701 	ldreq	ip, [ip], #-1793	; 0xfffff8ff
    1e4c:	00200000 	eoreq	r0, r0, r0
    1e50:	9c010000 	stcls	0, cr0, [r1], {-0}
    1e54:	00000158 	andeq	r0, r0, r8, asr r1
    1e58:	0100690a 	tsteq	r0, sl, lsl #18
    1e5c:	000041c9 	andeq	r4, r0, r9, asr #3
    1e60:	00015700 	andeq	r5, r1, r0, lsl #14
    1e64:	1b0b0000 	blne	2c1e6c <__bss_end+0x2becf0>
    1e68:	01000011 	tsteq	r0, r1, lsl r0
    1e6c:	580c01d3 	stmdapl	ip, {r0, r1, r4, r6, r7, r8}
    1e70:	3c000001 	stccc	0, cr0, [r0], {1}
    1e74:	04000004 	streq	r0, [r0], #-4
    1e78:	01000000 	mrseq	r0, (UNDEF: 0)
    1e7c:	0503089c 	streq	r0, [r3, #-2204]	; 0xfffff764
    1e80:	d8010000 	stmdale	r1, {}	; <UNPREDICTABLE>
    1e84:	00000440 	andeq	r0, r0, r0, asr #8
    1e88:	00000028 	andeq	r0, r0, r8, lsr #32
    1e8c:	01929c01 	orrseq	r9, r2, r1, lsl #24
    1e90:	760d0000 	strvc	r0, [sp], -r0
    1e94:	01006c61 	tsteq	r0, r1, ror #24
    1e98:	000068d8 	ldrdeq	r6, [r0], -r8
    1e9c:	00500100 	subseq	r0, r0, r0, lsl #2
    1ea0:	0011600e 	andseq	r6, r1, lr
    1ea4:	48e00100 	stmiami	r0!, {r8}^
    1ea8:	68000000 	stmdavs	r0, {}	; <UNPREDICTABLE>
    1eac:	10000004 	andne	r0, r0, r4
    1eb0:	01000000 	mrseq	r0, (UNDEF: 0)
    1eb4:	10d6089c 	smullsne	r0, r6, ip, r8
    1eb8:	e5010000 	str	r0, [r1, #-0]
    1ebc:	00000478 	andeq	r0, r0, r8, ror r4
    1ec0:	00000038 	andeq	r0, r0, r8, lsr r0
    1ec4:	01e39c01 	mvneq	r9, r1, lsl #24
    1ec8:	690a0000 	stmdbvs	sl, {}	; <UNPREDICTABLE>
    1ecc:	41e70100 	mvnmi	r0, r0, lsl #2
    1ed0:	9b000000 	blls	1ed8 <printk+0x25c>
    1ed4:	0f000001 	svceq	0x00000001
    1ed8:	000004a4 	andeq	r0, r0, r4, lsr #9
    1edc:	000002e1 	andeq	r0, r0, r1, ror #5
    1ee0:	05500110 	ldrbeq	r0, [r0, #-272]	; 0xfffffef0
    1ee4:	002d3003 	eoreq	r3, sp, r3
    1ee8:	51011000 	mrspl	r1, (UNDEF: 1)
    1eec:	007c7402 	rsbseq	r7, ip, r2, lsl #8
    1ef0:	0cfc0800 	ldcleq	8, cr0, [ip]
    1ef4:	f0010000 			; <UNDEFINED> instruction: 0xf0010000
    1ef8:	000004b0 			; <UNDEFINED> instruction: 0x000004b0
    1efc:	0000001c 	andeq	r0, r0, ip, lsl r0
    1f00:	02069c01 	andeq	r9, r6, #256	; 0x100
    1f04:	760d0000 	strvc	r0, [sp], -r0
    1f08:	01006c61 	tsteq	r0, r1, ror #24
    1f0c:	000068f0 	strdeq	r6, [r0], -r0
    1f10:	00500100 	subseq	r0, r0, r0, lsl #2
    1f14:	00110008 	andseq	r0, r1, r8
    1f18:	ccf60100 	ldfgte	f0, [r6]
    1f1c:	1c000004 	stcne	0, cr0, [r0], {4}
    1f20:	01000000 	mrseq	r0, (UNDEF: 0)
    1f24:	0002299c 	muleq	r2, ip, r9
    1f28:	61760d00 	cmnvs	r6, r0, lsl #26
    1f2c:	f601006c 			; <UNDEFINED> instruction: 0xf601006c
    1f30:	00000068 	andeq	r0, r0, r8, rrx
    1f34:	11005001 	tstne	r0, r1
    1f38:	0000112b 	andeq	r1, r0, fp, lsr #2
    1f3c:	e8010201 	stmda	r1, {r0, r9}
    1f40:	18000004 	stmdane	r0, {r2}
    1f44:	01000000 	mrseq	r0, (UNDEF: 0)
    1f48:	1197129c 			; <UNDEFINED> instruction: 0x1197129c
    1f4c:	0a010000 	beq	41f54 <__bss_end+0x3edd8>
    1f50:	00050001 	andeq	r0, r5, r1
    1f54:	00001800 	andeq	r1, r0, r0, lsl #16
    1f58:	609c0100 	addsvs	r0, ip, r0, lsl #2
    1f5c:	13000002 	movwne	r0, #2
    1f60:	000010f3 	strdeq	r1, [r0], -r3
    1f64:	48010c01 	stmdami	r1, {r0, sl, fp}
    1f68:	01000000 	mrseq	r0, (UNDEF: 0)
    1f6c:	8b120052 	blhi	4820bc <__bss_end+0x47ef40>
    1f70:	01000011 	tsteq	r0, r1, lsl r0
    1f74:	05180116 	ldreq	r0, [r8, #-278]	; 0xfffffeea
    1f78:	00180000 	andseq	r0, r8, r0
    1f7c:	9c010000 	stcls	0, cr0, [r1], {-0}
    1f80:	00000285 	andeq	r0, r0, r5, lsl #5
    1f84:	0010f313 	andseq	pc, r0, r3, lsl r3	; <UNPREDICTABLE>
    1f88:	01180100 	tsteq	r8, r0, lsl #2
    1f8c:	00000048 	andeq	r0, r0, r8, asr #32
    1f90:	12005201 	andne	r5, r0, #268435456	; 0x10000000
    1f94:	000010f8 	strdeq	r1, [r0], -r8
    1f98:	30012501 	andcc	r2, r1, r1, lsl #10
    1f9c:	34000005 	strcc	r0, [r0], #-5
    1fa0:	01000000 	mrseq	r0, (UNDEF: 0)
    1fa4:	0002cb9c 	muleq	r2, ip, fp
    1fa8:	756e1400 	strbvc	r1, [lr, #-1024]!	; 0xfffffc00
    1fac:	2501006d 	strcs	r0, [r1, #-109]	; 0xffffff93
    1fb0:	00004101 	andeq	r4, r0, r1, lsl #2
    1fb4:	0001af00 	andeq	sl, r1, r0, lsl #30
    1fb8:	10f31300 	rscsne	r1, r3, r0, lsl #6
    1fbc:	27010000 	strcs	r0, [r1, -r0]
    1fc0:	00004801 	andeq	r4, r0, r1, lsl #16
    1fc4:	0f540100 	svceq	0x00540100
    1fc8:	00000558 	andeq	r0, r0, r8, asr r5
    1fcc:	000002ec 	andeq	r0, r0, ip, ror #5
    1fd0:	03500110 	cmpeq	r0, #16, 2
    1fd4:	0027100a 	eoreq	r1, r7, sl
    1fd8:	11801500 	orrne	r1, r0, r0, lsl #10
    1fdc:	14010000 	strne	r0, [r1], #-0
    1fe0:	000002dc 	ldrdeq	r0, [r0], -ip
    1fe4:	2dac0305 	stccs	3, cr0, [ip, #20]!
    1fe8:	41050000 	mrsmi	r0, (UNDEF: 5)
    1fec:	16000000 	strne	r0, [r0], -r0
    1ff0:	00000aff 	strdeq	r0, [r0], -pc	; <UNPREDICTABLE>
    1ff4:	00000aff 	strdeq	r0, [r0], -pc	; <UNPREDICTABLE>
    1ff8:	60161802 	andsvs	r1, r6, r2, lsl #16
    1ffc:	6000000f 	andvs	r0, r0, pc
    2000:	0300000f 	movweq	r0, #15
    2004:	051d001b 	ldreq	r0, [sp, #-27]	; 0xffffffe5
    2008:	00040000 	andeq	r0, r4, r0
    200c:	00000575 	andeq	r0, r0, r5, ror r5
    2010:	00000104 	andeq	r0, r0, r4, lsl #2
    2014:	930c0000 	movwls	r0, #49152	; 0xc000
    2018:	54000012 	strpl	r0, [r0], #-18	; 0xffffffee
    201c:	64000001 	strvs	r0, [r0], #-1
    2020:	00000005 	andeq	r0, r0, r5
    2024:	aa000002 	bge	2034 <printk_nommu+0xbc>
    2028:	02000005 	andeq	r0, r0, #5
    202c:	01140601 	tsteq	r4, r1, lsl #12
    2030:	01020000 	mrseq	r0, (UNDEF: 2)
    2034:	00011208 	andeq	r1, r1, r8, lsl #4
    2038:	05020200 	streq	r0, [r2, #-512]	; 0xfffffe00
    203c:	00000278 	andeq	r0, r0, r8, ror r2
    2040:	36070202 	strcc	r0, [r7], -r2, lsl #4
    2044:	03000001 	movweq	r0, #1
    2048:	00001266 	andeq	r1, r0, r6, ror #4
    204c:	004c1202 	subeq	r1, ip, r2, lsl #4
    2050:	04040000 	streq	r0, [r4], #-0
    2054:	746e6905 	strbtvc	r6, [lr], #-2309	; 0xfffff6fb
    2058:	0a820300 	beq	fe082c60 <__bss_end+0xfe07fae4>
    205c:	13020000 	movwne	r0, #8192	; 0x2000
    2060:	0000005e 	andeq	r0, r0, lr, asr r0
    2064:	e8070402 	stmda	r7, {r1, sl}
    2068:	02000001 	andeq	r0, r0, #1
    206c:	02380508 	eorseq	r0, r8, #8, 10	; 0x2000000
    2070:	08020000 	stmdaeq	r2, {}	; <UNPREDICTABLE>
    2074:	0001de07 	andeq	sp, r1, r7, lsl #28
    2078:	13030500 	movwne	r0, #13568	; 0x3500
    207c:	5e040000 	cdppl	0, 0, cr0, cr4, cr0, {0}
    2080:	03000000 	movweq	r0, #0
    2084:	00009c14 	andeq	r9, r0, r4, lsl ip
    2088:	12250600 	eorne	r0, r5, #0, 12
    208c:	06010000 	streq	r0, [r1], -r0
    2090:	00001326 	andeq	r1, r0, r6, lsr #6
    2094:	12c20602 	sbcne	r0, r2, #2097152	; 0x200000
    2098:	06030000 	streq	r0, [r3], -r0
    209c:	00001248 	andeq	r1, r0, r8, asr #4
    20a0:	04020005 	streq	r0, [r2], #-5
    20a4:	00022f07 	andeq	r2, r2, r7, lsl #30
    20a8:	020b0500 	andeq	r0, fp, #0, 10
    20ac:	5e040000 	cdppl	0, 0, cr0, cr4, cr0, {0}
    20b0:	04000000 	streq	r0, [r0], #-0
    20b4:	00013289 	andeq	r3, r1, r9, lsl #5
    20b8:	00d40600 	sbcseq	r0, r4, r0, lsl #12
    20bc:	06000000 	streq	r0, [r0], -r0
    20c0:	00000129 	andeq	r0, r0, r9, lsr #2
    20c4:	00e10601 	rsceq	r0, r1, r1, lsl #12
    20c8:	06020000 	streq	r0, [r2], -r0
    20cc:	00000106 	andeq	r0, r0, r6, lsl #2
    20d0:	02530603 	subseq	r0, r3, #3145728	; 0x300000
    20d4:	06040000 	streq	r0, [r4], -r0
    20d8:	000001d2 	ldrdeq	r0, [r0], -r2
    20dc:	01ba0605 			; <UNDEFINED> instruction: 0x01ba0605
    20e0:	06060000 	streq	r0, [r6], -r0
    20e4:	000001f5 	strdeq	r0, [r0], -r5
    20e8:	00c80607 	sbceq	r0, r8, r7, lsl #12
    20ec:	06080000 	streq	r0, [r8], -r0
    20f0:	000000fb 	strdeq	r0, [r0], -fp
    20f4:	01c70609 	biceq	r0, r7, r9, lsl #12
    20f8:	060a0000 	streq	r0, [sl], -r0
    20fc:	0000026d 	andeq	r0, r0, sp, ror #4
    2100:	0205060b 	andeq	r0, r5, #11534336	; 0xb00000
    2104:	060c0000 	streq	r0, [ip], -r0
    2108:	00000221 	andeq	r0, r0, r1, lsr #4
    210c:	031a060d 	tsteq	sl, #13631488	; 0xd00000
    2110:	060e0000 	streq	r0, [lr], -r0
    2114:	0000025f 	andeq	r0, r0, pc, asr r2
    2118:	02ea060f 	rsceq	r0, sl, #15728640	; 0xf00000
    211c:	06100000 	ldreq	r0, [r0], -r0
    2120:	00000246 	andeq	r0, r0, r6, asr #4
    2124:	03040611 	movweq	r0, #17937	; 0x4611
    2128:	06120000 	ldreq	r0, [r2], -r0
    212c:	000000ee 	andeq	r0, r0, lr, ror #1
    2130:	02cf0613 	sbceq	r0, pc, #19922944	; 0x1300000
    2134:	00140000 	andseq	r0, r4, r0
    2138:	1b080102 	blne	202548 <__bss_end+0x1ff3cc>
    213c:	02000001 	andeq	r0, r0, #1
    2140:	01e30704 	mvneq	r0, r4, lsl #14
    2144:	cf070000 	svcgt	0x00070000
    2148:	01000012 	tsteq	r0, r2, lsl r0
    214c:	0000534c 	andeq	r5, r0, ip, asr #6
    2150:	015c0100 	cmpeq	ip, r0, lsl #2
    2154:	9b080000 	blls	20215c <__bss_end+0x1fefe0>
    2158:	01000015 	tsteq	r0, r5, lsl r0
    215c:	0000534e 	andeq	r5, r0, lr, asr #6
    2160:	93090000 	movwls	r0, #36864	; 0x9000
    2164:	01000009 	tsteq	r0, r9
    2168:	018a0117 	orreq	r0, sl, r7, lsl r1
    216c:	3f0a0000 	svccc	0x000a0000
    2170:	01000012 	tsteq	r0, r2, lsl r0
    2174:	00005317 	andeq	r5, r0, r7, lsl r3
    2178:	11e90a00 	mvnne	r0, r0, lsl #20
    217c:	17010000 	strne	r0, [r1, -r0]
    2180:	00000053 	andeq	r0, r0, r3, asr r0
    2184:	00159b08 	andseq	r9, r5, r8, lsl #22
    2188:	531a0100 	tstpl	sl, #0, 2
    218c:	00000000 	andeq	r0, r0, r0
    2190:	0013120b 	andseq	r1, r3, fp, lsl #4
    2194:	53c00100 	bicpl	r0, r0, #0, 2
    2198:	01000000 	mrseq	r0, (UNDEF: 0)
    219c:	000001b1 			; <UNDEFINED> instruction: 0x000001b1
    21a0:	0002330a 	andeq	r3, r2, sl, lsl #6
    21a4:	73c00100 	bicvc	r0, r0, #0, 2
    21a8:	08000000 	stmdaeq	r0, {}	; <UNPREDICTABLE>
    21ac:	00001239 	andeq	r1, r0, r9, lsr r2
    21b0:	004cc201 	subeq	ip, ip, r1, lsl #4
    21b4:	0c000000 	stceq	0, cr0, [r0], {-0}
    21b8:	0000015c 	andeq	r0, r0, ip, asr r1
    21bc:	00000564 	andeq	r0, r0, r4, ror #10
    21c0:	00000034 	andeq	r0, r0, r4, lsr r0
    21c4:	01dc9c01 	bicseq	r9, ip, r1, lsl #24
    21c8:	680d0000 	stmdavs	sp, {}	; <UNPREDICTABLE>
    21cc:	01000001 	tsteq	r0, r1
    21d0:	01730d50 	cmneq	r3, r0, asr sp
    21d4:	51010000 	mrspl	r0, (UNDEF: 1)
    21d8:	00017e0e 	andeq	r7, r1, lr, lsl #28
    21dc:	0001d000 	andeq	sp, r1, r0
    21e0:	530f0000 	movwpl	r0, #61440	; 0xf000
    21e4:	01000012 	tsteq	r0, r2, lsl r0
    21e8:	00059837 	andeq	r9, r5, r7, lsr r8
    21ec:	00001c00 	andeq	r1, r0, r0, lsl #24
    21f0:	0f9c0100 	svceq	0x009c0100
    21f4:	000011ba 			; <UNDEFINED> instruction: 0x000011ba
    21f8:	05b44101 	ldreq	r4, [r4, #257]!	; 0x101
    21fc:	001c0000 	andseq	r0, ip, r0
    2200:	9c010000 	stcls	0, cr0, [r1], {-0}
    2204:	0001400c 	andeq	r4, r1, ip
    2208:	0005d000 	andeq	sp, r5, r0
    220c:	00000800 	andeq	r0, r0, r0, lsl #16
    2210:	199c0100 	ldmibne	ip, {r8}
    2214:	10000002 	andne	r0, r0, r2
    2218:	00000150 	andeq	r0, r0, r0, asr r1
    221c:	11005001 	tstne	r0, r1
    2220:	000011f8 	strdeq	r1, [r0], -r8
    2224:	05d85401 	ldrbeq	r5, [r8, #1025]	; 0x401
    2228:	00100000 	andseq	r0, r0, r0
    222c:	9c010000 	stcls	0, cr0, [r1], {-0}
    2230:	0000023e 	andeq	r0, r0, lr, lsr r2
    2234:	00159b12 	andseq	r9, r5, r2, lsl fp
    2238:	53560100 	cmppl	r6, #0, 2
    223c:	19000000 	stmdbne	r0, {}	; <UNPREDICTABLE>
    2240:	00000002 	andeq	r0, r0, r2
    2244:	000d1c11 	andeq	r1, sp, r1, lsl ip
    2248:	e85f0100 	ldmda	pc, {r8}^	; <UNPREDICTABLE>
    224c:	30000005 	andcc	r0, r0, r5
    2250:	01000000 	mrseq	r0, (UNDEF: 0)
    2254:	0002c99c 	muleq	r2, ip, r9
    2258:	08ea1200 	stmiaeq	sl!, {r9, ip}^
    225c:	61010000 	mrsvs	r0, (UNDEF: 1)
    2260:	00000053 	andeq	r0, r0, r3, asr r0
    2264:	00000247 	andeq	r0, r0, r7, asr #4
    2268:	646e6513 	strbtvs	r6, [lr], #-1299	; 0xfffffaed
    226c:	53620100 	cmnpl	r2, #0, 2
    2270:	5b000000 	blpl	2278 <standby_delay+0x4>
    2274:	14000002 	strne	r0, [r0], #-2
    2278:	00000140 	andeq	r0, r0, r0, asr #2
    227c:	000005ec 	andeq	r0, r0, ip, ror #11
    2280:	00000004 	andeq	r0, r0, r4
    2284:	02986701 	addseq	r6, r8, #262144	; 0x40000
    2288:	ec150000 	ldc	0, cr0, [r5], {-0}
    228c:	04000005 	streq	r0, [r0], #-5
    2290:	0e000000 	cdpeq	0, 0, cr0, cr0, cr0, {0}
    2294:	00000150 	andeq	r0, r0, r0, asr r1
    2298:	0000026f 	andeq	r0, r0, pc, ror #4
    229c:	40140000 	andsmi	r0, r4, r0
    22a0:	f0000001 			; <UNDEFINED> instruction: 0xf0000001
    22a4:	04000005 	streq	r0, [r0], #-5
    22a8:	01000000 	mrseq	r0, (UNDEF: 0)
    22ac:	0002bf68 	andeq	fp, r2, r8, ror #30
    22b0:	05f01500 	ldrbeq	r1, [r0, #1280]!	; 0x500
    22b4:	00040000 	andeq	r0, r4, r0
    22b8:	500e0000 	andpl	r0, lr, r0
    22bc:	82000001 	andhi	r0, r0, #1
    22c0:	00000002 	andeq	r0, r0, r2
    22c4:	06101600 	ldreq	r1, [r0], -r0, lsl #12
    22c8:	050a0000 	streq	r0, [sl, #-0]
    22cc:	11000000 	mrsne	r0, (UNDEF: 0)
    22d0:	00000f60 	andeq	r0, r0, r0, ror #30
    22d4:	06187101 	ldreq	r7, [r8], -r1, lsl #2
    22d8:	00940000 	addseq	r0, r4, r0
    22dc:	9c010000 	stcls	0, cr0, [r1], {-0}
    22e0:	000003c8 	andeq	r0, r0, r8, asr #7
    22e4:	00737517 	rsbseq	r7, r3, r7, lsl r5
    22e8:	00537101 	subseq	r7, r3, r1, lsl #2
    22ec:	02950000 	addseq	r0, r5, #0
    22f0:	32120000 	andscc	r0, r2, #0
    22f4:	01000012 	tsteq	r0, r2, lsl r0
    22f8:	00005373 	andeq	r5, r0, r3, ror r3
    22fc:	0002cc00 	andeq	ip, r2, r0, lsl #24
    2300:	75631300 	strbvc	r1, [r3, #-768]!	; 0xfffffd00
    2304:	74010072 	strvc	r0, [r1], #-114	; 0xffffff8e
    2308:	00000053 	andeq	r0, r0, r3, asr r0
    230c:	000002fc 	strdeq	r0, [r0], -ip
    2310:	0011b312 	andseq	fp, r1, r2, lsl r3
    2314:	53750100 	cmnpl	r5, #0, 2
    2318:	27000000 	strcs	r0, [r0, -r0]
    231c:	12000003 	andne	r0, r0, #3
    2320:	000011a4 	andeq	r1, r0, r4, lsr #3
    2324:	00537601 	subseq	r7, r3, r1, lsl #12
    2328:	03520000 	cmpeq	r2, #0
    232c:	6f180000 	svcvs	0x00180000
    2330:	01007475 	tsteq	r0, r5, ror r4
    2334:	000630aa 	andeq	r3, r6, sl, lsr #1
    2338:	01401400 	cmpeq	r0, r0, lsl #8
    233c:	064c0000 	strbeq	r0, [ip], -r0
    2340:	00040000 	andeq	r0, r4, r0
    2344:	81010000 	mrshi	r0, (UNDEF: 1)
    2348:	00000356 	andeq	r0, r0, r6, asr r3
    234c:	00064c15 	andeq	r4, r6, r5, lsl ip
    2350:	00000400 	andeq	r0, r0, r0, lsl #8
    2354:	01501900 	cmpeq	r0, r0, lsl #18
    2358:	00000000 	andeq	r0, r0, r0
    235c:	00015c14 	andeq	r5, r1, r4, lsl ip
    2360:	00067000 	andeq	r7, r6, r0
    2364:	00001c00 	andeq	r1, r0, r0, lsl #24
    2368:	8f870100 	svchi	0x00870100
    236c:	1a000003 	bne	2380 <__aeabi_idiv+0x2c>
    2370:	00000173 	andeq	r0, r0, r3, ror r1
    2374:	0000037d 	andeq	r0, r0, sp, ror r3
    2378:	0001681a 	andeq	r6, r1, sl, lsl r8
    237c:	00039100 	andeq	r9, r3, r0, lsl #2
    2380:	06701500 	ldrbteq	r1, [r0], -r0, lsl #10
    2384:	001c0000 	andseq	r0, ip, r0
    2388:	7e0e0000 	cdpvc	0, 0, cr0, cr14, cr0, {0}
    238c:	a5000001 	strge	r0, [r0, #-1]
    2390:	00000003 	andeq	r0, r0, r3
    2394:	01401400 	cmpeq	r0, r0, lsl #8
    2398:	06980000 	ldreq	r0, [r8], r0
    239c:	00040000 	andeq	r0, r4, r0
    23a0:	8b010000 	blhi	423a8 <__bss_end+0x3f22c>
    23a4:	000003b6 			; <UNDEFINED> instruction: 0x000003b6
    23a8:	00069815 	andeq	r9, r6, r5, lsl r8
    23ac:	00000400 	andeq	r0, r0, r0, lsl #8
    23b0:	01500e00 	cmpeq	r0, r0, lsl #28
    23b4:	03c90000 	biceq	r0, r9, #0
    23b8:	00000000 	andeq	r0, r0, r0
    23bc:	00064c1b 	andeq	r4, r6, fp, lsl ip
    23c0:	00051500 	andeq	r1, r5, r0, lsl #10
    23c4:	51011c00 	tstpl	r1, r0, lsl #24
    23c8:	03e80a03 	mvneq	r0, #12288	; 0x3000
    23cc:	b1110000 	tstlt	r1, r0
    23d0:	01000007 	tsteq	r0, r7
    23d4:	0006acb4 			; <UNDEFINED> instruction: 0x0006acb4
    23d8:	00003400 	andeq	r3, r0, r0, lsl #8
    23dc:	0a9c0100 	beq	fe7027e4 <__bss_end+0xfe6ff668>
    23e0:	17000004 	strne	r0, [r0, -r4]
    23e4:	0100736d 	tsteq	r0, sp, ror #6
    23e8:	000053b4 			; <UNDEFINED> instruction: 0x000053b4
    23ec:	0003dc00 	andeq	sp, r3, r0, lsl #24
    23f0:	06c81d00 	strbeq	r1, [r8], r0, lsl #26
    23f4:	02c90000 	sbceq	r0, r9, #0
    23f8:	04000000 	streq	r0, [r0], #-0
    23fc:	011c0000 	tsteq	ip, r0
    2400:	100a0350 	andne	r0, sl, r0, asr r3
    2404:	e01e0027 	ands	r0, lr, r7, lsr #32
    2408:	c9000006 	stmdbgt	r0, {r1, r2}
    240c:	00000002 	andeq	r0, r0, r2
    2410:	0012f011 	andseq	pc, r2, r1, lsl r0	; <UNPREDICTABLE>
    2414:	e0da0100 	sbcs	r0, sl, r0, lsl #2
    2418:	2c000006 	stccs	0, cr0, [r0], {6}
    241c:	01000000 	mrseq	r0, (UNDEF: 0)
    2420:	0004499c 	muleq	r4, ip, r9
    2424:	123f1f00 	eorsne	r1, pc, #0, 30
    2428:	da010000 	ble	42430 <__bss_end+0x3f2b4>
    242c:	00000053 	andeq	r0, r0, r3, asr r0
    2430:	e91f5001 	ldmdb	pc, {r0, ip, lr}	; <UNPREDICTABLE>
    2434:	01000011 	tsteq	r0, r1, lsl r0
    2438:	000053da 	ldrdeq	r5, [r0], -sl
    243c:	12510100 	subsne	r0, r1, #0, 2
    2440:	0000159b 	muleq	r0, fp, r5
    2444:	0053dd01 	subseq	sp, r3, r1, lsl #26
    2448:	04120000 	ldreq	r0, [r2], #-0
    244c:	11000000 	mrsne	r0, (UNDEF: 0)
    2450:	000012de 	ldrdeq	r1, [r0], -lr
    2454:	070cf801 	streq	pc, [ip, -r1, lsl #16]
    2458:	002c0000 	eoreq	r0, ip, r0
    245c:	9c010000 	stcls	0, cr0, [r1], {-0}
    2460:	0000047b 	andeq	r0, r0, fp, ror r4
    2464:	0002331f 	andeq	r3, r2, pc, lsl r3
    2468:	73f80100 	mvnsvc	r0, #0, 2
    246c:	01000000 	mrseq	r0, (UNDEF: 0)
    2470:	12391250 	eorsne	r1, r9, #80, 4
    2474:	fb010000 	blx	4247e <__bss_end+0x3f302>
    2478:	00000053 	andeq	r0, r0, r3, asr r0
    247c:	0000045b 	andeq	r0, r0, fp, asr r4
    2480:	11d72000 	bicsne	r2, r7, r0
    2484:	0b010000 	bleq	4248c <__bss_end+0x3f310>
    2488:	00004c01 	andeq	r4, r0, r1, lsl #24
    248c:	00073800 	andeq	r3, r7, r0, lsl #16
    2490:	00002c00 	andeq	r2, r0, r0, lsl #24
    2494:	c69c0100 	ldrgt	r0, [ip], r0, lsl #2
    2498:	21000004 	tstcs	r0, r4
    249c:	00000233 	andeq	r0, r0, r3, lsr r2
    24a0:	73010b01 	movwvc	r0, #6913	; 0x1b01
    24a4:	6f000000 	svcvs	0x00000000
    24a8:	22000004 	andcs	r0, r0, #4
    24ac:	00001239 	andeq	r1, r0, r9, lsr r2
    24b0:	4c010d01 	stcmi	13, cr0, [r1], {1}
    24b4:	9d000000 	stcls	0, cr0, [r0, #-0]
    24b8:	22000004 	andcs	r0, r0, #4
    24bc:	0000126c 	andeq	r1, r0, ip, ror #4
    24c0:	4c010e01 	stcmi	14, cr0, [r1], {1}
    24c4:	bc000000 	stclt	0, cr0, [r0], {-0}
    24c8:	00000004 	andeq	r0, r0, r4
    24cc:	00133d23 	andseq	r3, r3, r3, lsr #26
    24d0:	53100100 	tstpl	r0, #0, 2
    24d4:	05000000 	streq	r0, [r0, #-0]
    24d8:	002dbc03 	eoreq	fp, sp, r3, lsl #24
    24dc:	11ce2300 	bicne	r2, lr, r0, lsl #6
    24e0:	11010000 	mrsne	r0, (UNDEF: 1)
    24e4:	00000053 	andeq	r0, r0, r3, asr r0
    24e8:	2db80305 	ldccs	3, cr0, [r8, #20]!
    24ec:	76230000 	strtvc	r0, [r3], -r0
    24f0:	01000012 	tsteq	r0, r2, lsl r0
    24f4:	00005312 	andeq	r5, r0, r2, lsl r3
    24f8:	b0030500 	andlt	r0, r3, r0, lsl #10
    24fc:	2300002d 	movwcs	r0, #45	; 0x2d
    2500:	00001206 	andeq	r1, r0, r6, lsl #4
    2504:	00531301 	subseq	r1, r3, r1, lsl #6
    2508:	03050000 	movweq	r0, #20480	; 0x5000
    250c:	00002db4 			; <UNDEFINED> instruction: 0x00002db4
    2510:	00133124 	andseq	r3, r3, r4, lsr #2
    2514:	00133100 	andseq	r3, r3, r0, lsl #2
    2518:	24930500 	ldrcs	r0, [r3], #1280	; 0x500
    251c:	00001346 	andeq	r1, r0, r6, asr #6
    2520:	00001346 	andeq	r1, r0, r6, asr #6
    2524:	5d001006 	stcpl	0, cr1, [r0, #-24]	; 0xffffffe8
    2528:	04000001 	streq	r0, [r0], #-1
    252c:	00078400 	andeq	r8, r7, r0, lsl #8
    2530:	00010400 	andeq	r0, r1, r0, lsl #8
    2534:	0c000000 	stceq	0, cr0, [r0], {-0}
    2538:	00001353 	andeq	r1, r0, r3, asr r3
    253c:	00000154 	andeq	r0, r0, r4, asr r1
    2540:	00000780 	andeq	r0, r0, r0, lsl #15
    2544:	000000e0 	andeq	r0, r0, r0, ror #1
    2548:	000006ed 	andeq	r0, r0, sp, ror #13
    254c:	e8070402 	stmda	r7, {r1, sl}
    2550:	02000001 	andeq	r0, r0, #1
    2554:	022f0704 	eoreq	r0, pc, #4, 14	; 0x100000
    2558:	01020000 	mrseq	r0, (UNDEF: 2)
    255c:	00011b08 	andeq	r1, r1, r8, lsl #22
    2560:	07040200 	streq	r0, [r4, -r0, lsl #4]
    2564:	000001e3 	andeq	r0, r0, r3, ror #3
    2568:	69050403 	stmdbvs	r5, {r0, r1, sl}
    256c:	0200746e 	andeq	r7, r0, #1845493760	; 0x6e000000
    2570:	01120801 	tsteq	r2, r1, lsl #16
    2574:	01020000 	mrseq	r0, (UNDEF: 2)
    2578:	00011406 	andeq	r1, r1, r6, lsl #8
    257c:	05020200 	streq	r0, [r2, #-512]	; 0xfffffe00
    2580:	00000278 	andeq	r0, r0, r8, ror r2
    2584:	36070202 	strcc	r0, [r7], -r2, lsl #4
    2588:	04000001 	streq	r0, [r0], #-1
    258c:	00000a82 	andeq	r0, r0, r2, lsl #21
    2590:	00251303 	eoreq	r1, r5, r3, lsl #6
    2594:	08020000 	stmdaeq	r2, {}	; <UNPREDICTABLE>
    2598:	00023805 	andeq	r3, r2, r5, lsl #16
    259c:	07080200 	streq	r0, [r8, -r0, lsl #4]
    25a0:	000001de 	ldrdeq	r0, [r0], -lr
    25a4:	00058a05 	andeq	r8, r5, r5, lsl #20
    25a8:	4c022400 	cfstrsmi	mvf2, [r2], {-0}
    25ac:	000000f5 	strdeq	r0, [r0], -r5
    25b0:	00101706 	andseq	r1, r0, r6, lsl #14
    25b4:	644e0200 	strbvs	r0, [lr], #-512	; 0xfffffe00
    25b8:	00000000 	andeq	r0, r0, r0
    25bc:	00726307 	rsbseq	r6, r2, r7, lsl #6
    25c0:	00645002 	rsbeq	r5, r4, r2
    25c4:	06040000 	streq	r0, [r4], -r0
    25c8:	00000da9 	andeq	r0, r0, r9, lsr #27
    25cc:	00645102 	rsbeq	r5, r4, r2, lsl #2
    25d0:	06080000 	streq	r0, [r8], -r0
    25d4:	00000e02 	andeq	r0, r0, r2, lsl #28
    25d8:	00645302 	rsbeq	r5, r4, r2, lsl #6
    25dc:	060c0000 	streq	r0, [ip], -r0
    25e0:	00000f10 	andeq	r0, r0, r0, lsl pc
    25e4:	00645402 	rsbeq	r5, r4, r2, lsl #8
    25e8:	06100000 	ldreq	r0, [r0], -r0
    25ec:	00000a7c 	andeq	r0, r0, ip, ror sl
    25f0:	00645502 	rsbeq	r5, r4, r2, lsl #10
    25f4:	06140000 	ldreq	r0, [r4], -r0
    25f8:	000008f0 	strdeq	r0, [r0], -r0	; <UNPREDICTABLE>
    25fc:	00645802 	rsbeq	r5, r4, r2, lsl #16
    2600:	06180000 	ldreq	r0, [r8], -r0
    2604:	00000ded 	andeq	r0, r0, sp, ror #27
    2608:	00645b02 	rsbeq	r5, r4, r2, lsl #22
    260c:	061c0000 	ldreq	r0, [ip], -r0
    2610:	00000e7c 	andeq	r0, r0, ip, ror lr
    2614:	00645c02 	rsbeq	r5, r4, r2, lsl #24
    2618:	00200000 	eoreq	r0, r0, r0
    261c:	00138208 	andseq	r8, r3, r8, lsl #4
    2620:	80120100 	andshi	r0, r2, r0, lsl #2
    2624:	3c000007 	stccc	0, cr0, [r0], {7}
    2628:	01000000 	mrseq	r0, (UNDEF: 0)
    262c:	0001189c 	muleq	r1, ip, r8
    2630:	05840900 	streq	r0, [r4, #2304]	; 0x900
    2634:	12010000 	andne	r0, r1, #0
    2638:	00000118 	andeq	r0, r0, r8, lsl r1
    263c:	0a005001 	beq	16648 <__bss_end+0x134cc>
    2640:	00007d04 	andeq	r7, r0, r4, lsl #26
    2644:	13910800 	orrsne	r0, r1, #0, 16
    2648:	28010000 	stmdacs	r1, {}	; <UNPREDICTABLE>
    264c:	000007bc 			; <UNDEFINED> instruction: 0x000007bc
    2650:	0000004c 	andeq	r0, r0, ip, asr #32
    2654:	01419c01 	cmpeq	r1, r1, lsl #24
    2658:	84090000 	strhi	r0, [r9], #-0
    265c:	01000005 	tsteq	r0, r5
    2660:	00011828 	andeq	r1, r1, r8, lsr #16
    2664:	00500100 	subseq	r0, r0, r0, lsl #2
    2668:	0004c20b 	andeq	ip, r4, fp, lsl #4
    266c:	08430100 	stmdaeq	r3, {r8}^
    2670:	58000008 	stmdapl	r0, {r3}
    2674:	01000000 	mrseq	r0, (UNDEF: 0)
    2678:	0584099c 	streq	r0, [r4, #2460]	; 0x99c
    267c:	43010000 	movwmi	r0, #4096	; 0x1000
    2680:	00000118 	andeq	r0, r0, r8, lsl r1
    2684:	00005001 	andeq	r5, r0, r1
    2688:	00000086 	andeq	r0, r0, r6, lsl #1
    268c:	08320002 	ldmdaeq	r2!, {r1}
    2690:	01040000 	mrseq	r0, (UNDEF: 4)
    2694:	000007a9 	andeq	r0, r0, r9, lsr #15
    2698:	00000860 	andeq	r0, r0, r0, ror #16
    269c:	00000db0 			; <UNDEFINED> instruction: 0x00000db0
    26a0:	68637261 	stmdavs	r3!, {r0, r5, r6, r9, ip, sp, lr}^
    26a4:	6d72612f 	ldfvse	f6, [r2, #-188]!	; 0xffffff44
    26a8:	63616d2f 	cmnvs	r1, #3008	; 0xbc0
    26ac:	75732d68 	ldrbvc	r2, [r3, #-3432]!	; 0xfffff298
    26b0:	2f69786e 	svccs	0x0069786e
    26b4:	732f6d70 			; <UNDEFINED> instruction: 0x732f6d70
    26b8:	646e6174 	strbtvs	r6, [lr], #-372	; 0xfffffe8c
    26bc:	2e2f7962 	cdpcs	9, 2, cr7, cr15, cr2, {3}
    26c0:	656d2f2e 	strbvs	r2, [sp, #-3886]!	; 0xfffff0d2
    26c4:	6d6d5f6d 	stclvs	15, cr5, [sp, #-436]!	; 0xfffffe4c
    26c8:	63705f75 	cmnvs	r0, #468	; 0x1d4
    26cc:	6d73615f 	ldfvse	f6, [r3, #-380]!	; 0xfffffe84
    26d0:	2f00532e 	svccs	0x0000532e
    26d4:	6964656d 	stmdbvs	r4!, {r0, r2, r3, r5, r6, r8, sl, sp, lr}^
    26d8:	61642f61 	cmnvs	r4, r1, ror #30
    26dc:	756b676e 	strbvc	r6, [fp, #-1902]!	; 0xfffff892
    26e0:	64796d2f 	ldrbtvs	r6, [r9], #-3375	; 0xfffff2d1
    26e4:	2f6b7369 	svccs	0x006b7369
    26e8:	2f6d326d 	svccs	0x006d326d
    26ec:	2d495042 	stclcs	0, cr5, [r9, #-264]	; 0xfffffef8
    26f0:	2d4d324d 	sfmcs	f3, 2, [sp, #-308]	; 0xfffffecc
    26f4:	2f707362 	svccs	0x00707362
    26f8:	756e696c 	strbvc	r6, [lr, #-2412]!	; 0xfffff694
    26fc:	75732d78 	ldrbvc	r2, [r3, #-3448]!	; 0xfffff288
    2700:	0069786e 	rsbeq	r7, r9, lr, ror #16
    2704:	20554e47 	subscs	r4, r5, r7, asr #28
    2708:	32205341 	eorcc	r5, r0, #67108865	; 0x4000001
    270c:	0036322e 	eorseq	r3, r6, lr, lsr #4
    2710:	06128001 	ldreq	r8, [r2], -r1
    2714:	00040000 	andeq	r0, r4, r0
    2718:	00000846 	andeq	r0, r0, r6, asr #16
    271c:	00000104 	andeq	r0, r0, r4, lsl #2
    2720:	e60c0000 	str	r0, [ip], -r0
    2724:	54000014 	strpl	r0, [r0], #-20	; 0xffffffec
    2728:	b0000001 	andlt	r0, r0, r1
    272c:	ac00000d 	stcge	0, cr0, [r0], {13}
    2730:	5d000007 	stcpl	0, cr0, [r0, #-28]	; 0xffffffe4
    2734:	02000009 	andeq	r0, r0, #9
    2738:	01140601 	tsteq	r4, r1, lsl #12
    273c:	01020000 	mrseq	r0, (UNDEF: 2)
    2740:	00011208 	andeq	r1, r1, r8, lsl #4
    2744:	05020200 	streq	r0, [r2, #-512]	; 0xfffffe00
    2748:	00000278 	andeq	r0, r0, r8, ror r2
    274c:	36070202 	strcc	r0, [r7], -r2, lsl #4
    2750:	03000001 	movweq	r0, #1
    2754:	6e690504 	cdpvs	5, 6, cr0, cr9, cr4, {0}
    2758:	82040074 	andhi	r0, r4, #116	; 0x74
    275c:	0300000a 	movweq	r0, #10
    2760:	00005313 	andeq	r5, r0, r3, lsl r3
    2764:	07040200 	streq	r0, [r4, -r0, lsl #4]
    2768:	000001e8 	andeq	r0, r0, r8, ror #3
    276c:	38050802 	stmdacc	r5, {r1, fp}
    2770:	02000002 	andeq	r0, r0, #2
    2774:	01de0708 	bicseq	r0, lr, r8, lsl #14
    2778:	b4050000 	strlt	r0, [r5], #-0
    277c:	a0000014 	andge	r0, r0, r4, lsl r0
    2780:	02541202 	subseq	r1, r4, #536870912	; 0x20000000
    2784:	17060000 	strne	r0, [r6, -r0]
    2788:	02000010 	andeq	r0, r0, #16
    278c:	00004817 	andeq	r4, r0, r7, lsl r8
    2790:	63070000 	movwvs	r0, #28672	; 0x7000
    2794:	27020072 	smlsdxcs	r2, r2, r0, r0
    2798:	00000048 	andeq	r0, r0, r8, asr #32
    279c:	63610704 	cmnvs	r1, #4, 14	; 0x100000
    27a0:	28020072 	stmdacs	r2, {r1, r4, r5, r6}
    27a4:	00000048 	andeq	r0, r0, r8, asr #32
    27a8:	0da90608 	stceq	6, cr0, [r9, #32]!
    27ac:	29020000 	stmdbcs	r2, {}	; <UNPREDICTABLE>
    27b0:	00000048 	andeq	r0, r0, r8, asr #32
    27b4:	13b7060c 			; <UNDEFINED> instruction: 0x13b7060c
    27b8:	2a020000 	bcs	827c0 <__bss_end+0x7f644>
    27bc:	00000048 	andeq	r0, r0, r8, asr #32
    27c0:	13ef0610 	mvnne	r0, #16, 12	; 0x1000000
    27c4:	2b020000 	blcs	827cc <__bss_end+0x7f650>
    27c8:	00000048 	andeq	r0, r0, r8, asr #32
    27cc:	14c20614 	strbne	r0, [r2], #1556	; 0x614
    27d0:	2c020000 	stccs	0, cr0, [r2], {-0}
    27d4:	00000048 	andeq	r0, r0, r8, asr #32
    27d8:	0e020618 	mcreq	6, 0, r0, cr2, cr8, {0}
    27dc:	30020000 	andcc	r0, r2, r0
    27e0:	00000048 	andeq	r0, r0, r8, asr #32
    27e4:	0f10061c 	svceq	0x0010061c
    27e8:	31020000 	mrscc	r0, (UNDEF: 2)
    27ec:	00000048 	andeq	r0, r0, r8, asr #32
    27f0:	0a7c0620 	beq	1f04078 <__bss_end+0x1f00efc>
    27f4:	32020000 	andcc	r0, r2, #0
    27f8:	00000048 	andeq	r0, r0, r8, asr #32
    27fc:	08f00624 	ldmeq	r0!, {r2, r5, r9, sl}^
    2800:	34020000 	strcc	r0, [r2], #-0
    2804:	00000048 	andeq	r0, r0, r8, asr #32
    2808:	13c30628 	bicne	r0, r3, #40, 12	; 0x2800000
    280c:	36020000 	strcc	r0, [r2], -r0
    2810:	00000048 	andeq	r0, r0, r8, asr #32
    2814:	15a1062c 	strne	r0, [r1, #1580]!	; 0x62c
    2818:	37020000 	strcc	r0, [r2, -r0]
    281c:	00000048 	andeq	r0, r0, r8, asr #32
    2820:	14ad0630 	strtne	r0, [sp], #1584	; 0x630
    2824:	38020000 	stmdacc	r2, {}	; <UNPREDICTABLE>
    2828:	00000048 	andeq	r0, r0, r8, asr #32
    282c:	15bc0634 	ldrne	r0, [ip, #1588]!	; 0x634
    2830:	39020000 	stmdbcc	r2, {}	; <UNPREDICTABLE>
    2834:	00000048 	andeq	r0, r0, r8, asr #32
    2838:	15a70638 	strne	r0, [r7, #1592]!	; 0x638
    283c:	3b020000 	blcc	82844 <__bss_end+0x7f6c8>
    2840:	00000048 	andeq	r0, r0, r8, asr #32
    2844:	13b1063c 			; <UNDEFINED> instruction: 0x13b1063c
    2848:	3c020000 	stccc	0, cr0, [r2], {-0}
    284c:	00000048 	andeq	r0, r0, r8, asr #32
    2850:	61700740 	cmnvs	r0, r0, asr #14
    2854:	3e020072 	mcrcc	0, 0, r0, cr2, cr2, {3}
    2858:	00000048 	andeq	r0, r0, r8, asr #32
    285c:	157d0644 	ldrbne	r0, [sp, #-1604]!	; 0xfffff9bc
    2860:	40020000 	andmi	r0, r2, r0
    2864:	00000048 	andeq	r0, r0, r8, asr #32
    2868:	15880648 	strne	r0, [r8, #1608]	; 0x648
    286c:	41020000 	mrsmi	r0, (UNDEF: 2)
    2870:	00000048 	andeq	r0, r0, r8, asr #32
    2874:	14cf064c 	strbne	r0, [pc], #1612	; 287c <mem_clk_init+0x14>
    2878:	42020000 	andmi	r0, r2, #0
    287c:	00000048 	andeq	r0, r0, r8, asr #32
    2880:	15780650 	ldrbne	r0, [r8, #-1616]!	; 0xfffff9b0
    2884:	43020000 	movwmi	r0, #8192	; 0x2000
    2888:	00000048 	andeq	r0, r0, r8, asr #32
    288c:	69730754 	ldmdbvs	r3!, {r2, r4, r6, r8, r9, sl}^
    2890:	47020072 	smlsdxmi	r2, r2, r0, r0
    2894:	00000048 	andeq	r0, r0, r8, asr #32
    2898:	14940658 	ldrne	r0, [r4], #1624	; 0x658
    289c:	49020000 	stmdbmi	r2, {}	; <UNPREDICTABLE>
    28a0:	00000048 	andeq	r0, r0, r8, asr #32
    28a4:	6363075c 	cmnvs	r3, #92, 14	; 0x1700000
    28a8:	4a020072 	bmi	82a78 <__bss_end+0x7f8fc>
    28ac:	00000048 	andeq	r0, r0, r8, asr #32
    28b0:	73650760 	cmnvc	r5, #96, 14	; 0x1800000
    28b4:	4b020072 	blmi	82a84 <__bss_end+0x7f908>
    28b8:	00000048 	andeq	r0, r0, r8, asr #32
    28bc:	15b30664 	ldrne	r0, [r3, #1636]!	; 0x664
    28c0:	4c020000 	stcmi	0, cr0, [r2], {-0}
    28c4:	00000048 	andeq	r0, r0, r8, asr #32
    28c8:	65750768 	ldrbvs	r0, [r5, #-1896]!	; 0xfffff898
    28cc:	4d020072 	stcmi	0, cr0, [r2, #-456]	; 0xfffffe38
    28d0:	00000048 	andeq	r0, r0, r8, asr #32
    28d4:	1480066c 	strne	r0, [r0], #1644	; 0x66c
    28d8:	4e020000 	cdpmi	0, 0, cr0, cr2, cr0, {0}
    28dc:	00000048 	andeq	r0, r0, r8, asr #32
    28e0:	13be0670 			; <UNDEFINED> instruction: 0x13be0670
    28e4:	4f020000 	svcmi	0x00020000
    28e8:	00000048 	andeq	r0, r0, r8, asr #32
    28ec:	0ded0674 	stcleq	6, cr0, [sp, #464]!	; 0x1d0
    28f0:	5d020000 	stcpl	0, cr0, [r2, #-0]
    28f4:	00000048 	andeq	r0, r0, r8, asr #32
    28f8:	0e7c0678 	mrceq	6, 3, r0, cr12, cr8, {3}
    28fc:	5e020000 	cdppl	0, 0, cr0, cr2, cr0, {0}
    2900:	00000048 	andeq	r0, r0, r8, asr #32
    2904:	15ae067c 	strne	r0, [lr, #1660]!	; 0x67c
    2908:	74020000 	strvc	r0, [r2], #-0
    290c:	00000048 	andeq	r0, r0, r8, asr #32
    2910:	15ad0680 	strne	r0, [sp, #1664]!	; 0x680
    2914:	75020000 	strvc	r0, [r2, #-0]
    2918:	00000048 	andeq	r0, r0, r8, asr #32
    291c:	73690784 	cmnvc	r9, #132, 14	; 0x2100000
    2920:	76020072 			; <UNDEFINED> instruction: 0x76020072
    2924:	00000048 	andeq	r0, r0, r8, asr #32
    2928:	15380688 	ldrne	r0, [r8, #-1672]!	; 0xfffff978
    292c:	7a020000 	bvc	82934 <__bss_end+0x7f7b8>
    2930:	00000048 	andeq	r0, r0, r8, asr #32
    2934:	6963078c 	stmdbvs	r3!, {r2, r3, r7, r8, r9, sl}^
    2938:	7b020064 	blvc	82ad0 <__bss_end+0x7f954>
    293c:	00000048 	andeq	r0, r0, r8, asr #32
    2940:	13d80690 	bicsne	r0, r8, #144, 12	; 0x9000000
    2944:	7c020000 	stcvc	0, cr0, [r2], {-0}
    2948:	00000048 	andeq	r0, r0, r8, asr #32
    294c:	14de0694 	ldrbne	r0, [lr], #1684	; 0x694
    2950:	7d020000 	stcvc	0, cr0, [r2, #-0]
    2954:	00000048 	andeq	r0, r0, r8, asr #32
    2958:	13aa0698 			; <UNDEFINED> instruction: 0x13aa0698
    295c:	7e020000 	cdpvc	0, 0, cr0, cr2, cr0, {0}
    2960:	00000048 	andeq	r0, r0, r8, asr #32
    2964:	0402009c 	streq	r0, [r2], #-156	; 0xffffff64
    2968:	00022f07 	andeq	r2, r2, r7, lsl #30
    296c:	020b0800 	andeq	r0, fp, #0, 16
    2970:	53040000 	movwpl	r0, #16384	; 0x4000
    2974:	04000000 	streq	r0, [r0], #-0
    2978:	0002ea89 	andeq	lr, r2, r9, lsl #21
    297c:	00d40900 	sbcseq	r0, r4, r0, lsl #18
    2980:	09000000 	stmdbeq	r0, {}	; <UNPREDICTABLE>
    2984:	00000129 	andeq	r0, r0, r9, lsr #2
    2988:	00e10901 	rsceq	r0, r1, r1, lsl #18
    298c:	09020000 	stmdbeq	r2, {}	; <UNPREDICTABLE>
    2990:	00000106 	andeq	r0, r0, r6, lsl #2
    2994:	02530903 	subseq	r0, r3, #49152	; 0xc000
    2998:	09040000 	stmdbeq	r4, {}	; <UNPREDICTABLE>
    299c:	000001d2 	ldrdeq	r0, [r0], -r2
    29a0:	01ba0905 			; <UNDEFINED> instruction: 0x01ba0905
    29a4:	09060000 	stmdbeq	r6, {}	; <UNPREDICTABLE>
    29a8:	000001f5 	strdeq	r0, [r0], -r5
    29ac:	00c80907 	sbceq	r0, r8, r7, lsl #18
    29b0:	09080000 	stmdbeq	r8, {}	; <UNPREDICTABLE>
    29b4:	000000fb 	strdeq	r0, [r0], -fp
    29b8:	01c70909 	biceq	r0, r7, r9, lsl #18
    29bc:	090a0000 	stmdbeq	sl, {}	; <UNPREDICTABLE>
    29c0:	0000026d 	andeq	r0, r0, sp, ror #4
    29c4:	0205090b 	andeq	r0, r5, #180224	; 0x2c000
    29c8:	090c0000 	stmdbeq	ip, {}	; <UNPREDICTABLE>
    29cc:	00000221 	andeq	r0, r0, r1, lsr #4
    29d0:	031a090d 	tsteq	sl, #212992	; 0x34000
    29d4:	090e0000 	stmdbeq	lr, {}	; <UNPREDICTABLE>
    29d8:	0000025f 	andeq	r0, r0, pc, asr r2
    29dc:	02ea090f 	rsceq	r0, sl, #245760	; 0x3c000
    29e0:	09100000 	ldmdbeq	r0, {}	; <UNPREDICTABLE>
    29e4:	00000246 	andeq	r0, r0, r6, asr #4
    29e8:	03040911 	movweq	r0, #18705	; 0x4911
    29ec:	09120000 	ldmdbeq	r2, {}	; <UNPREDICTABLE>
    29f0:	000000ee 	andeq	r0, r0, lr, ror #1
    29f4:	02cf0913 	sbceq	r0, pc, #311296	; 0x4c000
    29f8:	00140000 	andseq	r0, r4, r0
    29fc:	1b080102 	blne	202e0c <__bss_end+0x1ffc90>
    2a00:	02000001 	andeq	r0, r0, #1
    2a04:	01e30704 	mvneq	r0, r4, lsl #14
    2a08:	120a0000 	andne	r0, sl, #0
    2a0c:	01000015 	tsteq	r0, r5, lsl r0
    2a10:	000db08a 	andeq	fp, sp, sl, lsl #1
    2a14:	00040400 	andeq	r0, r4, r0, lsl #8
    2a18:	1b9c0100 	blne	fe702e20 <__bss_end+0xfe6ffca4>
    2a1c:	0b000003 	bleq	2a30 <mem_clk_set_pll_factor+0x54>
    2a20:	00001499 	muleq	r0, r9, r4
    2a24:	031b8a01 	tsteq	fp, #4096	; 0x1000
    2a28:	50010000 	andpl	r0, r1, r0
    2a2c:	68040c00 	stmdavs	r4, {sl, fp}
    2a30:	0d000000 	stceq	0, cr0, [r0, #-0]
    2a34:	00001466 	andeq	r1, r0, r6, ror #8
    2a38:	b4011801 	strlt	r1, [r1], #-2049	; 0xfffff7ff
    2a3c:	c4000011 	strgt	r0, [r0], #-17	; 0xffffffef
    2a40:	01000002 	tsteq	r0, r2
    2a44:	0003469c 	muleq	r3, ip, r6
    2a48:	14990e00 	ldrne	r0, [r9], #3584	; 0xe00
    2a4c:	18010000 	stmdane	r1, {}	; <UNPREDICTABLE>
    2a50:	00031b01 	andeq	r1, r3, r1, lsl #22
    2a54:	00500100 	subseq	r0, r0, r0, lsl #2
    2a58:	00144d0d 	andseq	r4, r4, sp, lsl #26
    2a5c:	017b0100 	cmneq	fp, r0, lsl #2
    2a60:	00001478 	andeq	r1, r0, r8, ror r4
    2a64:	00000018 	andeq	r0, r0, r8, lsl r0
    2a68:	036d9c01 	cmneq	sp, #256	; 0x100
    2a6c:	760f0000 	strvc	r0, [pc], -r0
    2a70:	01006c61 	tsteq	r0, r1, ror #24
    2a74:	0048017e 	subeq	r0, r8, lr, ror r1
    2a78:	04d00000 	ldrbeq	r0, [r0], #0
    2a7c:	0d000000 	stceq	0, cr0, [r0, #-0]
    2a80:	00000f17 	andeq	r0, r0, r7, lsl pc
    2a84:	90018901 	andls	r8, r1, r1, lsl #18
    2a88:	90000014 	andls	r0, r0, r4, lsl r0
    2a8c:	01000000 	mrseq	r0, (UNDEF: 0)
    2a90:	0003979c 	muleq	r3, ip, r7
    2a94:	14991000 	ldrne	r1, [r9], #0
    2a98:	8b010000 	blhi	42aa0 <__bss_end+0x3f924>
    2a9c:	00031b01 	andeq	r1, r3, r1, lsl #22
    2aa0:	47f20600 	ldrbmi	r0, [r2, r0, lsl #12]!
    2aa4:	0000002b 	andeq	r0, r0, fp, lsr #32
    2aa8:	15140d00 	ldrne	r0, [r4, #-3328]	; 0xfffff300
    2aac:	e3010000 	movw	r0, #4096	; 0x1000
    2ab0:	00152001 	andseq	r2, r5, r1
    2ab4:	00000c00 	andeq	r0, r0, r0, lsl #24
    2ab8:	c19c0100 	orrsgt	r0, ip, r0, lsl #2
    2abc:	11000003 	tstne	r0, r3
    2ac0:	0000152c 	andeq	r1, r0, ip, lsr #10
    2ac4:	000002f8 	strdeq	r0, [r0], -r8
    2ac8:	05500112 	ldrbeq	r0, [r0, #-274]	; 0xfffffeee
    2acc:	002dc003 	eoreq	ip, sp, r3
    2ad0:	0d000000 	stceq	0, cr0, [r0, #-0]
    2ad4:	00001468 	andeq	r1, r0, r8, ror #8
    2ad8:	2c01e901 	stccs	9, cr14, [r1], {1}
    2adc:	0c000015 	stceq	0, cr0, [r0], {21}
    2ae0:	01000000 	mrseq	r0, (UNDEF: 0)
    2ae4:	0003eb9c 	muleq	r3, ip, fp
    2ae8:	15381100 	ldrne	r1, [r8, #-256]!	; 0xffffff00
    2aec:	03210000 			; <UNDEFINED> instruction: 0x03210000
    2af0:	01120000 	tsteq	r2, r0
    2af4:	c0030550 	andgt	r0, r3, r0, asr r5
    2af8:	0000002d 	andeq	r0, r0, sp, lsr #32
    2afc:	14261300 	strtne	r1, [r6], #-768	; 0xfffffd00
    2b00:	ee010000 	cdp	0, 0, cr0, cr1, cr0, {0}
    2b04:	00153801 	andseq	r3, r5, r1, lsl #16
    2b08:	00001400 	andeq	r1, r0, r0, lsl #8
    2b0c:	0d9c0100 	ldfeqs	f0, [ip]
    2b10:	000014d4 	ldrdeq	r1, [r0], -r4
    2b14:	4c01f401 	cfstrsmi	mvf15, [r1], {1}
    2b18:	10000015 	andne	r0, r0, r5, lsl r0
    2b1c:	01000000 	mrseq	r0, (UNDEF: 0)
    2b20:	0004249c 	muleq	r4, ip, r4
    2b24:	74740f00 	ldrbtvc	r0, [r4], #-3840	; 0xfffff100
    2b28:	f6010062 			; <UNDEFINED> instruction: 0xf6010062
    2b2c:	00004801 	andeq	r4, r0, r1, lsl #16
    2b30:	0004f300 	andeq	pc, r4, r0, lsl #6
    2b34:	b4140000 	ldrlt	r0, [r4], #-0
    2b38:	01000014 	tsteq	r0, r4, lsl r0
    2b3c:	0000681f 	andeq	r6, r0, pc, lsl r8
    2b40:	c0030500 	andgt	r0, r3, r0, lsl #10
    2b44:	1500002d 	strne	r0, [r0, #-45]	; 0xffffffd3
    2b48:	0000158d 	andeq	r1, r0, sp, lsl #11
    2b4c:	04e12101 	strbteq	r2, [r1], #257	; 0x101
    2b50:	02a00000 	adceq	r0, r0, #0
    2b54:	78000000 	stmdavc	r0, {}	; <UNPREDICTABLE>
    2b58:	4000c508 	andmi	ip, r0, r8, lsl #10
    2b5c:	00000060 	andeq	r0, r0, r0, rrx
	...
    2bc8:	a4000000 	strge	r0, [r0], #-0
    2bcc:	e0000a81 	and	r0, r0, r1, lsl #21
    2bd0:	0044e048 	subeq	lr, r4, r8, asr #32
	...
    2bf0:	16000000 	strne	r0, [r0], -r0
    2bf4:	00000068 	andeq	r0, r0, r8, rrx
    2bf8:	0002f117 	andeq	pc, r2, r7, lsl r1	; <UNPREDICTABLE>
    2bfc:	0004f600 	andeq	pc, r4, r0, lsl #12
    2c00:	02541800 	subseq	r1, r4, #0, 16
    2c04:	00010000 	andeq	r0, r1, r0
    2c08:	0015f119 	andseq	pc, r5, r9, lsl r1	; <UNPREDICTABLE>
    2c0c:	e60f0100 	str	r0, [pc], -r0, lsl #2
    2c10:	05000004 	streq	r0, [r0, #-4]
    2c14:	00315c03 	eorseq	r5, r1, r3, lsl #24
    2c18:	15691900 	strbne	r1, [r9, #-2304]!	; 0xfffff700
    2c1c:	10010000 	andne	r0, r1, r0
    2c20:	000002f1 	strdeq	r0, [r0], -r1
    2c24:	31580305 	cmpcc	r8, r5, lsl #6
    2c28:	53190000 	tstpl	r9, #0
    2c2c:	01000015 	tsteq	r0, r5, lsl r0
    2c30:	0004e611 	andeq	lr, r4, r1, lsl r6
    2c34:	6c030500 	cfstr32vs	mvfx0, [r3], {-0}
    2c38:	19000030 	stmdbne	r0, {r4, r5}
    2c3c:	0000143e 	andeq	r1, r0, lr, lsr r4
    2c40:	02f11201 	rscseq	r1, r1, #268435456	; 0x10000000
    2c44:	03050000 	movweq	r0, #20480	; 0x5000
    2c48:	00003170 	andeq	r3, r0, r0, ror r1
    2c4c:	0002f117 	andeq	pc, r2, r7, lsl r1	; <UNPREDICTABLE>
    2c50:	00054a00 	andeq	r4, r5, r0, lsl #20
    2c54:	02541800 	subseq	r1, r4, #0, 16
    2c58:	00060000 	andeq	r0, r6, r0
    2c5c:	0013fa19 	andseq	pc, r3, r9, lsl sl	; <UNPREDICTABLE>
    2c60:	3a130100 	bcc	4c3068 <__bss_end+0x4bfeec>
    2c64:	05000005 	streq	r0, [r0, #-5]
    2c68:	00313c03 	eorseq	r3, r1, r3, lsl #24
    2c6c:	14851900 	strne	r1, [r5], #2304	; 0x900
    2c70:	14010000 	strne	r0, [r1], #-0
    2c74:	000002f1 	strdeq	r0, [r0], -r1
    2c78:	30740305 	rsbscc	r0, r4, r5, lsl #6
    2c7c:	c3190000 	tstgt	r9, #0
    2c80:	01000015 	tsteq	r0, r5, lsl r0
    2c84:	0004e615 	andeq	lr, r4, r5, lsl r6
    2c88:	80030500 	andhi	r0, r3, r0, lsl #10
    2c8c:	19000030 	stmdbne	r0, {r4, r5}
    2c90:	000013c9 	andeq	r1, r0, r9, asr #7
    2c94:	02f11601 	rscseq	r1, r1, #1048576	; 0x100000
    2c98:	03050000 	movweq	r0, #20480	; 0x5000
    2c9c:	00003164 	andeq	r3, r0, r4, ror #2
    2ca0:	00141019 	andseq	r1, r4, r9, lsl r0
    2ca4:	e6170100 	ldr	r0, [r7], -r0, lsl #2
    2ca8:	05000004 	streq	r0, [r0, #-4]
    2cac:	00306403 	eorseq	r6, r0, r3, lsl #8
    2cb0:	149e1900 	ldrne	r1, [lr], #2304	; 0x900
    2cb4:	18010000 	stmdane	r1, {}	; <UNPREDICTABLE>
    2cb8:	000002f1 	strdeq	r0, [r0], -r1
    2cbc:	307c0305 	rsbscc	r0, ip, r5, lsl #6
    2cc0:	3d190000 	ldccc	0, cr0, [r9, #-0]
    2cc4:	01000015 	tsteq	r0, r5, lsl r0
    2cc8:	0004e619 	andeq	lr, r4, r9, lsl r6
    2ccc:	74030500 	strvc	r0, [r3], #-1280	; 0xfffffb00
    2cd0:	19000031 	stmdbne	r0, {r0, r4, r5}
    2cd4:	00001529 	andeq	r1, r0, r9, lsr #10
    2cd8:	02f11a01 	rscseq	r1, r1, #4096	; 0x1000
    2cdc:	03050000 	movweq	r0, #20480	; 0x5000
    2ce0:	00003078 	andeq	r3, r0, r8, ror r0
    2ce4:	00160719 	andseq	r0, r6, r9, lsl r7
    2ce8:	e61b0100 	ldr	r0, [fp], -r0, lsl #2
    2cec:	05000004 	streq	r0, [r0, #-4]
    2cf0:	00316803 	eorseq	r6, r1, r3, lsl #16
    2cf4:	13e01900 	mvnne	r1, #0, 18
    2cf8:	1c010000 	stcne	0, cr0, [r1], {-0}
    2cfc:	000002f1 	strdeq	r0, [r0], -r1
    2d00:	30880305 	addcc	r0, r8, r5, lsl #6
    2d04:	f1170000 			; <UNDEFINED> instruction: 0xf1170000
    2d08:	04000002 	streq	r0, [r0], #-2
    2d0c:	18000006 	stmdane	r0, {r1, r2}
    2d10:	00000254 	andeq	r0, r0, r4, asr r2
    2d14:	d919002b 	ldmdble	r9, {r0, r1, r3, r5}
    2d18:	01000015 	tsteq	r0, r5, lsl r0
    2d1c:	0005f41d 	andeq	pc, r5, sp, lsl r4	; <UNPREDICTABLE>
    2d20:	8c030500 	cfstr32hi	mvfx0, [r3], {-0}
    2d24:	00000030 	andeq	r0, r0, r0, lsr r0
    2d28:	0000160c 	andeq	r1, r0, ip, lsl #12
    2d2c:	09b70004 	ldmibeq	r7!, {r2}
    2d30:	01040000 	mrseq	r0, (UNDEF: 4)
    2d34:	00000000 	andeq	r0, r0, r0
    2d38:	0017270c 	andseq	r2, r7, ip, lsl #14
    2d3c:	00015400 	andeq	r5, r1, r0, lsl #8
    2d40:	00155c00 	andseq	r5, r5, r0, lsl #24
    2d44:	0004c800 	andeq	ip, r4, r0, lsl #16
    2d48:	000a9c00 	andeq	r9, sl, r0, lsl #24
    2d4c:	06010200 	streq	r0, [r1], -r0, lsl #4
    2d50:	00000114 	andeq	r0, r0, r4, lsl r1
    2d54:	12080102 	andne	r0, r8, #-2147483648	; 0x80000000
    2d58:	02000001 	andeq	r0, r0, #1
    2d5c:	02780502 	rsbseq	r0, r8, #8388608	; 0x800000
    2d60:	02020000 	andeq	r0, r2, #0
    2d64:	00013607 	andeq	r3, r1, r7, lsl #12
    2d68:	12660300 	rsbne	r0, r6, #0, 6
    2d6c:	12020000 	andne	r0, r2, #0
    2d70:	0000004c 	andeq	r0, r0, ip, asr #32
    2d74:	69050404 	stmdbvs	r5, {r2, sl}
    2d78:	0300746e 	movweq	r7, #1134	; 0x46e
    2d7c:	00000a82 	andeq	r0, r0, r2, lsl #21
    2d80:	005e1302 	subseq	r1, lr, r2, lsl #6
    2d84:	04020000 	streq	r0, [r2], #-0
    2d88:	0001e807 	andeq	lr, r1, r7, lsl #16
    2d8c:	05080200 	streq	r0, [r8, #-512]	; 0xfffffe00
    2d90:	00000238 	andeq	r0, r0, r8, lsr r2
    2d94:	de070802 	cdple	8, 0, cr0, cr7, cr2, {0}
    2d98:	05000001 	streq	r0, [r0, #-1]
    2d9c:	3f1a0304 	svccc	0x001a0304
    2da0:	06000001 	streq	r0, [r0], -r1
    2da4:	00000742 	andeq	r0, r0, r2, asr #14
    2da8:	00531c03 	subseq	r1, r3, r3, lsl #24
    2dac:	02040000 	andeq	r0, r4, #0
    2db0:	3606001e 			; <UNDEFINED> instruction: 0x3606001e
    2db4:	0300000d 	movweq	r0, #13
    2db8:	0000531d 	andeq	r5, r0, sp, lsl r3
    2dbc:	1c020400 	cfstrsne	mvf0, [r2], {-0}
    2dc0:	073a0600 	ldreq	r0, [sl, -r0, lsl #12]!
    2dc4:	1e030000 	cdpne	0, 0, cr0, cr3, cr0, {0}
    2dc8:	00000053 	andeq	r0, r0, r3, asr r0
    2dcc:	001a0204 	andseq	r0, sl, r4, lsl #4
    2dd0:	000d4006 	andeq	r4, sp, r6
    2dd4:	531f0300 	tstpl	pc, #0, 6
    2dd8:	04000000 	streq	r0, [r0], #-0
    2ddc:	06001802 	streq	r1, [r0], -r2, lsl #16
    2de0:	0000074a 	andeq	r0, r0, sl, asr #14
    2de4:	00532003 	subseq	r2, r3, r3
    2de8:	05040000 	streq	r0, [r4, #-0]
    2dec:	4a060013 	bmi	182e40 <__bss_end+0x17fcc4>
    2df0:	0300000d 	movweq	r0, #13
    2df4:	00005321 	andeq	r5, r0, r1, lsr #6
    2df8:	10030400 	andne	r0, r3, r0, lsl #8
    2dfc:	075a0600 	ldrbeq	r0, [sl, -r0, lsl #12]
    2e00:	22030000 	andcs	r0, r3, #0
    2e04:	00000053 	andeq	r0, r0, r3, asr r0
    2e08:	000e0204 	andeq	r0, lr, r4, lsl #4
    2e0c:	000d5406 	andeq	r5, sp, r6, lsl #8
    2e10:	53230300 			; <UNDEFINED> instruction: 0x53230300
    2e14:	04000000 	streq	r0, [r0], #-0
    2e18:	06000806 	streq	r0, [r0], -r6, lsl #16
    2e1c:	00000a61 	andeq	r0, r0, r1, ror #20
    2e20:	00532403 	subseq	r2, r3, r3, lsl #8
    2e24:	01040000 	mrseq	r0, (UNDEF: 4)
    2e28:	5e060007 	cdppl	0, 0, cr0, cr6, cr7, {0}
    2e2c:	0300000d 	movweq	r0, #13
    2e30:	00005325 	andeq	r5, r0, r5, lsr #6
    2e34:	04030400 	streq	r0, [r3], #-1024	; 0xfffffc00
    2e38:	0bfd0600 	bleq	fff44640 <__bss_end+0xfff414c4>
    2e3c:	26030000 	strcs	r0, [r3], -r0
    2e40:	00000053 	andeq	r0, r0, r3, asr r0
    2e44:	00030104 	andeq	r0, r3, r4, lsl #2
    2e48:	000d6806 	andeq	r6, sp, r6, lsl #16
    2e4c:	53270300 			; <UNDEFINED> instruction: 0x53270300
    2e50:	04000000 	streq	r0, [r0], #-0
    2e54:	06000102 	streq	r0, [r0], -r2, lsl #2
    2e58:	00000cac 	andeq	r0, r0, ip, lsr #25
    2e5c:	00532803 	subseq	r2, r3, r3, lsl #16
    2e60:	01040000 	mrseq	r0, (UNDEF: 4)
    2e64:	07000000 	streq	r0, [r0, -r0]
    2e68:	5e180304 	cdppl	3, 1, cr0, cr8, cr4, {0}
    2e6c:	08000001 	stmdaeq	r0, {r0}
    2e70:	000004d4 	ldrdeq	r0, [r0], -r4
    2e74:	00531903 	subseq	r1, r3, r3, lsl #18
    2e78:	d2080000 	andle	r0, r8, #0
    2e7c:	0300000a 	movweq	r0, #10
    2e80:	0000732a 	andeq	r7, r0, sl, lsr #6
    2e84:	b2030000 	andlt	r0, r3, #0
    2e88:	0300000c 	movweq	r0, #12
    2e8c:	00013f2b 	andeq	r3, r1, fp, lsr #30
    2e90:	0cd30900 	ldcleq	9, cr0, [r3], {0}
    2e94:	03040000 	movweq	r0, #16384	; 0x4000
    2e98:	00021b2e 	andeq	r1, r2, lr, lsr #22
    2e9c:	07420600 	strbeq	r0, [r2, -r0, lsl #12]
    2ea0:	30030000 	andcc	r0, r3, r0
    2ea4:	00000053 	andeq	r0, r0, r3, asr r0
    2ea8:	001b0504 	andseq	r0, fp, r4, lsl #10
    2eac:	000d3606 	andeq	r3, sp, r6, lsl #12
    2eb0:	53310300 	teqpl	r1, #0, 6
    2eb4:	04000000 	streq	r0, [r0], #-0
    2eb8:	06001803 	streq	r1, [r0], -r3, lsl #16
    2ebc:	0000074a 	andeq	r0, r0, sl, asr #14
    2ec0:	00533203 	subseq	r3, r3, r3, lsl #4
    2ec4:	07040000 	streq	r0, [r4, -r0]
    2ec8:	40060011 	andmi	r0, r6, r1, lsl r0
    2ecc:	0300000d 	movweq	r0, #13
    2ed0:	00005333 	andeq	r5, r0, r3, lsr r3
    2ed4:	10010400 	andne	r0, r1, r0, lsl #8
    2ed8:	075a0600 	ldrbeq	r0, [sl, -r0, lsl #12]
    2edc:	34030000 	strcc	r0, [r3], #-0
    2ee0:	00000053 	andeq	r0, r0, r3, asr r0
    2ee4:	000c0404 	andeq	r0, ip, r4, lsl #8
    2ee8:	000d4a06 	andeq	r4, sp, r6, lsl #20
    2eec:	53350300 	teqpl	r5, #0, 6
    2ef0:	04000000 	streq	r0, [r0], #-0
    2ef4:	06000804 	streq	r0, [r0], -r4, lsl #16
    2ef8:	00000bd2 	ldrdeq	r0, [r0], -r2
    2efc:	00533603 	subseq	r3, r3, r3, lsl #12
    2f00:	01040000 	mrseq	r0, (UNDEF: 4)
    2f04:	54060007 	strpl	r0, [r6], #-7
    2f08:	0300000d 	movweq	r0, #13
    2f0c:	00005337 	andeq	r5, r0, r7, lsr r3
    2f10:	04030400 	streq	r0, [r3], #-1024	; 0xfffffc00
    2f14:	0bfd0600 	bleq	fff4471c <__bss_end+0xfff415a0>
    2f18:	38030000 	stmdacc	r3, {}	; <UNPREDICTABLE>
    2f1c:	00000053 	andeq	r0, r0, r3, asr r0
    2f20:	00030104 	andeq	r0, r3, r4, lsl #2
    2f24:	000d5e06 	andeq	r5, sp, r6, lsl #28
    2f28:	53390300 	teqpl	r9, #0, 6
    2f2c:	04000000 	streq	r0, [r0], #-0
    2f30:	06000102 	streq	r0, [r0], -r2, lsl #2
    2f34:	00000cac 	andeq	r0, r0, ip, lsr #25
    2f38:	00533a03 	subseq	r3, r3, r3, lsl #20
    2f3c:	01040000 	mrseq	r0, (UNDEF: 4)
    2f40:	03000000 	movweq	r0, #0
    2f44:	00000c25 	andeq	r0, r0, r5, lsr #24
    2f48:	01693b03 	cmneq	r9, r3, lsl #22
    2f4c:	92090000 	andls	r0, r9, #0
    2f50:	0400000c 	streq	r0, [r0], #-12
    2f54:	02f65003 	rscseq	r5, r6, #3
    2f58:	42060000 	andmi	r0, r6, #0
    2f5c:	03000007 	movweq	r0, #7
    2f60:	00005352 	andeq	r5, r0, r2, asr r3
    2f64:	1e020400 	cfcpysne	mvf0, mvf2
    2f68:	0d360600 	ldceq	6, cr0, [r6, #-0]
    2f6c:	53030000 	movwpl	r0, #12288	; 0x3000
    2f70:	00000053 	andeq	r0, r0, r3, asr r0
    2f74:	001c0204 	andseq	r0, ip, r4, lsl #4
    2f78:	00073a06 	andeq	r3, r7, r6, lsl #20
    2f7c:	53540300 	cmppl	r4, #0, 6
    2f80:	04000000 	streq	r0, [r0], #-0
    2f84:	06001a02 	streq	r1, [r0], -r2, lsl #20
    2f88:	00000d40 	andeq	r0, r0, r0, asr #26
    2f8c:	00535503 	subseq	r5, r3, r3, lsl #10
    2f90:	02040000 	andeq	r0, r4, #0
    2f94:	4a060018 	bmi	182ffc <__bss_end+0x17fe80>
    2f98:	03000007 	movweq	r0, #7
    2f9c:	00005356 	andeq	r5, r0, r6, asr r3
    2fa0:	13050400 	movwne	r0, #21504	; 0x5400
    2fa4:	0d4a0600 	stcleq	6, cr0, [sl, #-0]
    2fa8:	57030000 	strpl	r0, [r3, -r0]
    2fac:	00000053 	andeq	r0, r0, r3, asr r0
    2fb0:	000c0704 	andeq	r0, ip, r4, lsl #14
    2fb4:	00069706 	andeq	r9, r6, r6, lsl #14
    2fb8:	53580300 	cmppl	r8, #0, 6
    2fbc:	04000000 	streq	r0, [r0], #-0
    2fc0:	06000b01 	streq	r0, [r0], -r1, lsl #22
    2fc4:	00000d54 	andeq	r0, r0, r4, asr sp
    2fc8:	00535903 	subseq	r5, r3, r3, lsl #18
    2fcc:	03040000 	movweq	r0, #16384	; 0x4000
    2fd0:	69060008 	stmdbvs	r6, {r3}
    2fd4:	0300000a 	movweq	r0, #10
    2fd8:	0000535a 	andeq	r5, r0, sl, asr r3
    2fdc:	07010400 	streq	r0, [r1, -r0, lsl #8]
    2fe0:	0d5e0600 	ldcleq	6, cr0, [lr, #-0]
    2fe4:	5b030000 	blpl	c2fec <__bss_end+0xbfe70>
    2fe8:	00000053 	andeq	r0, r0, r3, asr r0
    2fec:	00040304 	andeq	r0, r4, r4, lsl #6
    2ff0:	000bfd06 	andeq	pc, fp, r6, lsl #26
    2ff4:	535c0300 	cmppl	ip, #0, 6
    2ff8:	04000000 	streq	r0, [r0], #-0
    2ffc:	06000301 	streq	r0, [r0], -r1, lsl #6
    3000:	00000d68 	andeq	r0, r0, r8, ror #26
    3004:	00535d03 	subseq	r5, r3, r3, lsl #26
    3008:	02040000 	andeq	r0, r4, #0
    300c:	ac060001 	stcge	0, cr0, [r6], {1}
    3010:	0300000c 	movweq	r0, #12
    3014:	0000535e 	andeq	r5, r0, lr, asr r3
    3018:	00010400 	andeq	r0, r1, r0, lsl #8
    301c:	b0030000 	andlt	r0, r3, r0
    3020:	03000006 	movweq	r0, #6
    3024:	0002265f 	andeq	r2, r2, pc, asr r6
    3028:	10a60900 	adcne	r0, r6, r0, lsl #18
    302c:	03040000 	movweq	r0, #16384	; 0x4000
    3030:	0003ef62 	andeq	lr, r3, r2, ror #30
    3034:	07420600 	strbeq	r0, [r2, -r0, lsl #12]
    3038:	64030000 	strvs	r0, [r3], #-0
    303c:	00000053 	andeq	r0, r0, r3, asr r0
    3040:	001e0204 	andseq	r0, lr, r4, lsl #4
    3044:	000d3606 	andeq	r3, sp, r6, lsl #12
    3048:	53650300 	cmnpl	r5, #0, 6
    304c:	04000000 	streq	r0, [r0], #-0
    3050:	06001c02 	streq	r1, [r0], -r2, lsl #24
    3054:	0000073a 	andeq	r0, r0, sl, lsr r7
    3058:	00536603 	subseq	r6, r3, r3, lsl #12
    305c:	02040000 	andeq	r0, r4, #0
    3060:	4006001a 	andmi	r0, r6, sl, lsl r0
    3064:	0300000d 	movweq	r0, #13
    3068:	00005367 	andeq	r5, r0, r7, ror #6
    306c:	18020400 	stmdane	r2, {sl}
    3070:	074a0600 	strbeq	r0, [sl, -r0, lsl #12]
    3074:	68030000 	stmdavs	r3, {}	; <UNPREDICTABLE>
    3078:	00000053 	andeq	r0, r0, r3, asr r0
    307c:	00130504 	andseq	r0, r3, r4, lsl #10
    3080:	000d4a06 	andeq	r4, sp, r6, lsl #20
    3084:	53690300 	cmnpl	r9, #0, 6
    3088:	04000000 	streq	r0, [r0], #-0
    308c:	06001003 	streq	r1, [r0], -r3
    3090:	00000ed7 	ldrdeq	r0, [r0], -r7
    3094:	00536a03 	subseq	r6, r3, r3, lsl #20
    3098:	02040000 	andeq	r0, r4, #0
    309c:	3806000e 	stmdacc	r6, {r1, r2, r3}
    30a0:	03000004 	movweq	r0, #4
    30a4:	0000536b 	andeq	r5, r0, fp, ror #6
    30a8:	0d010400 	cfstrseq	mvf0, [r1, #-0]
    30ac:	0d540600 	ldcleq	6, cr0, [r4, #-0]
    30b0:	6c030000 	stcvs	0, cr0, [r3], {-0}
    30b4:	00000053 	andeq	r0, r0, r3, asr r0
    30b8:	00080504 	andeq	r0, r8, r4, lsl #10
    30bc:	000b5b06 	andeq	r5, fp, r6, lsl #22
    30c0:	536d0300 	cmnpl	sp, #0, 6
    30c4:	04000000 	streq	r0, [r0], #-0
    30c8:	06000701 	streq	r0, [r0], -r1, lsl #14
    30cc:	00000b11 	andeq	r0, r0, r1, lsl fp
    30d0:	00536e03 	subseq	r6, r3, r3, lsl #28
    30d4:	01040000 	mrseq	r0, (UNDEF: 4)
    30d8:	5e060006 	cdppl	0, 0, cr0, cr6, cr6, {0}
    30dc:	0300000d 	movweq	r0, #13
    30e0:	0000536f 	andeq	r5, r0, pc, ror #6
    30e4:	04020400 	streq	r0, [r2], #-1024	; 0xfffffc00
    30e8:	0bfd0600 	bleq	fff448f0 <__bss_end+0xfff41774>
    30ec:	70030000 	andvc	r0, r3, r0
    30f0:	00000053 	andeq	r0, r0, r3, asr r0
    30f4:	00030104 	andeq	r0, r3, r4, lsl #2
    30f8:	000d6806 	andeq	r6, sp, r6, lsl #16
    30fc:	53710300 	cmnpl	r1, #0, 6
    3100:	04000000 	streq	r0, [r0], #-0
    3104:	06000102 	streq	r0, [r0], -r2, lsl #2
    3108:	00000cac 	andeq	r0, r0, ip, lsr #25
    310c:	00537203 	subseq	r7, r3, r3, lsl #4
    3110:	01040000 	mrseq	r0, (UNDEF: 4)
    3114:	03000000 	movweq	r0, #0
    3118:	000005c6 	andeq	r0, r0, r6, asr #11
    311c:	03017303 	movweq	r7, #4867	; 0x1303
    3120:	89090000 	stmdbhi	r9, {}	; <UNPREDICTABLE>
    3124:	04000008 	streq	r0, [r0], #-8
    3128:	04bb7503 	ldrteq	r7, [fp], #1283	; 0x503
    312c:	42060000 	andmi	r0, r6, #0
    3130:	03000007 	movweq	r0, #7
    3134:	00005377 	andeq	r5, r0, r7, ror r3
    3138:	1c040400 	cfstrsne	mvf0, [r4], {-0}
    313c:	0d360600 	ldceq	6, cr0, [r6, #-0]
    3140:	78030000 	stmdavc	r3, {}	; <UNPREDICTABLE>
    3144:	00000053 	andeq	r0, r0, r3, asr r0
    3148:	00180404 	andseq	r0, r8, r4, lsl #8
    314c:	00074a06 	andeq	r4, r7, r6, lsl #20
    3150:	53790300 	cmnpl	r9, #0, 6
    3154:	04000000 	streq	r0, [r0], #-0
    3158:	06001107 	streq	r1, [r0], -r7, lsl #2
    315c:	00000d40 	andeq	r0, r0, r0, asr #26
    3160:	00537a03 	subseq	r7, r3, r3, lsl #20
    3164:	05040000 	streq	r0, [r4, #-0]
    3168:	d206000c 	andle	r0, r6, #12
    316c:	0300000b 	movweq	r0, #11
    3170:	0000537b 	andeq	r5, r0, fp, ror r3
    3174:	0b010400 	bleq	4417c <__bss_end+0x41000>
    3178:	0d4a0600 	stcleq	6, cr0, [sl, #-0]
    317c:	7c030000 	stcvc	0, cr0, [r3], {-0}
    3180:	00000053 	andeq	r0, r0, r3, asr r0
    3184:	00080304 	andeq	r0, r8, r4, lsl #6
    3188:	000c6106 	andeq	r6, ip, r6, lsl #2
    318c:	537d0300 	cmnpl	sp, #0, 6
    3190:	04000000 	streq	r0, [r0], #-0
    3194:	06000701 	streq	r0, [r0], -r1, lsl #14
    3198:	00000dc4 	andeq	r0, r0, r4, asr #27
    319c:	00537e03 	subseq	r7, r3, r3, lsl #28
    31a0:	01040000 	mrseq	r0, (UNDEF: 4)
    31a4:	54060006 	strpl	r0, [r6], #-6
    31a8:	0300000d 	movweq	r0, #13
    31ac:	0000537f 	andeq	r5, r0, pc, ror r3
    31b0:	04020400 	streq	r0, [r2], #-1024	; 0xfffffc00
    31b4:	0bfd0600 	bleq	fff449bc <__bss_end+0xfff41840>
    31b8:	80030000 	andhi	r0, r3, r0
    31bc:	00000053 	andeq	r0, r0, r3, asr r0
    31c0:	00030104 	andeq	r0, r3, r4, lsl #2
    31c4:	000d5e06 	andeq	r5, sp, r6, lsl #28
    31c8:	53810300 	orrpl	r0, r1, #0, 6
    31cc:	04000000 	streq	r0, [r0], #-0
    31d0:	06000102 	streq	r0, [r0], -r2, lsl #2
    31d4:	00000cac 	andeq	r0, r0, ip, lsr #25
    31d8:	00538203 	subseq	r8, r3, r3, lsl #4
    31dc:	01040000 	mrseq	r0, (UNDEF: 4)
    31e0:	03000000 	movweq	r0, #0
    31e4:	000009a5 	andeq	r0, r0, r5, lsr #19
    31e8:	03fa8303 	mvnseq	r8, #201326592	; 0xc000000
    31ec:	e1090000 	mrs	r0, (UNDEF: 9)
    31f0:	0400000b 	streq	r0, [r0], #-11
    31f4:	05f08603 	ldrbeq	r8, [r0, #1539]!	; 0x603
    31f8:	42060000 	andmi	r0, r6, #0
    31fc:	03000007 	movweq	r0, #7
    3200:	00005388 	andeq	r5, r0, r8, lsl #7
    3204:	1c040400 	cfstrsne	mvf0, [r4], {-0}
    3208:	073a0600 	ldreq	r0, [sl, -r0, lsl #12]!
    320c:	89030000 	stmdbhi	r3, {}	; <UNPREDICTABLE>
    3210:	00000053 	andeq	r0, r0, r3, asr r0
    3214:	001a0204 	andseq	r0, sl, r4, lsl #4
    3218:	000d3606 	andeq	r3, sp, r6, lsl #12
    321c:	538a0300 	orrpl	r0, sl, #0, 6
    3220:	04000000 	streq	r0, [r0], #-0
    3224:	06001802 	streq	r1, [r0], -r2, lsl #16
    3228:	0000074a 	andeq	r0, r0, sl, asr #14
    322c:	00538b03 	subseq	r8, r3, r3, lsl #22
    3230:	04040000 	streq	r0, [r4], #-0
    3234:	40060014 	andmi	r0, r6, r4, lsl r0
    3238:	0300000d 	movweq	r0, #13
    323c:	0000538c 	andeq	r5, r0, ip, lsl #7
    3240:	10040400 	andne	r0, r4, r0, lsl #8
    3244:	06d40600 	ldrbeq	r0, [r4], r0, lsl #12
    3248:	8d030000 	stchi	0, cr0, [r3, #-0]
    324c:	00000053 	andeq	r0, r0, r3, asr r0
    3250:	000f0104 	andeq	r0, pc, r4, lsl #2
    3254:	000c6906 	andeq	r6, ip, r6, lsl #18
    3258:	538f0300 	orrpl	r0, pc, #0, 6
    325c:	04000000 	streq	r0, [r0], #-0
    3260:	06000e01 	streq	r0, [r0], -r1, lsl #28
    3264:	00000d4a 	andeq	r0, r0, sl, asr #26
    3268:	00539003 	subseq	r9, r3, r3
    326c:	02040000 	andeq	r0, r4, #0
    3270:	d206000c 	andle	r0, r6, #12
    3274:	0300000b 	movweq	r0, #11
    3278:	00005391 	muleq	r0, r1, r3
    327c:	0b010400 	bleq	44284 <__bss_end+0x41108>
    3280:	057d0600 	ldrbeq	r0, [sp, #-1536]!	; 0xfffffa00
    3284:	92030000 	andls	r0, r3, #0
    3288:	00000053 	andeq	r0, r0, r3, asr r0
    328c:	000a0104 	andeq	r0, sl, r4, lsl #2
    3290:	00061106 	andeq	r1, r6, r6, lsl #2
    3294:	53930300 	orrspl	r0, r3, #0, 6
    3298:	04000000 	streq	r0, [r0], #-0
    329c:	06000901 	streq	r0, [r0], -r1, lsl #18
    32a0:	00000d2f 	andeq	r0, r0, pc, lsr #26
    32a4:	00539403 	subseq	r9, r3, r3, lsl #8
    32a8:	01040000 	mrseq	r0, (UNDEF: 4)
    32ac:	54060008 	strpl	r0, [r6], #-8
    32b0:	0300000d 	movweq	r0, #13
    32b4:	00005395 	muleq	r0, r5, r3
    32b8:	07010400 	streq	r0, [r1, -r0, lsl #8]
    32bc:	0c190600 	ldceq	6, cr0, [r9], {-0}
    32c0:	96030000 	strls	r0, [r3], -r0
    32c4:	00000053 	andeq	r0, r0, r3, asr r0
    32c8:	00060104 	andeq	r0, r6, r4, lsl #2
    32cc:	000ca606 	andeq	sl, ip, r6, lsl #12
    32d0:	53970300 	orrspl	r0, r7, #0, 6
    32d4:	04000000 	streq	r0, [r0], #-0
    32d8:	06000501 	streq	r0, [r0], -r1, lsl #10
    32dc:	00000e73 	andeq	r0, r0, r3, ror lr
    32e0:	00539803 	subseq	r9, r3, r3, lsl #16
    32e4:	01040000 	mrseq	r0, (UNDEF: 4)
    32e8:	fd060004 	stc2	0, cr0, [r6, #-16]
    32ec:	0300000b 	movweq	r0, #11
    32f0:	00005399 	muleq	r0, r9, r3
    32f4:	03010400 	movweq	r0, #5120	; 0x1400
    32f8:	0d5e0600 	ldcleq	6, cr0, [lr, #-0]
    32fc:	9a030000 	bls	c3304 <__bss_end+0xc0188>
    3300:	00000053 	andeq	r0, r0, r3, asr r0
    3304:	00010204 	andeq	r0, r1, r4, lsl #4
    3308:	000cac06 	andeq	sl, ip, r6, lsl #24
    330c:	539b0300 	orrspl	r0, fp, #0, 6
    3310:	04000000 	streq	r0, [r0], #-0
    3314:	00000001 	andeq	r0, r0, r1
    3318:	00048403 	andeq	r8, r4, r3, lsl #8
    331c:	c69c0300 	ldrgt	r0, [ip], r0, lsl #6
    3320:	05000004 	streq	r0, [r0, #-4]
    3324:	5ea40304 	cdppl	3, 10, cr0, cr4, cr4, {0}
    3328:	06000006 	streq	r0, [r0], -r6
    332c:	00000fe3 	andeq	r0, r0, r3, ror #31
    3330:	0053a603 	subseq	sl, r3, r3, lsl #12
    3334:	02040000 	andeq	r0, r4, #0
    3338:	3606001e 			; <UNDEFINED> instruction: 0x3606001e
    333c:	0300000d 	movweq	r0, #13
    3340:	000053a7 	andeq	r5, r0, r7, lsr #7
    3344:	18060400 	stmdane	r6, {sl}
    3348:	0ce70600 	stcleq	6, cr0, [r7]
    334c:	a8030000 	stmdage	r3, {}	; <UNPREDICTABLE>
    3350:	00000053 	andeq	r0, r0, r3, asr r0
    3354:	00160204 	andseq	r0, r6, r4, lsl #4
    3358:	000d4006 	andeq	r4, sp, r6
    335c:	53a90300 			; <UNDEFINED> instruction: 0x53a90300
    3360:	04000000 	streq	r0, [r0], #-0
    3364:	06001006 	streq	r1, [r0], -r6
    3368:	000008c4 	andeq	r0, r0, r4, asr #17
    336c:	0053aa03 	subseq	sl, r3, r3, lsl #20
    3370:	02040000 	andeq	r0, r4, #0
    3374:	4a06000e 	bmi	1833b4 <__bss_end+0x180238>
    3378:	0300000d 	movweq	r0, #13
    337c:	000053ab 	andeq	r5, r0, fp, lsr #7
    3380:	000e0400 	andeq	r0, lr, r0, lsl #8
    3384:	04070000 	streq	r0, [r7], #-0
    3388:	067da203 	ldrbteq	sl, [sp], -r3, lsl #4
    338c:	d4080000 	strle	r0, [r8], #-0
    3390:	03000004 	movweq	r0, #4
    3394:	000053a3 	andeq	r5, r0, r3, lsr #7
    3398:	0ad20800 	beq	ff4853a0 <__bss_end+0xff482224>
    339c:	ac030000 	stcge	0, cr0, [r3], {-0}
    33a0:	000005fb 	strdeq	r0, [r0], -fp
    33a4:	05f30300 	ldrbeq	r0, [r3, #768]!	; 0x300
    33a8:	ad030000 	stcge	0, cr0, [r3, #-0]
    33ac:	0000065e 	andeq	r0, r0, lr, asr r6
    33b0:	00045409 	andeq	r5, r4, r9, lsl #8
    33b4:	b4030400 	strlt	r0, [r3], #-1024	; 0xfffffc00
    33b8:	000006fe 	strdeq	r0, [r0], -lr
    33bc:	000d3606 	andeq	r3, sp, r6, lsl #12
    33c0:	53b60300 			; <UNDEFINED> instruction: 0x53b60300
    33c4:	04000000 	streq	r0, [r0], #-0
    33c8:	06001c04 	streq	r1, [r0], -r4, lsl #24
    33cc:	00000b2a 	andeq	r0, r0, sl, lsr #22
    33d0:	0053b703 	subseq	fp, r3, r3, lsl #14
    33d4:	02040000 	andeq	r0, r4, #0
    33d8:	a606001a 			; <UNDEFINED> instruction: 0xa606001a
    33dc:	0300000f 	movweq	r0, #15
    33e0:	000053b8 			; <UNDEFINED> instruction: 0x000053b8
    33e4:	18020400 	stmdane	r2, {sl}
    33e8:	0c590600 	mrrceq	6, 0, r0, r9, cr0
    33ec:	b9030000 	stmdblt	r3, {}	; <UNPREDICTABLE>
    33f0:	00000053 	andeq	r0, r0, r3, asr r0
    33f4:	00160204 	andseq	r0, r6, r4, lsl #4
    33f8:	000d4006 	andeq	r4, sp, r6
    33fc:	53ba0300 			; <UNDEFINED> instruction: 0x53ba0300
    3400:	04000000 	streq	r0, [r0], #-0
    3404:	06001402 	streq	r1, [r0], -r2, lsl #8
    3408:	00000c44 	andeq	r0, r0, r4, asr #24
    340c:	0053bb03 	subseq	fp, r3, r3, lsl #22
    3410:	02040000 	andeq	r0, r4, #0
    3414:	4a060012 	bmi	183464 <__bss_end+0x1802e8>
    3418:	0300000d 	movweq	r0, #13
    341c:	000053bc 			; <UNDEFINED> instruction: 0x000053bc
    3420:	00120400 	andseq	r0, r2, r0, lsl #8
    3424:	ea030000 	b	c342c <__bss_end+0xc02b0>
    3428:	0300000e 	movweq	r0, #14
    342c:	000688bd 			; <UNDEFINED> instruction: 0x000688bd
    3430:	03040500 	movweq	r0, #17664	; 0x4500
    3434:	00076cc5 	andeq	r6, r7, r5, asr #25
    3438:	07e90600 	strbeq	r0, [r9, r0, lsl #12]!
    343c:	c7030000 	strgt	r0, [r3, -r0]
    3440:	00000053 	andeq	r0, r0, r3, asr r0
    3444:	001b0504 	andseq	r0, fp, r4, lsl #10
    3448:	000fda06 	andeq	sp, pc, r6, lsl #20
    344c:	53c80300 	bicpl	r0, r8, #0, 6
    3450:	04000000 	streq	r0, [r0], #-0
    3454:	0600100b 	streq	r1, [r0], -fp
    3458:	000007ee 	andeq	r0, r0, lr, ror #15
    345c:	0053c903 	subseq	ip, r3, r3, lsl #18
    3460:	02040000 	andeq	r0, r4, #0
    3464:	4006000e 	andmi	r0, r6, lr
    3468:	0300000d 	movweq	r0, #13
    346c:	000053ca 	andeq	r5, r0, sl, asr #7
    3470:	08060400 	stmdaeq	r6, {sl}
    3474:	0c480600 	mcrreq	6, 0, r0, r8, cr0
    3478:	cb030000 	blgt	c3480 <__bss_end+0xc0304>
    347c:	00000053 	andeq	r0, r0, r3, asr r0
    3480:	00060204 	andeq	r0, r6, r4, lsl #4
    3484:	000d4a06 	andeq	r4, sp, r6, lsl #20
    3488:	53cc0300 	bicpl	r0, ip, #0, 6
    348c:	04000000 	streq	r0, [r0], #-0
    3490:	00000006 	andeq	r0, r0, r6
    3494:	c3030407 	movwgt	r0, #13319	; 0x3407
    3498:	0000078b 	andeq	r0, r0, fp, lsl #15
    349c:	0004d408 	andeq	sp, r4, r8, lsl #8
    34a0:	53c40300 	bicpl	r0, r4, #0, 6
    34a4:	08000000 	stmdaeq	r0, {}	; <UNPREDICTABLE>
    34a8:	00000ad2 	ldrdeq	r0, [r0], -r2
    34ac:	0709cd03 	streq	ip, [r9, -r3, lsl #26]
    34b0:	03000000 	movweq	r0, #0
    34b4:	00000b67 	andeq	r0, r0, r7, ror #22
    34b8:	076cce03 	strbeq	ip, [ip, -r3, lsl #28]!
    34bc:	e0090000 	and	r0, r9, r0
    34c0:	04000009 	streq	r0, [r0], #-9
    34c4:	07c1d003 	strbeq	sp, [r1, r3]
    34c8:	9d060000 	stcls	0, cr0, [r6, #-0]
    34cc:	0300000f 	movweq	r0, #15
    34d0:	000053d2 	ldrdeq	r5, [r0], -r2
    34d4:	10100400 	andsne	r0, r0, r0, lsl #8
    34d8:	0fda0600 	svceq	0x00da0600
    34dc:	d3030000 	movwle	r0, #12288	; 0x3000
    34e0:	00000053 	andeq	r0, r0, r3, asr r0
    34e4:	00001004 	andeq	r1, r0, r4
    34e8:	0e300300 	cdpeq	3, 3, cr0, cr0, cr0, {0}
    34ec:	d4030000 	strle	r0, [r3], #-0
    34f0:	00000796 	muleq	r0, r6, r7
    34f4:	0010500a 	andseq	r5, r0, sl
    34f8:	0302dc00 	movweq	sp, #11264	; 0x2c00
    34fc:	000e99d6 	ldrdeq	r9, [lr], -r6
    3500:	09780b00 	ldmdbeq	r8!, {r8, r9, fp}^
    3504:	d8030000 	stmdale	r3, {}	; <UNPREDICTABLE>
    3508:	00000e99 	muleq	r0, r9, lr
    350c:	0d360b00 	vldmdbeq	r6!, {d0-d-1}
    3510:	d9030000 	stmdble	r3, {}	; <UNPREDICTABLE>
    3514:	00000e9e 	muleq	r0, lr, lr
    3518:	10480b04 	subne	r0, r8, r4, lsl #22
    351c:	da030000 	ble	c3524 <__bss_end+0xc03a8>
    3520:	00000ea3 	andeq	r0, r0, r3, lsr #29
    3524:	0d400b08 	vstreq	d16, [r0, #-32]	; 0xffffffe0
    3528:	db030000 	blle	c3530 <__bss_end+0xc03b4>
    352c:	00000e9e 	muleq	r0, lr, lr
    3530:	0b490b0c 	bleq	1246168 <__bss_end+0x1242fec>
    3534:	dc030000 	stcle	0, cr0, [r3], {-0}
    3538:	00000e9e 	muleq	r0, lr, lr
    353c:	0d4a0b10 	vstreq	d16, [sl, #-64]	; 0xffffffc0
    3540:	dd030000 	stcle	0, cr0, [r3, #-0]
    3544:	00000e9e 	muleq	r0, lr, lr
    3548:	05a70b14 	streq	r0, [r7, #2836]!	; 0xb14
    354c:	de030000 	cdple	0, 0, cr0, cr3, cr0, {0}
    3550:	00000e9e 	muleq	r0, lr, lr
    3554:	0d540b18 	vldreq	d16, [r4, #-96]	; 0xffffffa0
    3558:	df030000 	svcle	0x00030000
    355c:	00000e9e 	muleq	r0, lr, lr
    3560:	0c800b1c 	vstmiaeq	r0, {d0-d13}
    3564:	e0030000 	and	r0, r3, r0
    3568:	00000ea8 	andeq	r0, r0, r8, lsr #29
    356c:	0d5e0b20 	vldreq	d16, [lr, #-128]	; 0xffffff80
    3570:	e1030000 	mrs	r0, (UNDEF: 3)
    3574:	00000e9e 	muleq	r0, lr, lr
    3578:	053e0b24 	ldreq	r0, [lr, #-2852]!	; 0xfffff4dc
    357c:	e2030000 	and	r0, r3, #0
    3580:	00000ead 	andeq	r0, r0, sp, lsr #29
    3584:	0d680b28 	vstmdbeq	r8!, {d16-<overflow reg d35>}
    3588:	e3030000 	movw	r0, #12288	; 0x3000
    358c:	00000e9e 	muleq	r0, lr, lr
    3590:	0c750b2c 	ldcleq	11, cr0, [r5], #-176	; 0xffffff50
    3594:	e4030000 	str	r0, [r3], #-0
    3598:	00000e9e 	muleq	r0, lr, lr
    359c:	0d720b30 	vldmdbeq	r2!, {d16-<overflow reg d39>}
    35a0:	e5030000 	str	r0, [r3, #-0]
    35a4:	00000e9e 	muleq	r0, lr, lr
    35a8:	09cd0b34 	stmibeq	sp, {r2, r4, r5, r8, r9, fp}^
    35ac:	e6030000 	str	r0, [r3], -r0
    35b0:	00000eb2 			; <UNDEFINED> instruction: 0x00000eb2
    35b4:	0d7c0b38 	vldmdbeq	ip!, {d16-<overflow reg d43>}
    35b8:	e7030000 	str	r0, [r3, -r0]
    35bc:	00000e9e 	muleq	r0, lr, lr
    35c0:	072f0b3c 			; <UNDEFINED> instruction: 0x072f0b3c
    35c4:	e8030000 	stmda	r3, {}	; <UNPREDICTABLE>
    35c8:	00000eb7 			; <UNDEFINED> instruction: 0x00000eb7
    35cc:	10ba0b40 	adcsne	r0, sl, r0, asr #22
    35d0:	e9030000 	stmdb	r3, {}	; <UNPREDICTABLE>
    35d4:	00000e9e 	muleq	r0, lr, lr
    35d8:	059e0b44 	ldreq	r0, [lr, #2884]	; 0xb44
    35dc:	ea030000 	b	c35e4 <__bss_end+0xc0468>
    35e0:	00000e9e 	muleq	r0, lr, lr
    35e4:	0cc80b48 	vstmiaeq	r8, {d16-<overflow reg d51>}
    35e8:	eb030000 	bl	c35f0 <__bss_end+0xc0474>
    35ec:	00000e9e 	muleq	r0, lr, lr
    35f0:	0b510b4c 	bleq	1446328 <__bss_end+0x14431ac>
    35f4:	ec030000 	stc	0, cr0, [r3], {-0}
    35f8:	00000ebc 			; <UNDEFINED> instruction: 0x00000ebc
    35fc:	0b2a0b50 	bleq	a86344 <__bss_end+0xa831c8>
    3600:	ed030000 	stc	0, cr0, [r3, #-0]
    3604:	00000ec1 	andeq	r0, r0, r1, asr #29
    3608:	07520b54 			; <UNDEFINED> instruction: 0x07520b54
    360c:	ee030000 	cdp	0, 0, cr0, cr3, cr0, {0}
    3610:	00000ec6 	andeq	r0, r0, r6, asr #29
    3614:	0f290b58 	svceq	0x00290b58
    3618:	ef030000 	svc	0x00030000
    361c:	00000e9e 	muleq	r0, lr, lr
    3620:	0e130b5c 	mrceq	11, 0, r0, cr3, cr12, {2}
    3624:	f0030000 			; <UNDEFINED> instruction: 0xf0030000
    3628:	00000e9e 	muleq	r0, lr, lr
    362c:	093e0b60 	ldmdbeq	lr!, {r5, r6, r8, r9, fp}
    3630:	f1030000 			; <UNDEFINED> instruction: 0xf1030000
    3634:	00000e9e 	muleq	r0, lr, lr
    3638:	0fed0b64 	svceq	0x00ed0b64
    363c:	f2030000 	vhadd.s8	d0, d3, d0
    3640:	00000e9e 	muleq	r0, lr, lr
    3644:	0bd80b68 	bleq	ff6063ec <__bss_end+0xff603270>
    3648:	f3030000 	vhadd.u8	d0, d3, d0
    364c:	00000e9e 	muleq	r0, lr, lr
    3650:	0d860b6c 	vstreq	d0, [r6, #432]	; 0x1b0
    3654:	f4030000 	vst4.8	{d0-d3}, [r3], r0
    3658:	00000ee2 	andeq	r0, r0, r2, ror #29
    365c:	10780b70 	rsbsne	r0, r8, r0, ror fp
    3660:	f5030000 			; <UNDEFINED> instruction: 0xf5030000
    3664:	00000e9e 	muleq	r0, lr, lr
    3668:	0ff60b80 	svceq	0x00f60b80
    366c:	f6030000 			; <UNDEFINED> instruction: 0xf6030000
    3670:	00000e9e 	muleq	r0, lr, lr
    3674:	64530c84 	ldrbvs	r0, [r3], #-3204	; 0xfffff37c
    3678:	f7030030 			; <UNDEFINED> instruction: 0xf7030030
    367c:	00000e9e 	muleq	r0, lr, lr
    3680:	64530c88 	ldrbvs	r0, [r3], #-3208	; 0xfffff378
    3684:	f8030031 			; <UNDEFINED> instruction: 0xf8030031
    3688:	00000e9e 	muleq	r0, lr, lr
    368c:	64530c8c 	ldrbvs	r0, [r3], #-3212	; 0xfffff374
    3690:	f9030032 			; <UNDEFINED> instruction: 0xf9030032
    3694:	00000e9e 	muleq	r0, lr, lr
    3698:	10010b90 	mulne	r1, r0, fp
    369c:	fa030000 	blx	c36a4 <__bss_end+0xc0528>
    36a0:	00000ef7 	strdeq	r0, [r0], -r7
    36a4:	73530c94 	cmpvc	r3, #148, 24	; 0x9400
    36a8:	9efb0300 	cdpls	3, 15, cr0, cr11, cr0, {0}
    36ac:	9c00000e 	stcls	0, cr0, [r0], {14}
    36b0:	000e090b 	andeq	r0, lr, fp, lsl #18
    36b4:	9efc0300 	cdpls	3, 15, cr0, cr12, cr0, {0}
    36b8:	a000000e 	andge	r0, r0, lr
    36bc:	000e0e0b 	andeq	r0, lr, fp, lsl #28
    36c0:	9efd0300 	cdpls	3, 15, cr0, cr13, cr0, {0}
    36c4:	a400000e 	strge	r0, [r0], #-14
    36c8:	00100c0b 	andseq	r0, r0, fp, lsl #24
    36cc:	fcfe0300 	ldc2l	3, cr0, [lr]
    36d0:	a800000e 	stmdage	r0, {r1, r2, r3}
    36d4:	0005940b 	andeq	r9, r5, fp, lsl #8
    36d8:	9eff0300 	cdpls	3, 15, cr0, cr15, cr0, {0}
    36dc:	b000000e 	andlt	r0, r0, lr
    36e0:	0005990d 	andeq	r9, r5, sp, lsl #18
    36e4:	01000300 	mrseq	r0, LR_irq
    36e8:	00000e9e 	muleq	r0, lr, lr
    36ec:	09d50db4 	ldmibeq	r5, {r2, r4, r5, r7, r8, sl, fp}^
    36f0:	01030000 	mrseq	r0, (UNDEF: 3)
    36f4:	000f0101 	andeq	r0, pc, r1, lsl #2
    36f8:	670db800 	strvs	fp, [sp, -r0, lsl #16]
    36fc:	0300000e 	movweq	r0, #14
    3700:	0e9e0102 	fmleqe	f0, f6, f2
    3704:	0dc00000 	stcleq	0, cr0, [r0]
    3708:	00000b06 	andeq	r0, r0, r6, lsl #22
    370c:	06010303 	streq	r0, [r1], -r3, lsl #6
    3710:	c400000f 	strgt	r0, [r0], #-15
    3714:	6273550e 	rsbsvs	r5, r3, #58720256	; 0x3800000
    3718:	01040300 	mrseq	r0, LR_abt
    371c:	00000e9e 	muleq	r0, lr, lr
    3720:	0f540dcc 	svceq	0x00540dcc
    3724:	05030000 	streq	r0, [r3, #-0]
    3728:	000e9e01 	andeq	r9, lr, r1, lsl #28
    372c:	f70dd000 			; <UNDEFINED> instruction: 0xf70dd000
    3730:	03000009 	movweq	r0, #9
    3734:	0f1b0106 	svceq	0x001b0106
    3738:	0dd40000 	ldcleq	0, cr0, [r4]
    373c:	0000103c 	andeq	r1, r0, ip, lsr r0
    3740:	9e010703 	cdpls	7, 0, cr0, cr1, cr3, {0}
    3744:	f000000e 			; <UNDEFINED> instruction: 0xf000000e
    3748:	000ee20d 	andeq	lr, lr, sp, lsl #4
    374c:	01080300 	mrseq	r0, (UNDEF: 56)
    3750:	00000e9e 	muleq	r0, lr, lr
    3754:	0a340df4 	beq	d06f2c <__bss_end+0xd03db0>
    3758:	09030000 	stmdbeq	r3, {}	; <UNPREDICTABLE>
    375c:	000e9e01 	andeq	r9, lr, r1, lsl #28
    3760:	830df800 	movwhi	pc, #55296	; 0xd800	; <UNPREDICTABLE>
    3764:	0300000b 	movweq	r0, #11
    3768:	0e9e010a 	fmleqe	f0, f6, #2.0
    376c:	0ffc0000 	svceq	0x00fc0000
    3770:	00000c3b 	andeq	r0, r0, fp, lsr ip
    3774:	9e010b03 	vmlals.f64	d0, d1, d3
    3778:	0000000e 	andeq	r0, r0, lr
    377c:	65421001 	strbvs	r1, [r2, #-1]
    3780:	0c030030 	stceq	0, cr0, [r3], {48}	; 0x30
    3784:	000e9e01 	andeq	r9, lr, r1, lsl #28
    3788:	0f010400 	svceq	0x00010400
    378c:	00000b3d 	andeq	r0, r0, sp, lsr fp
    3790:	9e010d03 	cdpls	13, 0, cr0, cr1, cr3, {0}
    3794:	0800000e 	stmdaeq	r0, {r1, r2, r3}
    3798:	65461001 	strbvs	r1, [r6, #-1]
    379c:	0e030030 	mcreq	0, 0, r0, cr3, cr0, {1}
    37a0:	000e9e01 	andeq	r9, lr, r1, lsl #28
    37a4:	0f010c00 	svceq	0x00010c00
    37a8:	0000049e 	muleq	r0, lr, r4
    37ac:	9e010f03 	cdpls	15, 0, cr0, cr1, cr3, {0}
    37b0:	1000000e 	andne	r0, r0, lr
    37b4:	04aa0f01 	strteq	r0, [sl], #3841	; 0xf01
    37b8:	10030000 	andne	r0, r3, r0
    37bc:	000e9e01 	andeq	r9, lr, r1, lsl #28
    37c0:	0f011400 	svceq	0x00011400
    37c4:	00000513 	andeq	r0, r0, r3, lsl r5
    37c8:	9e011103 	adflss	f1, f1, f3
    37cc:	1800000e 	stmdane	r0, {r1, r2, r3}
    37d0:	04b60f01 	ldrteq	r0, [r6], #3841	; 0xf01
    37d4:	12030000 	andne	r0, r3, #0
    37d8:	000e9e01 	andeq	r9, lr, r1, lsl #28
    37dc:	0f011c00 	svceq	0x00011c00
    37e0:	00000a08 	andeq	r0, r0, r8, lsl #20
    37e4:	30011303 	andcc	r1, r1, r3, lsl #6
    37e8:	2000000f 	andcs	r0, r0, pc
    37ec:	051b0f01 	ldreq	r0, [fp, #-3841]	; 0xfffff0ff
    37f0:	14030000 	strne	r0, [r3], #-0
    37f4:	000e9e01 	andeq	r9, lr, r1, lsl #28
    37f8:	0f012c00 	svceq	0x00012c00
    37fc:	00000553 	andeq	r0, r0, r3, asr r5
    3800:	9e011503 	cfsh32ls	mvfx1, mvfx1, #3
    3804:	3000000e 	andcc	r0, r0, lr
    3808:	0db60f01 	ldceq	15, cr0, [r6, #4]!
    380c:	16030000 	strne	r0, [r3], -r0
    3810:	000e9e01 	andeq	r9, lr, r1, lsl #28
    3814:	0f013400 	svceq	0x00013400
    3818:	0000055f 	andeq	r0, r0, pc, asr r5
    381c:	9e011703 	cdpls	7, 0, cr1, cr1, cr3, {0}
    3820:	3800000e 	stmdacc	r0, {r1, r2, r3}
    3824:	65561001 	ldrbvs	r1, [r6, #-1]
    3828:	01180300 	tsteq	r8, r0, lsl #6
    382c:	00000e9e 	muleq	r0, lr, lr
    3830:	800f013c 	andhi	r0, pc, ip, lsr r1	; <UNPREDICTABLE>
    3834:	03000009 	movweq	r0, #9
    3838:	0e9e0119 	mrceq	1, 4, r0, cr14, cr9, {0}
    383c:	01400000 	mrseq	r0, (UNDEF: 64)
    3840:	73764110 	cmnvc	r6, #16, 2
    3844:	011a0300 	tsteq	sl, r0, lsl #6
    3848:	00000e9e 	muleq	r0, lr, lr
    384c:	6b0f0144 	blvs	3c3d64 <__bss_end+0x3c0be8>
    3850:	03000005 	movweq	r0, #5
    3854:	0e9e011b 	mrceq	1, 4, r0, cr14, cr11, {0}
    3858:	01480000 	mrseq	r0, (UNDEF: 72)
    385c:	000a130f 	andeq	r1, sl, pc, lsl #6
    3860:	011c0300 	tsteq	ip, r0, lsl #6
    3864:	00000e9e 	muleq	r0, lr, lr
    3868:	4e0f014c 	adfmiem	f0, f7, #4.0
    386c:	03000006 	movweq	r0, #6
    3870:	0e9e011d 	mrceq	1, 4, r0, cr14, cr13, {0}
    3874:	01500000 	cmpeq	r0, r0
    3878:	00065a0f 	andeq	r5, r6, pc, lsl #20
    387c:	011e0300 	tsteq	lr, r0, lsl #6
    3880:	00000e9e 	muleq	r0, lr, lr
    3884:	660f0154 			; <UNDEFINED> instruction: 0x660f0154
    3888:	03000006 	movweq	r0, #6
    388c:	0e9e011f 	mrceq	1, 4, r0, cr14, cr15, {0}
    3890:	01580000 	cmpeq	r8, r0
    3894:	0006ce0f 	andeq	ip, r6, pc, lsl #28
    3898:	01200300 			; <UNDEFINED> instruction: 0x01200300
    389c:	00000e9e 	muleq	r0, lr, lr
    38a0:	720f015c 	andvc	r0, pc, #92, 2
    38a4:	03000006 	movweq	r0, #6
    38a8:	0e9e0121 	fmleqep	f0, f6, f1
    38ac:	01600000 	cmneq	r0, r0
    38b0:	000a1e0f 	andeq	r1, sl, pc, lsl #28
    38b4:	01220300 			; <UNDEFINED> instruction: 0x01220300
    38b8:	00000e9e 	muleq	r0, lr, lr
    38bc:	dc0f0164 	stfles	f0, [pc], {100}	; 0x64
    38c0:	03000005 	movweq	r0, #5
    38c4:	0e9e0123 	fmleqep	f0, f6, f3
    38c8:	01680000 	cmneq	r8, r0
    38cc:	000f910f 	andeq	r9, pc, pc, lsl #2
    38d0:	01240300 			; <UNDEFINED> instruction: 0x01240300
    38d4:	00000e9e 	muleq	r0, lr, lr
    38d8:	290f016c 	stmdbcs	pc, {r2, r3, r5, r6, r8}	; <UNPREDICTABLE>
    38dc:	0300000a 	movweq	r0, #10
    38e0:	0f350125 	svceq	0x00350125
    38e4:	01700000 	cmneq	r0, r0
    38e8:	0008a50f 	andeq	sl, r8, pc, lsl #10
    38ec:	01260300 			; <UNDEFINED> instruction: 0x01260300
    38f0:	00000e9e 	muleq	r0, lr, lr
    38f4:	540f0180 	strpl	r0, [pc], #-384	; 38fc <__bss_end+0x780>
    38f8:	03000008 	movweq	r0, #8
    38fc:	0e9e0127 	fmleqep	f0, f6, f7
    3900:	01840000 	orreq	r0, r4, r0
    3904:	0008600f 	andeq	r6, r8, pc
    3908:	01280300 			; <UNDEFINED> instruction: 0x01280300
    390c:	00000e9e 	muleq	r0, lr, lr
    3910:	6c0f0188 	stfvss	f0, [pc], {136}	; 0x88
    3914:	03000008 	movweq	r0, #8
    3918:	0e9e0129 	fmleqep	f0, f6, #1.0
    391c:	018c0000 	orreq	r0, ip, r0
    3920:	000b320f 	andeq	r3, fp, pc, lsl #4
    3924:	012a0300 			; <UNDEFINED> instruction: 0x012a0300
    3928:	00000f3a 	andeq	r0, r0, sl, lsr pc
    392c:	9d0f0190 	stflss	f0, [pc, #-576]	; 36f4 <__bss_end+0x578>
    3930:	03000008 	movweq	r0, #8
    3934:	0e9e012b 	fmleqep	f0, f6, #3.0
    3938:	01a00000 	moveq	r0, r0
    393c:	0007cc0f 	andeq	ip, r7, pc, lsl #24
    3940:	012c0300 			; <UNDEFINED> instruction: 0x012c0300
    3944:	00000e9e 	muleq	r0, lr, lr
    3948:	900f01a4 	andls	r0, pc, r4, lsr #3
    394c:	0300000b 	movweq	r0, #11
    3950:	0e9e012d 	fmleqep	f0, f6, #5.0
    3954:	01a80000 			; <UNDEFINED> instruction: 0x01a80000
    3958:	0008f50f 	andeq	pc, r8, pc, lsl #10
    395c:	012e0300 			; <UNDEFINED> instruction: 0x012e0300
    3960:	00000e9e 	muleq	r0, lr, lr
    3964:	411001ac 	tstmi	r0, ip, lsr #3
    3968:	03007374 	movweq	r7, #884	; 0x374
    396c:	0e9e012f 	fmleqep	f0, f6, #10.0
    3970:	01b00000 	movseq	r0, r0
    3974:	000a3e0f 	andeq	r3, sl, pc, lsl #28
    3978:	01300300 	teqeq	r0, r0, lsl #6
    397c:	00000f4f 	andeq	r0, r0, pc, asr #30
    3980:	780f01b4 	stmdavc	pc, {r2, r4, r5, r7, r8}	; <UNPREDICTABLE>
    3984:	03000008 	movweq	r0, #8
    3988:	0f540131 	svceq	0x00540131
    398c:	02000000 	andeq	r0, r0, #0
    3990:	000bf90f 	andeq	pc, fp, pc, lsl #18
    3994:	01320300 	teqeq	r2, r0, lsl #6
    3998:	00000e9e 	muleq	r0, lr, lr
    399c:	ce0f0204 	cdpgt	2, 0, cr0, cr15, cr4, {0}
    39a0:	0300000f 	movweq	r0, #15
    39a4:	0f690133 	svceq	0x00690133
    39a8:	02080000 	andeq	r0, r8, #0
    39ac:	000aa60f 	andeq	sl, sl, pc, lsl #12
    39b0:	01340300 	teqeq	r4, r0, lsl #6
    39b4:	00000f7e 	andeq	r0, r0, lr, ror pc
    39b8:	290f0220 	stmdbcs	pc, {r5, r9}	; <UNPREDICTABLE>
    39bc:	03000006 	movweq	r0, #6
    39c0:	0e9e0135 	mrceq	1, 4, r0, cr14, cr5, {1}
    39c4:	02240000 	eoreq	r0, r4, #0
    39c8:	0009620f 	andeq	r6, r9, pc, lsl #4
    39cc:	01360300 	teqeq	r6, r0, lsl #6
    39d0:	00000e9e 	muleq	r0, lr, lr
    39d4:	ed0f0228 	sfm	f0, 4, [pc, #-160]	; 393c <__bss_end+0x7c0>
    39d8:	0300000a 	movweq	r0, #10
    39dc:	0e9e0137 	mrceq	1, 4, r0, cr14, cr7, {1}
    39e0:	022c0000 	eoreq	r0, ip, #0
    39e4:	000c020f 	andeq	r0, ip, pc, lsl #4
    39e8:	01380300 	teqeq	r8, r0, lsl #6
    39ec:	00000e9e 	muleq	r0, lr, lr
    39f0:	490f0230 	stmdbmi	pc, {r4, r5, r9}	; <UNPREDICTABLE>
    39f4:	0300000e 	movweq	r0, #14
    39f8:	0e9e0139 	mrceq	1, 4, r0, cr14, cr9, {1}
    39fc:	02340000 	eorseq	r0, r4, #0
    3a00:	0007620f 	andeq	r6, r7, pc, lsl #4
    3a04:	013a0300 	teqeq	sl, r0, lsl #6
    3a08:	00000e9e 	muleq	r0, lr, lr
    3a0c:	9e0f0238 	mcrls	2, 0, r0, cr15, cr8, {1}
    3a10:	03000007 	movweq	r0, #7
    3a14:	0e9e013b 	mrceq	1, 4, r0, cr14, cr11, {1}
    3a18:	023c0000 	eorseq	r0, ip, #0
    3a1c:	000aaf0f 	andeq	sl, sl, pc, lsl #30
    3a20:	013c0300 	teqeq	ip, r0, lsl #6
    3a24:	00000e9e 	muleq	r0, lr, lr
    3a28:	a40f0240 	strge	r0, [pc], #-576	; 3a30 <__bss_end+0x8b4>
    3a2c:	03000006 	movweq	r0, #6
    3a30:	0e9e013d 	mrceq	1, 4, r0, cr14, cr13, {1}
    3a34:	02440000 	subeq	r0, r4, #0
    3a38:	000c4f0f 	andeq	r4, ip, pc, lsl #30
    3a3c:	013e0300 	teqeq	lr, r0, lsl #6
    3a40:	00000e9e 	muleq	r0, lr, lr
    3a44:	b30f0248 	movwlt	r0, #62024	; 0xf248
    3a48:	0300000e 	movweq	r0, #14
    3a4c:	0e9e013f 	mrceq	1, 4, r0, cr14, cr15, {1}
    3a50:	024c0000 	subeq	r0, ip, #0
    3a54:	0006c60f 	andeq	ip, r6, pc, lsl #12
    3a58:	01400300 	mrseq	r0, SPSR_irq
    3a5c:	00000e9e 	muleq	r0, lr, lr
    3a60:	6e0f0250 	mcrvs	2, 0, r0, cr15, cr0, {2}
    3a64:	03000007 	movweq	r0, #7
    3a68:	0f830141 	svceq	0x00830141
    3a6c:	02540000 	subseq	r0, r4, #0
    3a70:	000af70f 	andeq	pc, sl, pc, lsl #14
    3a74:	01420300 	mrseq	r0, SPSR_svc
    3a78:	00000e9e 	muleq	r0, lr, lr
    3a7c:	7a0f0260 	bvc	3c4404 <__bss_end+0x3c1288>
    3a80:	03000007 	movweq	r0, #7
    3a84:	0f880143 	svceq	0x00880143
    3a88:	02640000 	rsbeq	r0, r4, #0
    3a8c:	000ac70f 	andeq	ip, sl, pc, lsl #14
    3a90:	01440300 	mrseq	r0, SPSR_abt
    3a94:	00000e9e 	muleq	r0, lr, lr
    3a98:	860f0270 			; <UNDEFINED> instruction: 0x860f0270
    3a9c:	03000007 	movweq	r0, #7
    3aa0:	0f8d0145 	svceq	0x008d0145
    3aa4:	02740000 	rsbseq	r0, r4, #0
    3aa8:	000abb0f 	andeq	fp, sl, pc, lsl #22
    3aac:	01460300 	mrseq	r0, SPSR_und
    3ab0:	00000e9e 	muleq	r0, lr, lr
    3ab4:	f20f0280 	vhsub.s8	d0, d31, d0
    3ab8:	0300000d 	movweq	r0, #13
    3abc:	0e9e0147 	fmleqem	f0, f6, f7
    3ac0:	02840000 	addeq	r0, r4, #0
    3ac4:	000fb10f 	andeq	fp, pc, pc, lsl #2
    3ac8:	01480300 	mrseq	r0, (UNDEF: 120)
    3acc:	00000e9e 	muleq	r0, lr, lr
    3ad0:	c10f0288 	smlabbgt	pc, r8, r2, r0	; <UNPREDICTABLE>
    3ad4:	0300000f 	movweq	r0, #15
    3ad8:	0e9e0149 	fmleqem	f0, f6, #1.0
    3adc:	028c0000 	addeq	r0, ip, #0
    3ae0:	0004440f 	andeq	r4, r4, pc, lsl #8
    3ae4:	014a0300 	mrseq	r0, (UNDEF: 122)
    3ae8:	00000e9e 	muleq	r0, lr, lr
    3aec:	1c0f0290 	sfmne	f0, 4, [pc], {144}	; 0x90
    3af0:	0300000e 	movweq	r0, #14
    3af4:	0f92014b 	svceq	0x0092014b
    3af8:	02940000 	addseq	r0, r4, #0
    3afc:	0007d30f 	andeq	sp, r7, pc, lsl #6
    3b00:	014c0300 	mrseq	r0, SPSR_mon
    3b04:	00000e9e 	muleq	r0, lr, lr
    3b08:	520f029c 	andpl	r0, pc, #156, 4	; 0xc0000009
    3b0c:	0300000a 	movweq	r0, #10
    3b10:	0e9e014d 	fmleqem	f0, f6, #5.0
    3b14:	02a00000 	adceq	r0, r0, #0
    3b18:	00067e0f 	andeq	r7, r6, pc, lsl #28
    3b1c:	014e0300 	mrseq	r0, SPSR_hyp
    3b20:	00000e9e 	muleq	r0, lr, lr
    3b24:	9c0f02a4 	sfmls	f0, 4, [pc], {164}	; 0xa4
    3b28:	0300000d 	movweq	r0, #13
    3b2c:	0e9e014f 	fmleqem	f0, f6, #10.0
    3b30:	02a80000 	adceq	r0, r8, #0
    3b34:	000f690f 	andeq	r6, pc, pc, lsl #18
    3b38:	01500300 	cmpeq	r0, r0, lsl #6
    3b3c:	00000e9e 	muleq	r0, lr, lr
    3b40:	7d0f02ac 	sfmvc	f0, 4, [pc, #-688]	; 3898 <__bss_end+0x71c>
    3b44:	0300000f 	movweq	r0, #15
    3b48:	0e9e0151 	mrceq	1, 4, r0, cr14, cr1, {2}
    3b4c:	02b00000 	adcseq	r0, r0, #0
    3b50:	0007920f 	andeq	r9, r7, pc, lsl #4
    3b54:	01520300 	cmpeq	r2, r0, lsl #6
    3b58:	00000f97 	muleq	r0, r7, pc	; <UNPREDICTABLE>
    3b5c:	9e0f02b4 	mcrls	2, 0, r0, cr15, cr4, {5}
    3b60:	0300000b 	movweq	r0, #11
    3b64:	0e9e0153 	mrceq	1, 4, r0, cr14, cr3, {2}
    3b68:	02c00000 	sbceq	r0, r0, #0
    3b6c:	000ba80f 	andeq	sl, fp, pc, lsl #16
    3b70:	01540300 	cmpeq	r4, r0, lsl #6
    3b74:	00000e9e 	muleq	r0, lr, lr
    3b78:	b20f02c4 	andlt	r0, pc, #196, 4	; 0x4000000c
    3b7c:	0300000b 	movweq	r0, #11
    3b80:	0e9e0155 	mrceq	1, 4, r0, cr14, cr5, {2}
    3b84:	02c80000 	sbceq	r0, r8, #0
    3b88:	000ad70f 	andeq	sp, sl, pc, lsl #14
    3b8c:	01560300 	cmpeq	r6, r0, lsl #6
    3b90:	00000e9e 	muleq	r0, lr, lr
    3b94:	120f02cc 	andne	r0, pc, #204, 4	; 0xc000000c
    3b98:	0300000d 	movweq	r0, #13
    3b9c:	0e9e0157 	mrceq	1, 4, r0, cr14, cr7, {2}
    3ba0:	02d00000 	sbcseq	r0, r0, #0
    3ba4:	000ae20f 	andeq	lr, sl, pc, lsl #4
    3ba8:	01580300 	cmpeq	r8, r0, lsl #6
    3bac:	00000e9e 	muleq	r0, lr, lr
    3bb0:	230f02d4 	movwcs	r0, #62164	; 0xf2d4
    3bb4:	03000008 	movweq	r0, #8
    3bb8:	0e9e0159 	mrceq	1, 4, r0, cr14, cr9, {2}
    3bbc:	02d80000 	sbcseq	r0, r8, #0
    3bc0:	015e1100 	cmpeq	lr, r0, lsl #2
    3bc4:	53110000 	tstpl	r1, #0
    3bc8:	11000000 	mrsne	r0, (UNDEF: 0)
    3bcc:	0000021b 	andeq	r0, r0, fp, lsl r2
    3bd0:	0002f611 	andeq	pc, r2, r1, lsl r6	; <UNPREDICTABLE>
    3bd4:	03ef1100 	mvneq	r1, #0, 2
    3bd8:	bb110000 	bllt	443be0 <__bss_end+0x440a64>
    3bdc:	11000004 	tstne	r0, r4
    3be0:	000005f0 	strdeq	r0, [r0], -r0	; <UNPREDICTABLE>
    3be4:	00067d11 	andeq	r7, r6, r1, lsl sp
    3be8:	06fe1100 	ldrbteq	r1, [lr], r0, lsl #2
    3bec:	8b110000 	blhi	443bf4 <__bss_end+0x440a78>
    3bf0:	12000007 	andne	r0, r0, #7
    3bf4:	00000053 	andeq	r0, r0, r3, asr r0
    3bf8:	00000edb 	ldrdeq	r0, [r0], -fp
    3bfc:	000edb13 	andeq	sp, lr, r3, lsl fp
    3c00:	02000300 	andeq	r0, r0, #0, 6
    3c04:	022f0704 	eoreq	r0, pc, #4, 14	; 0x100000
    3c08:	cb110000 	blgt	443c10 <__bss_end+0x440a94>
    3c0c:	1200000e 	andne	r0, r0, #14
    3c10:	00000053 	andeq	r0, r0, r3, asr r0
    3c14:	00000ef7 	strdeq	r0, [r0], -r7
    3c18:	000edb13 	andeq	sp, lr, r3, lsl fp
    3c1c:	11000100 	mrsne	r0, (UNDEF: 16)
    3c20:	00000ee7 	andeq	r0, r0, r7, ror #29
    3c24:	000ee711 	andeq	lr, lr, r1, lsl r7
    3c28:	0ee71100 	cdpeq	1, 14, cr1, cr7, cr0, {0}
    3c2c:	e7110000 	ldr	r0, [r1, -r0]
    3c30:	1200000e 	andne	r0, r0, #14
    3c34:	00000053 	andeq	r0, r0, r3, asr r0
    3c38:	00000f1b 	andeq	r0, r0, fp, lsl pc
    3c3c:	000edb13 	andeq	sp, lr, r3, lsl fp
    3c40:	11000600 	tstne	r0, r0, lsl #12
    3c44:	00000f0b 	andeq	r0, r0, fp, lsl #30
    3c48:	00005312 	andeq	r5, r0, r2, lsl r3
    3c4c:	000f3000 	andeq	r3, pc, r0
    3c50:	0edb1300 	cdpeq	3, 13, cr1, cr11, cr0, {0}
    3c54:	00020000 	andeq	r0, r2, r0
    3c58:	000f2011 	andeq	r2, pc, r1, lsl r0	; <UNPREDICTABLE>
    3c5c:	0ecb1100 	poleqe	f1, f3, f0
    3c60:	cb110000 	blgt	443c68 <__bss_end+0x440aec>
    3c64:	1200000e 	andne	r0, r0, #14
    3c68:	00000053 	andeq	r0, r0, r3, asr r0
    3c6c:	00000f4f 	andeq	r0, r0, pc, asr #30
    3c70:	000edb13 	andeq	sp, lr, r3, lsl fp
    3c74:	11001200 	mrsne	r1, R8_usr
    3c78:	00000f3f 	andeq	r0, r0, pc, lsr pc
    3c7c:	0007c111 	andeq	ip, r7, r1, lsl r1
    3c80:	00531200 	subseq	r1, r3, r0, lsl #4
    3c84:	0f690000 	svceq	0x00690000
    3c88:	db130000 	blle	4c3c90 <__bss_end+0x4c0b14>
    3c8c:	0500000e 	streq	r0, [r0, #-14]
    3c90:	0f591100 	svceq	0x00591100
    3c94:	53120000 	tstpl	r2, #0
    3c98:	7e000000 	cdpvc	0, 0, cr0, cr0, cr0, {0}
    3c9c:	1300000f 	movwne	r0, #15
    3ca0:	00000edb 	ldrdeq	r0, [r0], -fp
    3ca4:	6e110000 	cdpvs	0, 1, cr0, cr1, cr0, {0}
    3ca8:	1100000f 	tstne	r0, pc
    3cac:	00000f20 	andeq	r0, r0, r0, lsr #30
    3cb0:	000f2011 	andeq	r2, pc, r1, lsl r0	; <UNPREDICTABLE>
    3cb4:	0f201100 	svceq	0x00201100
    3cb8:	e7110000 	ldr	r0, [r1, -r0]
    3cbc:	1100000e 	tstne	r0, lr
    3cc0:	00000f20 	andeq	r0, r0, r0, lsr #30
    3cc4:	000e9614 	andeq	r9, lr, r4, lsl r6
    3cc8:	015a0300 	cmpeq	sl, r0, lsl #6
    3ccc:	000007cc 	andeq	r0, r0, ip, asr #15
    3cd0:	0f9c0415 	svceq	0x009c0415
    3cd4:	0b160000 	bleq	583cdc <__bss_end+0x580b60>
    3cd8:	04000002 	streq	r0, [r0], #-2
    3cdc:	0000005e 	andeq	r0, r0, lr, asr r0
    3ce0:	103d8906 	eorsne	r8, sp, r6, lsl #18
    3ce4:	d4170000 	ldrle	r0, [r7], #-0
    3ce8:	00000000 	andeq	r0, r0, r0
    3cec:	00012917 	andeq	r2, r1, r7, lsl r9
    3cf0:	e1170100 	tst	r7, r0, lsl #2
    3cf4:	02000000 	andeq	r0, r0, #0
    3cf8:	00010617 	andeq	r0, r1, r7, lsl r6
    3cfc:	53170300 	tstpl	r7, #0, 6
    3d00:	04000002 	streq	r0, [r0], #-2
    3d04:	0001d217 	andeq	sp, r1, r7, lsl r2
    3d08:	ba170500 	blt	5c5110 <__bss_end+0x5c1f94>
    3d0c:	06000001 	streq	r0, [r0], -r1
    3d10:	0001f517 	andeq	pc, r1, r7, lsl r5	; <UNPREDICTABLE>
    3d14:	c8170700 	ldmdagt	r7, {r8, r9, sl}
    3d18:	08000000 	stmdaeq	r0, {}	; <UNPREDICTABLE>
    3d1c:	0000fb17 	andeq	pc, r0, r7, lsl fp	; <UNPREDICTABLE>
    3d20:	c7170900 	ldrgt	r0, [r7, -r0, lsl #18]
    3d24:	0a000001 	beq	3d30 <__bss_end+0xbb4>
    3d28:	00026d17 	andeq	r6, r2, r7, lsl sp
    3d2c:	05170b00 	ldreq	r0, [r7, #-2816]	; 0xfffff500
    3d30:	0c000002 	stceq	0, cr0, [r0], {2}
    3d34:	00022117 	andeq	r2, r2, r7, lsl r1
    3d38:	1a170d00 	bne	5c7140 <__bss_end+0x5c3fc4>
    3d3c:	0e000003 	cdpeq	0, 0, cr0, cr0, cr3, {0}
    3d40:	00025f17 	andeq	r5, r2, r7, lsl pc
    3d44:	ea170f00 	b	5c794c <__bss_end+0x5c47d0>
    3d48:	10000002 	andne	r0, r0, r2
    3d4c:	00024617 	andeq	r4, r2, r7, lsl r6
    3d50:	04171100 	ldreq	r1, [r7], #-256	; 0xffffff00
    3d54:	12000003 	andne	r0, r0, #3
    3d58:	0000ee17 	andeq	lr, r0, r7, lsl lr
    3d5c:	cf171300 	svcgt	0x00171300
    3d60:	14000002 	strne	r0, [r0], #-2
    3d64:	08010200 	stmdaeq	r1, {r9}
    3d68:	0000011b 	andeq	r0, r0, fp, lsl r1
    3d6c:	e3070402 	movw	r0, #29698	; 0x7402
    3d70:	18000001 	stmdane	r0, {r0}
    3d74:	0000162c 	andeq	r1, r0, ip, lsr #12
    3d78:	01012501 	tsteq	r1, r1, lsl #10
    3d7c:	00001093 	muleq	r0, r3, r0
    3d80:	0016e219 	andseq	lr, r6, r9, lsl r2
    3d84:	01250100 			; <UNDEFINED> instruction: 0x01250100
    3d88:	00000053 	andeq	r0, r0, r3, asr r0
    3d8c:	0016ab19 	andseq	sl, r6, r9, lsl fp
    3d90:	01250100 			; <UNDEFINED> instruction: 0x01250100
    3d94:	00000053 	andeq	r0, r0, r3, asr r0
    3d98:	00178b1a 	andseq	r8, r7, sl, lsl fp
    3d9c:	01270100 			; <UNDEFINED> instruction: 0x01270100
    3da0:	00000053 	andeq	r0, r0, r3, asr r0
    3da4:	0100691b 	tsteq	r0, fp, lsl r9
    3da8:	00530128 	subseq	r0, r3, r8, lsr #2
    3dac:	721b0000 	andsvc	r0, fp, #0
    3db0:	01006765 	tsteq	r0, r5, ror #14
    3db4:	10930129 	addsne	r0, r3, r9, lsr #2
    3db8:	15000000 	strne	r0, [r0, #-0]
    3dbc:	00109904 	andseq	r9, r0, r4, lsl #18
    3dc0:	005e1100 	subseq	r1, lr, r0, lsl #2
    3dc4:	1d1c0000 	ldcne	0, cr0, [ip, #-0]
    3dc8:	01000016 	tsteq	r0, r6, lsl r0
    3dcc:	0000531c 	andeq	r5, r0, ip, lsl r3
    3dd0:	11050100 	mrsne	r0, (UNDEF: 21)
    3dd4:	e21d0000 	ands	r0, sp, #0
    3dd8:	01000016 	tsteq	r0, r6, lsl r0
    3ddc:	0000531c 	andeq	r5, r0, ip, lsl r3
    3de0:	167a1e00 	ldrbtne	r1, [sl], -r0, lsl #28
    3de4:	1e010000 	cdpne	0, 0, cr0, cr1, cr0, {0}
    3de8:	00000053 	andeq	r0, r0, r3, asr r0
    3dec:	00169e1e 	andseq	r9, r6, lr, lsl lr
    3df0:	531f0100 	tstpl	pc, #0, 2
    3df4:	1f000000 	svcne	0x00000000
    3df8:	00676572 	rsbeq	r6, r7, r2, ror r5
    3dfc:	10932101 	addsne	r2, r3, r1, lsl #2
    3e00:	c61e0000 	ldrgt	r0, [lr], -r0
    3e04:	01000016 	tsteq	r0, r6, lsl r0
    3e08:	000fa822 	andeq	sl, pc, r2, lsr #16
    3e0c:	176c1e00 	strbne	r1, [ip, -r0, lsl #28]!
    3e10:	23010000 	movwcs	r0, #4096	; 0x1000
    3e14:	0000078b 	andeq	r0, r0, fp, lsl #15
    3e18:	00178b1e 	andseq	r8, r7, lr, lsl fp
    3e1c:	53250100 			; <UNDEFINED> instruction: 0x53250100
    3e20:	1f000000 	svcne	0x00000000
    3e24:	26010069 	strcs	r0, [r1], -r9, rrx
    3e28:	00000053 	andeq	r0, r0, r3, asr r0
    3e2c:	17561800 	ldrbne	r1, [r6, -r0, lsl #16]
    3e30:	67010000 	strvs	r0, [r1, -r0]
    3e34:	111d0101 	tstne	sp, r1, lsl #2
    3e38:	63200000 	nopvs	{0}	; <UNPREDICTABLE>
    3e3c:	01670100 	cmneq	r7, r0, lsl #2
    3e40:	0000103d 	andeq	r1, r0, sp, lsr r0
    3e44:	17752100 	ldrbne	r2, [r5, -r0, lsl #2]!
    3e48:	73010000 	movwvc	r0, #4096	; 0x1000
    3e4c:	00103d01 	andseq	r3, r0, r1, lsl #26
    3e50:	113b0100 	teqne	fp, r0, lsl #2
    3e54:	541a0000 	ldrpl	r0, [sl], #-0
    3e58:	01000016 	tsteq	r0, r6, lsl r0
    3e5c:	00530175 	subseq	r0, r3, r5, ror r1
    3e60:	22000000 	andcs	r0, r0, #0
    3e64:	000016ce 	andeq	r1, r0, lr, asr #13
    3e68:	0101a401 	tsteq	r1, r1, lsl #8
    3e6c:	0016eb22 	andseq	lr, r6, r2, lsr #22
    3e70:	01ab0100 			; <UNDEFINED> instruction: 0x01ab0100
    3e74:	168e1801 	strne	r1, [lr], r1, lsl #16
    3e78:	d1010000 	mrsle	r0, (UNDEF: 1)
    3e7c:	11650101 	cmnne	r5, r1, lsl #2
    3e80:	63200000 	nopvs	{0}	; <UNPREDICTABLE>
    3e84:	01d10100 	bicseq	r0, r1, r0, lsl #2
    3e88:	0000103d 	andeq	r1, r0, sp, lsr r0
    3e8c:	166a2100 	strbtne	r2, [sl], -r0, lsl #2
    3e90:	dd010000 	stcle	0, cr0, [r1, #-0]
    3e94:	00103d01 	andseq	r3, r0, r1, lsl #26
    3e98:	11830100 	orrne	r0, r3, r0, lsl #2
    3e9c:	541a0000 	ldrpl	r0, [sl], #-0
    3ea0:	01000016 	tsteq	r0, r6, lsl r0
    3ea4:	005301df 	ldrsbeq	r0, [r3], #-31	; 0xffffffe1
    3ea8:	23000000 	movwcs	r0, #0
    3eac:	0000109e 	muleq	r0, lr, r0
    3eb0:	0000155c 	andeq	r1, r0, ip, asr r5
    3eb4:	000000ac 	andeq	r0, r0, ip, lsr #1
    3eb8:	123c9c01 	eorsne	r9, ip, #256	; 0x100
    3ebc:	ae240000 	cdpge	0, 2, cr0, cr4, cr0, {0}
    3ec0:	12000010 	andne	r0, r0, #16
    3ec4:	25000005 	strcs	r0, [r0, #-5]
    3ec8:	000010b9 	strheq	r1, [r0], -r9
    3ecc:	0000053e 	andeq	r0, r0, lr, lsr r5
    3ed0:	0010c425 	andseq	ip, r0, r5, lsr #8
    3ed4:	00055d00 	andeq	r5, r5, r0, lsl #26
    3ed8:	10cf2500 	sbcne	r2, pc, r0, lsl #10
    3edc:	05870000 	streq	r0, [r7]
    3ee0:	da250000 	ble	943ee8 <__bss_end+0x940d6c>
    3ee4:	bb000010 	bllt	3f2c <__bss_end+0xdb0>
    3ee8:	25000005 	strcs	r0, [r0, #-5]
    3eec:	000010e5 	andeq	r1, r0, r5, ror #1
    3ef0:	000005da 	ldrdeq	r0, [r0], -sl
    3ef4:	0010f026 	andseq	pc, r0, r6, lsr #32
    3ef8:	fb260000 	blx	983f02 <__bss_end+0x980d86>
    3efc:	00000010 	andeq	r0, r0, r0, lsl r0
    3f00:	00000027 	andeq	r0, r0, r7, lsr #32
    3f04:	00121a00 	andseq	r1, r2, r0, lsl #20
    3f08:	10ae2800 	adcne	r2, lr, r0, lsl #16
    3f0c:	f3040000 	vhadd.u8	d0, d4, d0
    3f10:	299f5001 	ldmibcs	pc, {r0, ip, lr}	; <UNPREDICTABLE>
    3f14:	00000000 	andeq	r0, r0, r0
    3f18:	0010b92a 	andseq	fp, r0, sl, lsr #18
    3f1c:	10c42a00 	sbcne	r2, r4, r0, lsl #20
    3f20:	cf2b0000 	svcgt	0x002b0000
    3f24:	d8000010 	stmdale	r0, {r4}
    3f28:	7f8e8885 	svcvc	0x008e8885
    3f2c:	0010da2a 	andseq	sp, r0, sl, lsr #20
    3f30:	10e52a00 	rscne	r2, r5, r0, lsl #20
    3f34:	f02a0000 			; <UNDEFINED> instruction: 0xf02a0000
    3f38:	2a000010 	bcs	3f80 <__bss_end+0xe04>
    3f3c:	000010fb 	strdeq	r1, [r0], -fp
    3f40:	682c0000 	stmdavs	ip!, {}	; <UNPREDICTABLE>
    3f44:	ee000015 	mcr	0, 0, r0, cr0, cr5, {0}
    3f48:	2c000015 	stccs	0, cr0, [r0], {21}
    3f4c:	000015e0 	andeq	r1, r0, r0, ror #11
    3f50:	000015f9 	strdeq	r1, [r0], -r9
    3f54:	0015e82d 	andseq	lr, r5, sp, lsr #16
    3f58:	00160400 	andseq	r0, r6, r0, lsl #8
    3f5c:	50012e00 	andpl	r2, r1, r0, lsl #28
    3f60:	00003101 	andeq	r3, r0, r1, lsl #2
    3f64:	0017902f 	andseq	r9, r7, pc, lsr #32
    3f68:	013d0100 	teqeq	sp, r0, lsl #2
    3f6c:	00001608 	andeq	r1, r0, r8, lsl #12
    3f70:	00000034 	andeq	r0, r0, r4, lsr r0
    3f74:	12639c01 	rsbne	r9, r3, #256	; 0x100
    3f78:	44300000 	ldrtmi	r0, [r0], #-0
    3f7c:	1c000011 	stcne	0, cr0, [r0], {17}
    3f80:	20000016 	andcs	r0, r0, r6, lsl r0
    3f84:	01000000 	mrseq	r0, (UNDEF: 0)
    3f88:	2f000146 	svccs	0x00000146
    3f8c:	000009bb 			; <UNDEFINED> instruction: 0x000009bb
    3f90:	3c014b01 	stccc	11, cr4, [r1], {1}
    3f94:	a0000016 	andge	r0, r0, r6, lsl r0
    3f98:	01000000 	mrseq	r0, (UNDEF: 0)
    3f9c:	0013189c 	mulseq	r3, ip, r8
    3fa0:	16ab3100 	strtne	r3, [fp], r0, lsl #2
    3fa4:	4b010000 	blmi	43fac <__bss_end+0x40e30>
    3fa8:	00005301 	andeq	r5, r0, r1, lsl #6
    3fac:	0005ed00 	andeq	lr, r5, r0, lsl #26
    3fb0:	66643200 	strbtvs	r3, [r4], -r0, lsl #4
    3fb4:	014d0100 	mrseq	r0, (UNDEF: 93)
    3fb8:	00000053 	andeq	r0, r0, r3, asr r0
    3fbc:	0000060e 	andeq	r0, r0, lr, lsl #12
    3fc0:	72636c32 	rsbvc	r6, r3, #12800	; 0x3200
    3fc4:	014e0100 	mrseq	r0, (UNDEF: 94)
    3fc8:	00000053 	andeq	r0, r0, r3, asr r0
    3fcc:	00000631 	andeq	r0, r0, r1, lsr r6
    3fd0:	00169e33 	andseq	r9, r6, r3, lsr lr
    3fd4:	014f0100 	mrseq	r0, (UNDEF: 95)
    3fd8:	00000053 	andeq	r0, r0, r3, asr r0
    3fdc:	00000645 	andeq	r0, r0, r5, asr #12
    3fe0:	00104b34 	andseq	r4, r0, r4, lsr fp
    3fe4:	00163c00 	andseq	r3, r6, r0, lsl #24
    3fe8:	00003800 	andeq	r3, r0, r0, lsl #16
    3fec:	01510100 	cmpeq	r1, r0, lsl #2
    3ff0:	000012f7 	strdeq	r1, [r0], -r7
    3ff4:	00106424 	andseq	r6, r0, r4, lsr #8
    3ff8:	00067300 	andeq	r7, r6, r0, lsl #6
    3ffc:	10583500 	subsne	r3, r8, r0, lsl #10
    4000:	29000000 	stmdbcs	r0, {}	; <UNPREDICTABLE>
    4004:	00000038 	andeq	r0, r0, r8, lsr r0
    4008:	00107026 	andseq	r7, r0, r6, lsr #32
    400c:	7c260000 	stcvc	0, cr0, [r6], #-0
    4010:	00000010 	andeq	r0, r0, r0, lsl r0
    4014:	00108636 	andseq	r8, r0, r6, lsr r6
    4018:	c208b400 	andgt	fp, r8, #0, 8
    401c:	30000001 	andcc	r0, r0, r1
    4020:	0000113b 	andeq	r1, r0, fp, lsr r1
    4024:	000016a0 	andeq	r1, r0, r0, lsr #13
    4028:	00000060 	andeq	r0, r0, r0, rrx
    402c:	2d016301 	stccs	3, cr6, [r1, #-4]
    4030:	0000167c 	andeq	r1, r0, ip, ror r6
    4034:	0000109e 	muleq	r0, lr, r0
    4038:	0250012e 	subseq	r0, r0, #-2147483637	; 0x8000000b
    403c:	00000078 	andeq	r0, r0, r8, ror r0
    4040:	0007ba37 	andeq	fp, r7, r7, lsr sl
    4044:	017c0100 	cmneq	ip, r0, lsl #2
    4048:	00000041 	andeq	r0, r0, r1, asr #32
    404c:	000016dc 	ldrdeq	r1, [r0], -ip
    4050:	000000a8 	andeq	r0, r0, r8, lsr #1
    4054:	13779c01 	cmnne	r7, #256	; 0x100
    4058:	46310000 	ldrtmi	r0, [r1], -r0
    405c:	01000018 	tsteq	r0, r8, lsl r0
    4060:	1377017c 	cmnne	r7, #124, 2
    4064:	06940000 	ldreq	r0, [r4], r0
    4068:	05340000 	ldreq	r0, [r4, #-0]!
    406c:	fc000011 	stc2	0, cr0, [r0], {17}
    4070:	80000016 	andhi	r0, r0, r6, lsl r0
    4074:	01000000 	mrseq	r0, (UNDEF: 0)
    4078:	135c018a 	cmpne	ip, #-2147483614	; 0x80000022
    407c:	12380000 	eorsne	r0, r8, #0
    4080:	00000011 	andeq	r0, r0, r1, lsl r0
    4084:	00110539 	andseq	r0, r1, r9, lsr r5
    4088:	00171c00 	andseq	r1, r7, r0, lsl #24
    408c:	00002000 	andeq	r2, r0, r0
    4090:	018c0100 	orreq	r0, ip, r0, lsl #2
    4094:	00111224 	andseq	r1, r1, r4, lsr #4
    4098:	0006f100 	andeq	pc, r6, r0, lsl #2
    409c:	15000000 	strne	r0, [r0, #-0]
    40a0:	00137d04 	andseq	r7, r3, r4, lsl #26
    40a4:	103d3a00 	eorsne	r3, sp, r0, lsl #20
    40a8:	ff370000 			; <UNDEFINED> instruction: 0xff370000
    40ac:	01000016 	tsteq	r0, r6, lsl r0
    40b0:	00530192 			; <UNDEFINED> instruction: 0x00530192
    40b4:	17840000 	strne	r0, [r4, r0]
    40b8:	00940000 	addseq	r0, r4, r0
    40bc:	9c010000 	stcls	0, cr0, [r1], {-0}
    40c0:	000013f5 	strdeq	r1, [r0], -r5
    40c4:	6675623b 			; <UNDEFINED> instruction: 0x6675623b
    40c8:	01920100 	orrseq	r0, r2, r0, lsl #2
    40cc:	000013f5 	strdeq	r1, [r0], -r5
    40d0:	00000704 	andeq	r0, r0, r4, lsl #14
    40d4:	01006e3c 	tsteq	r0, ip, lsr lr
    40d8:	00530192 			; <UNDEFINED> instruction: 0x00530192
    40dc:	51010000 	mrspl	r0, (UNDEF: 1)
    40e0:	01006932 	tsteq	r0, r2, lsr r9
    40e4:	00530194 			; <UNDEFINED> instruction: 0x00530194
    40e8:	07570000 	ldrbeq	r0, [r7, -r0]
    40ec:	63320000 	teqvs	r2, #0
    40f0:	01950100 	orrseq	r0, r5, r0, lsl #2
    40f4:	0000103d 	andeq	r1, r0, sp, lsr r0
    40f8:	000007bf 			; <UNDEFINED> instruction: 0x000007bf
    40fc:	00111d3d 	andseq	r1, r1, sp, lsr sp
    4100:	0017a800 	andseq	sl, r7, r0, lsl #16
    4104:	0000a000 	andeq	sl, r0, r0
    4108:	019c0100 	orrseq	r0, ip, r0, lsl #2
    410c:	0000a029 	andeq	sl, r0, r9, lsr #32
    4110:	112e2500 			; <UNDEFINED> instruction: 0x112e2500
    4114:	07df0000 	ldrbeq	r0, [pc, r0]
    4118:	00000000 	andeq	r0, r0, r0
    411c:	3d041500 	cfstr32cc	mvfx1, [r4, #-0]
    4120:	3e000010 	mcrcc	0, 0, r0, cr0, cr0, {0}
    4124:	0000113b 	andeq	r1, r0, fp, lsr r1
    4128:	00001818 	andeq	r1, r0, r8, lsl r8
    412c:	00000014 	andeq	r0, r0, r4, lsl r0
    4130:	443e9c01 	ldrtmi	r9, [lr], #-3073	; 0xfffff3ff
    4134:	2c000011 	stccs	0, cr0, [r0], {17}
    4138:	14000018 	strne	r0, [r0], #-24	; 0xffffffe8
    413c:	01000000 	mrseq	r0, (UNDEF: 0)
    4140:	16482f9c 			; <UNDEFINED> instruction: 0x16482f9c
    4144:	b1010000 	mrslt	r0, (UNDEF: 1)
    4148:	00184001 	andseq	r4, r8, r1
    414c:	0000a800 	andeq	sl, r0, r0, lsl #16
    4150:	cd9c0100 	ldfgts	f0, [ip]
    4154:	31000014 	tstcc	r0, r4, lsl r0
    4158:	000016ab 	andeq	r1, r0, fp, lsr #13
    415c:	5301b101 	movwpl	fp, #4353	; 0x1101
    4160:	15000000 	strne	r0, [r0, #-0]
    4164:	33000008 	movwcc	r0, #8
    4168:	0000169e 	muleq	r0, lr, r6
    416c:	5301b401 	movwpl	fp, #5121	; 0x1401
    4170:	36000000 	strcc	r0, [r0], -r0
    4174:	32000008 	andcc	r0, r0, #8
    4178:	01006664 	tsteq	r0, r4, ror #12
    417c:	005301b5 	ldrheq	r0, [r3], #-21	; 0xffffffeb
    4180:	08640000 	stmdaeq	r4!, {}^	; <UNPREDICTABLE>
    4184:	6c320000 	ldcvs	0, cr0, [r2], #-0
    4188:	01007263 	tsteq	r0, r3, ror #4
    418c:	005301b6 	ldrheq	r0, [r3], #-22	; 0xffffffea
    4190:	08870000 	stmeq	r7, {}	; <UNPREDICTABLE>
    4194:	4b340000 	blmi	d0419c <__bss_end+0xd01020>
    4198:	40000010 	andmi	r0, r0, r0, lsl r0
    419c:	c0000018 	andgt	r0, r0, r8, lsl r0
    41a0:	01000000 	mrseq	r0, (UNDEF: 0)
    41a4:	14ad01b9 	strtne	r0, [sp], #441	; 0x1b9
    41a8:	64240000 	strtvs	r0, [r4], #-0
    41ac:	9b000010 	blls	41f4 <__bss_end+0x1078>
    41b0:	35000008 	strcc	r0, [r0, #-8]
    41b4:	00001058 	andeq	r1, r0, r8, asr r0
    41b8:	00c02901 	sbceq	r2, r0, r1, lsl #18
    41bc:	70260000 	eorvc	r0, r6, r0
    41c0:	00000010 	andeq	r0, r0, r0, lsl r0
    41c4:	00107c26 	andseq	r7, r0, r6, lsr #24
    41c8:	86250000 	strthi	r0, [r5], -r0
    41cc:	bc000010 	stclt	0, cr0, [r0], {16}
    41d0:	00000008 	andeq	r0, r0, r8
    41d4:	113b3f00 	teqne	fp, r0, lsl #30
    41d8:	18e00000 	stmiane	r0!, {}^	; <UNPREDICTABLE>
    41dc:	00080000 	andeq	r0, r8, r0
    41e0:	cb010000 	blgt	441e8 <__bss_end+0x4106c>
    41e4:	188c2d01 	stmne	ip, {r0, r8, sl, fp, sp}
    41e8:	109e0000 	addsne	r0, lr, r0
    41ec:	012e0000 			; <UNDEFINED> instruction: 0x012e0000
    41f0:	00310150 	eorseq	r0, r1, r0, asr r1
    41f4:	0d903700 	ldceq	7, cr3, [r0]
    41f8:	f2010000 	vhadd.s8	d0, d1, d0
    41fc:	00004101 	andeq	r4, r0, r1, lsl #2
    4200:	0018e800 	andseq	lr, r8, r0, lsl #16
    4204:	0000a800 	andeq	sl, r0, r0, lsl #16
    4208:	2c9c0100 	ldfcss	f0, [ip], {0}
    420c:	31000015 	tstcc	r0, r5, lsl r0
    4210:	00001846 	andeq	r1, r0, r6, asr #16
    4214:	7701f201 	strvc	pc, [r1, -r1, lsl #4]
    4218:	e0000013 	and	r0, r0, r3, lsl r0
    421c:	34000008 	strcc	r0, [r0], #-8
    4220:	0000114d 	andeq	r1, r0, sp, asr #2
    4224:	00001908 	andeq	r1, r0, r8, lsl #18
    4228:	000000f0 	strdeq	r0, [r0], -r0	; <UNPREDICTABLE>
    422c:	11020001 	tstne	r2, r1
    4230:	38000015 	stmdacc	r0, {r0, r2, r4}
    4234:	0000115a 	andeq	r1, r0, sl, asr r1
    4238:	114d3900 	cmpne	sp, r0, lsl #18
    423c:	19280000 	stmdbne	r8!, {}	; <UNPREDICTABLE>
    4240:	00200000 	eoreq	r0, r0, r0
    4244:	02010000 	andeq	r0, r1, #0
    4248:	115a2402 	cmpne	sl, r2, lsl #8
    424c:	093d0000 	ldmdbeq	sp!, {}	; <UNPREDICTABLE>
    4250:	00000000 	andeq	r0, r0, r0
    4254:	00163c37 	andseq	r3, r6, r7, lsr ip
    4258:	02090100 	andeq	r0, r9, #0, 2
    425c:	00000053 	andeq	r0, r0, r3, asr r0
    4260:	00001990 	muleq	r0, r0, r9
    4264:	00000094 	muleq	r0, r4, r0
    4268:	159f9c01 	ldrne	r9, [pc, #3073]	; 4e71 <__bss_end+0x1cf5>
    426c:	623b0000 	eorsvs	r0, fp, #0
    4270:	01006675 	tsteq	r0, r5, ror r6
    4274:	13f50209 	mvnsne	r0, #-1879048192	; 0x90000000
    4278:	09500000 	ldmdbeq	r0, {}^	; <UNPREDICTABLE>
    427c:	6e3c0000 	cdpvs	0, 3, cr0, cr12, cr0, {0}
    4280:	02090100 	andeq	r0, r9, #0, 2
    4284:	00000053 	andeq	r0, r0, r3, asr r0
    4288:	69325101 	ldmdbvs	r2!, {r0, r8, ip, lr}
    428c:	020b0100 	andeq	r0, fp, #0, 2
    4290:	00000053 	andeq	r0, r0, r3, asr r0
    4294:	000009a3 	andeq	r0, r0, r3, lsr #19
    4298:	01006332 	tsteq	r0, r2, lsr r3
    429c:	103d020c 	eorsne	r0, sp, ip, lsl #4
    42a0:	0a0b0000 	beq	2c42a8 <__bss_end+0x2c112c>
    42a4:	653d0000 	ldrvs	r0, [sp, #-0]!
    42a8:	b4000011 	strlt	r0, [r0], #-17	; 0xffffffef
    42ac:	10000019 	andne	r0, r0, r9, lsl r0
    42b0:	01000001 	tsteq	r0, r1
    42b4:	10290213 	eorne	r0, r9, r3, lsl r2
    42b8:	25000001 	strcs	r0, [r0, #-1]
    42bc:	00001176 	andeq	r1, r0, r6, ror r1
    42c0:	00000a2b 	andeq	r0, r0, fp, lsr #20
    42c4:	40000000 	andmi	r0, r0, r0
    42c8:	0000179c 	muleq	r0, ip, r7
    42cc:	00531501 	subseq	r1, r3, r1, lsl #10
    42d0:	03050000 	movweq	r0, #20480	; 0x5000
    42d4:	00002e60 	andeq	r2, r0, r0, ror #28
    42d8:	00171140 	andseq	r1, r7, r0, asr #2
    42dc:	53160100 	tstpl	r6, #0, 2
    42e0:	05000000 	streq	r0, [r0, #-0]
    42e4:	002e6403 	eoreq	r6, lr, r3, lsl #8
    42e8:	16594000 	ldrbne	r4, [r9], -r0
    42ec:	17010000 	strne	r0, [r1, -r0]
    42f0:	00000053 	andeq	r0, r0, r3, asr r0
    42f4:	2e680305 	cdpcs	3, 6, cr0, cr8, cr5, {0}
    42f8:	b3400000 	movtlt	r0, #0
    42fc:	01000016 	tsteq	r0, r6, lsl r0
    4300:	00005318 	andeq	r5, r0, r8, lsl r3
    4304:	6c030500 	cfstr32vs	mvfx0, [r3], {-0}
    4308:	1e00002e 	cdpne	0, 0, cr0, cr0, cr14, {1}
    430c:	000016a4 	andeq	r1, r0, r4, lsr #13
    4310:	00531901 	subseq	r1, r3, r1, lsl #18
    4314:	83410000 	movthi	r0, #4096	; 0x1000
    4318:	83000016 	movwhi	r0, #22
    431c:	04000016 	streq	r0, [r0], #-22	; 0xffffffea
    4320:	0d1c4182 	ldfeqs	f4, [ip, #-520]	; 0xfffffdf8
    4324:	0d1c0000 	ldceq	0, cr0, [ip, #-0]
    4328:	1a050000 	bne	144330 <__bss_end+0x1411b4>
    432c:	000f6041 	andeq	r6, pc, r1, asr #32
    4330:	000f6000 	andeq	r6, pc, r0
    4334:	001b0500 	andseq	r0, fp, r0, lsl #10
    4338:	0000099a 	muleq	r0, sl, r9
    433c:	0d240004 	stceq	0, cr0, [r4, #-16]!
    4340:	01040000 	mrseq	r0, (UNDEF: 4)
    4344:	00000000 	andeq	r0, r0, r0
    4348:	0017f40c 	andseq	pc, r7, ip, lsl #8
    434c:	00015400 	andeq	r5, r1, r0, lsl #8
    4350:	001a2400 	andseq	r2, sl, r0, lsl #8
    4354:	00085000 	andeq	r5, r8, r0
    4358:	000ce200 	andeq	lr, ip, r0, lsl #4
    435c:	06010200 	streq	r0, [r1], -r0, lsl #4
    4360:	00000114 	andeq	r0, r0, r4, lsl r1
    4364:	12080102 	andne	r0, r8, #-2147483648	; 0x80000000
    4368:	02000001 	andeq	r0, r0, #1
    436c:	02780502 	rsbseq	r0, r8, #8388608	; 0x800000
    4370:	02020000 	andeq	r0, r2, #0
    4374:	00013607 	andeq	r3, r1, r7, lsl #12
    4378:	12660300 	rsbne	r0, r6, #0, 6
    437c:	12020000 	andne	r0, r2, #0
    4380:	0000004c 	andeq	r0, r0, ip, asr #32
    4384:	69050404 	stmdbvs	r5, {r2, sl}
    4388:	0200746e 	andeq	r7, r0, #1845493760	; 0x6e000000
    438c:	01e80704 	mvneq	r0, r4, lsl #14
    4390:	08020000 	stmdaeq	r2, {}	; <UNPREDICTABLE>
    4394:	00023805 	andeq	r3, r2, r5, lsl #16
    4398:	07080200 	streq	r0, [r8, -r0, lsl #4]
    439c:	000001de 	ldrdeq	r0, [r0], -lr
    43a0:	0017b103 	andseq	fp, r7, r3, lsl #2
    43a4:	53180200 	tstpl	r8, #0, 4
    43a8:	02000000 	andeq	r0, r0, #0
    43ac:	022f0704 	eoreq	r0, pc, #4, 14	; 0x100000
    43b0:	0b050000 	bleq	1443b8 <__bss_end+0x14123c>
    43b4:	04000002 	streq	r0, [r0], #-2
    43b8:	00000053 	andeq	r0, r0, r3, asr r0
    43bc:	01098905 	tsteq	r9, r5, lsl #18
    43c0:	d4060000 	strle	r0, [r6], #-0
    43c4:	00000000 	andeq	r0, r0, r0
    43c8:	00012906 	andeq	r2, r1, r6, lsl #18
    43cc:	e1060100 	mrs	r0, (UNDEF: 22)
    43d0:	02000000 	andeq	r0, r0, #0
    43d4:	00010606 	andeq	r0, r1, r6, lsl #12
    43d8:	53060300 	movwpl	r0, #25344	; 0x6300
    43dc:	04000002 	streq	r0, [r0], #-2
    43e0:	0001d206 	andeq	sp, r1, r6, lsl #4
    43e4:	ba060500 	blt	1857ec <__bss_end+0x182670>
    43e8:	06000001 	streq	r0, [r0], -r1
    43ec:	0001f506 	andeq	pc, r1, r6, lsl #10
    43f0:	c8060700 	stmdagt	r6, {r8, r9, sl}
    43f4:	08000000 	stmdaeq	r0, {}	; <UNPREDICTABLE>
    43f8:	0000fb06 	andeq	pc, r0, r6, lsl #22
    43fc:	c7060900 	strgt	r0, [r6, -r0, lsl #18]
    4400:	0a000001 	beq	440c <__bss_end+0x1290>
    4404:	00026d06 	andeq	r6, r2, r6, lsl #26
    4408:	05060b00 	streq	r0, [r6, #-2816]	; 0xfffff500
    440c:	0c000002 	stceq	0, cr0, [r0], {2}
    4410:	00022106 	andeq	r2, r2, r6, lsl #2
    4414:	1a060d00 	bne	18781c <__bss_end+0x1846a0>
    4418:	0e000003 	cdpeq	0, 0, cr0, cr0, cr3, {0}
    441c:	00025f06 	andeq	r5, r2, r6, lsl #30
    4420:	ea060f00 	b	188028 <__bss_end+0x184eac>
    4424:	10000002 	andne	r0, r0, r2
    4428:	00024606 	andeq	r4, r2, r6, lsl #12
    442c:	04061100 	streq	r1, [r6], #-256	; 0xffffff00
    4430:	12000003 	andne	r0, r0, #3
    4434:	0000ee06 	andeq	lr, r0, r6, lsl #28
    4438:	cf061300 	svcgt	0x00061300
    443c:	14000002 	strne	r0, [r0], #-2
    4440:	08010200 	stmdaeq	r1, {r9}
    4444:	0000011b 	andeq	r0, r0, fp, lsl r1
    4448:	e3070402 	movw	r0, #29698	; 0x7402
    444c:	07000001 	streq	r0, [r0, -r1]
    4450:	18730304 	ldmdane	r3!, {r2, r8, r9}^
    4454:	28030000 	stmdacs	r3, {}	; <UNPREDICTABLE>
    4458:	00000124 	andeq	r0, r0, r4, lsr #2
    445c:	0017cc08 	andseq	ip, r7, r8, lsl #24
    4460:	00060400 	andeq	r0, r6, r0, lsl #8
    4464:	0000013b 	andeq	r0, r0, fp, lsr r1
    4468:	00183409 	andseq	r3, r8, r9, lsl #8
    446c:	00011700 	andeq	r1, r1, r0, lsl #14
    4470:	03000000 	movweq	r0, #0
    4474:	000017ce 	andeq	r1, r0, lr, asr #15
    4478:	01196203 	tsteq	r9, r3, lsl #4
    447c:	820a0000 	andhi	r0, sl, #0
    4480:	01000018 	tsteq	r0, r8, lsl r0
    4484:	00018366 	andeq	r8, r1, r6, ror #6
    4488:	01830100 	orreq	r0, r3, r0, lsl #2
    448c:	550b0000 	strpl	r0, [fp, #-0]
    4490:	01000018 	tsteq	r0, r8, lsl r0
    4494:	00018366 	andeq	r8, r1, r6, ror #6
    4498:	72730c00 	rsbsvc	r0, r3, #0, 24
    449c:	66010063 	strvs	r0, [r1], -r3, rrx
    44a0:	00000189 	andeq	r0, r0, r9, lsl #3
    44a4:	0012d80b 	andseq	sp, r2, fp, lsl #16
    44a8:	68660100 	stmdavs	r6!, {r8}^
    44ac:	0d000000 	stceq	0, cr0, [r0, #-0]
    44b0:	00706d74 	rsbseq	r6, r0, r4, ror sp
    44b4:	01836801 	orreq	r6, r3, r1, lsl #16
    44b8:	0e000000 	cdpeq	0, 0, cr0, cr0, cr0, {0}
    44bc:	00010904 	andeq	r0, r1, r4, lsl #18
    44c0:	8f040e00 	svchi	0x00040e00
    44c4:	0f000001 	svceq	0x00000001
    44c8:	00000109 	andeq	r0, r0, r9, lsl #2
    44cc:	00184d0a 	andseq	r4, r8, sl, lsl #26
    44d0:	83390100 	teqhi	r9, #0, 2
    44d4:	01000001 	tsteq	r0, r1
    44d8:	000001c6 	andeq	r0, r0, r6, asr #3
    44dc:	0018550b 	andseq	r5, r8, fp, lsl #10
    44e0:	83390100 	teqhi	r9, #0, 2
    44e4:	0c000001 	stceq	0, cr0, [r0], {1}
    44e8:	00637273 	rsbeq	r7, r3, r3, ror r2
    44ec:	01893901 	orreq	r3, r9, r1, lsl #18
    44f0:	740d0000 	strvc	r0, [sp], #-0
    44f4:	0100706d 	tsteq	r0, sp, rrx
    44f8:	0001833b 	andeq	r8, r1, fp, lsr r3
    44fc:	390a0000 	stmdbcc	sl, {}	; <UNPREDICTABLE>
    4500:	01000018 	tsteq	r0, r8, lsl r0
    4504:	00006828 	andeq	r6, r0, r8, lsr #16
    4508:	01ea0100 	mvneq	r0, r0, lsl #2
    450c:	730c0000 	movwvc	r0, #49152	; 0xc000
    4510:	89280100 	stmdbhi	r8!, {r8}
    4514:	0d000001 	stceq	0, cr0, [r0, #-4]
    4518:	01006373 	tsteq	r0, r3, ror r3
    451c:	0001892a 	andeq	r8, r1, sl, lsr #18
    4520:	ef0a0000 	svc	0x000a0000
    4524:	01000017 	tsteq	r0, r7, lsl r0
    4528:	000183aa 	andeq	r8, r1, sl, lsr #7
    452c:	024f0100 	subeq	r0, pc, #0, 2
    4530:	9b0b0000 	blls	2c4538 <__bss_end+0x2c13bc>
    4534:	01000015 	tsteq	r0, r5, lsl r0
    4538:	00004caa 	andeq	r4, r0, sl, lsr #25
    453c:	18460b00 	stmdane	r6, {r8, r9, fp}^
    4540:	aa010000 	bge	44548 <__bss_end+0x413cc>
    4544:	00000183 	andeq	r0, r0, r3, lsl #3
    4548:	00182e0b 	andseq	r2, r8, fp, lsl #28
    454c:	4caa0100 	stfmis	f0, [sl]
    4550:	10000000 	andne	r0, r0, r0
    4554:	00001823 	andeq	r1, r0, r3, lsr #16
    4558:	024fac01 	subeq	sl, pc, #256	; 0x100
    455c:	e6100000 	ldr	r0, [r0], -r0
    4560:	01000017 	tsteq	r0, r7, lsl r0
    4564:	00004cad 	andeq	r4, r0, sp, lsr #25
    4568:	00690d00 	rsbeq	r0, r9, r0, lsl #26
    456c:	004cae01 	subeq	sl, ip, r1, lsl #28
    4570:	6a0d0000 	bvs	344578 <__bss_end+0x3413fc>
    4574:	4caf0100 	stfmis	f0, [pc]	; 457c <__bss_end+0x1400>
    4578:	10000000 	andne	r0, r0, r0
    457c:	00001840 	andeq	r1, r0, r0, asr #16
    4580:	025fb001 	subseq	fp, pc, #1
    4584:	11000000 	mrsne	r0, (UNDEF: 0)
    4588:	00000109 	andeq	r0, r0, r9, lsl #2
    458c:	0000025f 	andeq	r0, r0, pc, asr r2
    4590:	00007312 	andeq	r7, r0, r2, lsl r3
    4594:	11000f00 	tstne	r0, r0, lsl #30
    4598:	00000109 	andeq	r0, r0, r9, lsl #2
    459c:	0000026f 	andeq	r0, r0, pc, ror #4
    45a0:	00007312 	andeq	r7, r0, r2, lsl r3
    45a4:	13001000 	movwne	r1, #0
    45a8:	000017ac 	andeq	r1, r0, ip, lsr #15
    45ac:	0183d901 	orreq	sp, r3, r1, lsl #18
    45b0:	1a240000 	bne	9045b8 <__bss_end+0x90143c>
    45b4:	00cc0000 	sbceq	r0, ip, r0
    45b8:	9c010000 	stcls	0, cr0, [r1], {-0}
    45bc:	000002e9 	andeq	r0, r0, r9, ror #5
    45c0:	00159b14 	andseq	r9, r5, r4, lsl fp
    45c4:	53d90100 	bicspl	r0, r9, #0, 2
    45c8:	61000000 	mrsvs	r0, (UNDEF: 0)
    45cc:	1400000a 	strne	r0, [r0], #-10
    45d0:	00001846 	andeq	r1, r0, r6, asr #16
    45d4:	0183d901 	orreq	sp, r3, r1, lsl #18
    45d8:	0aab0000 	beq	feac45e0 <__bss_end+0xfeac1464>
    45dc:	2e140000 	cdpcs	0, 1, cr0, cr4, cr0, {0}
    45e0:	01000018 	tsteq	r0, r8, lsl r0
    45e4:	00004cd9 	ldrdeq	r4, [r0], -r9
    45e8:	000ac900 	andeq	ip, sl, r0, lsl #18
    45ec:	18231500 	stmdane	r3!, {r8, sl, ip}
    45f0:	db010000 	blle	445f8 <__bss_end+0x4147c>
    45f4:	0000024f 	andeq	r0, r0, pc, asr #4
    45f8:	7fbc9103 	svcvc	0x00bc9103
    45fc:	01006916 	tsteq	r0, r6, lsl r9
    4600:	00004cdc 	ldrdeq	r4, [r0], -ip
    4604:	000ae700 	andeq	lr, sl, r0, lsl #14
    4608:	006a0d00 	rsbeq	r0, sl, r0, lsl #26
    460c:	004cdd01 	subeq	sp, ip, r1, lsl #26
    4610:	40150000 	andsmi	r0, r5, r0
    4614:	01000018 	tsteq	r0, r8, lsl r0
    4618:	00025fde 	ldrdeq	r5, [r2], -lr
    461c:	4c910200 	lfmmi	f0, 4, [r1], {0}
    4620:	185a1700 	ldmdane	sl, {r8, r9, sl, ip}^
    4624:	75010000 	strvc	r0, [r1, #-0]
    4628:	00004101 	andeq	r4, r0, r1, lsl #2
    462c:	001af000 	andseq	pc, sl, r0
    4630:	00009800 	andeq	r9, r0, r0, lsl #16
    4634:	7e9c0100 	fmlvce	f0, f4, f0
    4638:	18000003 	stmdane	r0, {r0, r1}
    463c:	00001846 	andeq	r1, r0, r6, asr #16
    4640:	83017501 	movwhi	r7, #5377	; 0x1501
    4644:	1d000001 	stcne	0, cr0, [r0, #-4]
    4648:	1900000b 	stmdbne	r0, {r0, r1, r3}
    464c:	006e656c 	rsbeq	r6, lr, ip, ror #10
    4650:	41017501 	tstmi	r1, r1, lsl #10
    4654:	49000000 	stmdbmi	r0, {}	; <UNPREDICTABLE>
    4658:	1800000b 	stmdane	r0, {r0, r1, r3}
    465c:	00001860 	andeq	r1, r0, r0, ror #16
    4660:	41017501 	tstmi	r1, r1, lsl #10
    4664:	67000000 	strvs	r0, [r0, -r0]
    4668:	1a00000b 	bne	469c <__bss_end+0x1520>
    466c:	000017c4 	andeq	r1, r0, r4, asr #15
    4670:	5f017901 	svcpl	0x00017901
    4674:	02000002 	andeq	r0, r0, #2
    4678:	461b5c91 			; <UNDEFINED> instruction: 0x461b5c91
    467c:	2c000001 	stccs	0, cr0, [r0], {1}
    4680:	3000001b 	andcc	r0, r0, fp, lsl r0
    4684:	01000001 	tsteq	r0, r1
    4688:	6c1c017d 	ldfvss	f0, [ip], {125}	; 0x7d
    468c:	85000001 	strhi	r0, [r0, #-1]
    4690:	1c00000b 	stcne	0, cr0, [r0], {11}
    4694:	00000161 	andeq	r0, r0, r1, ror #2
    4698:	00000bd5 	ldrdeq	r0, [r0], -r5
    469c:	0001561c 	andeq	r5, r1, ip, lsl r6
    46a0:	000bf500 	andeq	pc, fp, r0, lsl #10
    46a4:	01301d00 	teqeq	r0, r0, lsl #26
    46a8:	771e0000 	ldrvc	r0, [lr, -r0]
    46ac:	f5000001 			; <UNDEFINED> instruction: 0xf5000001
    46b0:	0000000b 	andeq	r0, r0, fp
    46b4:	ea1f0000 	b	7c46bc <__bss_end+0x7c1540>
    46b8:	88000001 	stmdahi	r0, {r0}
    46bc:	f400001b 	vst4.8	{d0-d3}, [r0 :64], fp
    46c0:	01000000 	mrseq	r0, (UNDEF: 0)
    46c4:	0003d59c 	muleq	r3, ip, r5
    46c8:	01fa1c00 	mvnseq	r1, r0, lsl #24
    46cc:	0c200000 	stceq	0, cr0, [r0], #-0
    46d0:	051c0000 	ldreq	r0, [ip, #-0]
    46d4:	5f000002 	svcpl	0x00000002
    46d8:	2000000c 	andcs	r0, r0, ip
    46dc:	0000021b 	andeq	r0, r0, fp, lsl r2
    46e0:	1e4c9102 	sqtnee	f1, f2
    46e4:	00000226 	andeq	r0, r0, r6, lsr #4
    46e8:	00000c7d 	andeq	r0, r0, sp, ror ip
    46ec:	0002311e 	andeq	r3, r2, lr, lsl r1
    46f0:	000cd700 	andeq	sp, ip, r0, lsl #14
    46f4:	023a1e00 	eorseq	r1, sl, #0, 28
    46f8:	0d170000 	ldceq	0, cr0, [r7, #-0]
    46fc:	43200000 	nopmi	{0}	; <UNPREDICTABLE>
    4700:	02000002 	andeq	r0, r0, #2
    4704:	10215c91 	mlane	r1, r1, ip, r5
    4708:	0a000002 	beq	4718 <__bss_end+0x159c>
    470c:	0aff2200 	beq	fffccf14 <__bss_end+0xfffc9d98>
    4710:	0f010000 	svceq	0x00010000
    4714:	00004101 	andeq	r4, r0, r1, lsl #2
    4718:	001c7c00 	andseq	r7, ip, r0, lsl #24
    471c:	0002fc00 	andeq	pc, r2, r0, lsl #24
    4720:	9d9c0100 	ldflss	f0, [ip]
    4724:	18000006 	stmdane	r0, {r1, r2}
    4728:	000017bd 			; <UNDEFINED> instruction: 0x000017bd
    472c:	89010f01 	stmdbhi	r1, {r0, r8, r9, sl, fp}
    4730:	42000001 	andmi	r0, r0, #1
    4734:	2300000d 	movwcs	r0, #13
    4738:	0018291a 	andseq	r2, r8, sl, lsl r9
    473c:	01110100 	tsteq	r1, r0, lsl #2
    4740:	0000013b 	andeq	r0, r0, fp, lsr r1
    4744:	7fbc9103 	svcvc	0x00bc9103
    4748:	0018461a 	andseq	r4, r8, sl, lsl r6
    474c:	01120100 	tsteq	r2, r0, lsl #2
    4750:	0000024f 	andeq	r0, r0, pc, asr #4
    4754:	24409102 	strbcs	r9, [r0], #-258	; 0xfffffefe
    4758:	00001854 	andeq	r1, r0, r4, asr r8
    475c:	83011301 	movwhi	r1, #4865	; 0x1301
    4760:	84000001 	strhi	r0, [r0], #-1
    4764:	2400000d 	strcs	r0, [r0], #-13
    4768:	000017b8 			; <UNDEFINED> instruction: 0x000017b8
    476c:	83011401 	movwhi	r1, #5121	; 0x1401
    4770:	13000001 	movwne	r0, #1
    4774:	2400000e 	strcs	r0, [r0], #-14
    4778:	00001860 	andeq	r1, r0, r0, ror #16
    477c:	41011501 	tstmi	r1, r1, lsl #10
    4780:	26000000 	strcs	r0, [r0], -r0
    4784:	2500000e 	strcs	r0, [r0, #-14]
    4788:	006e656c 	rsbeq	r6, lr, ip, ror #10
    478c:	41011601 	tstmi	r1, r1, lsl #12
    4790:	44000000 	strmi	r0, [r0], #-0
    4794:	2600000e 	strcs	r0, [r0], -lr
    4798:	000001c6 	andeq	r0, r0, r6, asr #3
    479c:	00001db0 			; <UNDEFINED> instruction: 0x00001db0
    47a0:	00000158 	andeq	r0, r0, r8, asr r1
    47a4:	8c014701 	stchi	7, cr4, [r1], {1}
    47a8:	1c000004 	stcne	0, cr0, [r0], {4}
    47ac:	000001d6 	ldrdeq	r0, [r0], -r6
    47b0:	00000e85 	andeq	r0, r0, r5, lsl #29
    47b4:	0001581d 	andeq	r5, r1, sp, lsl r8
    47b8:	01df1e00 	bicseq	r1, pc, r0, lsl #28
    47bc:	0ea30000 	cdpeq	0, 10, cr0, cr3, cr0, {0}
    47c0:	00000000 	andeq	r0, r0, r0
    47c4:	00019427 	andeq	r9, r1, r7, lsr #8
    47c8:	001dec00 	andseq	lr, sp, r0, lsl #24
    47cc:	00001000 	andeq	r1, r0, r0
    47d0:	01490100 	mrseq	r0, (UNDEF: 89)
    47d4:	000004be 			; <UNDEFINED> instruction: 0x000004be
    47d8:	0001af1c 	andeq	sl, r1, ip, lsl pc
    47dc:	000ed900 	andeq	sp, lr, r0, lsl #18
    47e0:	01a42800 			; <UNDEFINED> instruction: 0x01a42800
    47e4:	ec290000 	stc	0, cr0, [r9], #-0
    47e8:	1000001d 	andne	r0, r0, sp, lsl r0
    47ec:	2a000000 	bcs	47f4 <__bss_end+0x1678>
    47f0:	000001ba 			; <UNDEFINED> instruction: 0x000001ba
    47f4:	94270000 	strtls	r0, [r7], #-0
    47f8:	1c000001 	stcne	0, cr0, [r0], {1}
    47fc:	1000001e 	andne	r0, r0, lr, lsl r0
    4800:	01000000 	mrseq	r0, (UNDEF: 0)
    4804:	04f80157 	ldrbteq	r0, [r8], #343	; 0x157
    4808:	af1c0000 	svcge	0x001c0000
    480c:	f9000001 			; <UNDEFINED> instruction: 0xf9000001
    4810:	1c00000e 	stcne	0, cr0, [r0], {14}
    4814:	000001a4 	andeq	r0, r0, r4, lsr #3
    4818:	00000f24 	andeq	r0, r0, r4, lsr #30
    481c:	001e1c29 	andseq	r1, lr, r9, lsr #24
    4820:	00001000 	andeq	r1, r0, r0
    4824:	01ba1e00 			; <UNDEFINED> instruction: 0x01ba1e00
    4828:	0f370000 	svceq	0x00370000
    482c:	00000000 	andeq	r0, r0, r0
    4830:	0001c627 	andeq	ip, r1, r7, lsr #12
    4834:	001e2c00 	andseq	r2, lr, r0, lsl #24
    4838:	00001c00 	andeq	r1, r0, r0, lsl #24
    483c:	01580100 	cmpeq	r8, r0, lsl #2
    4840:	00000525 	andeq	r0, r0, r5, lsr #10
    4844:	0001d628 	andeq	sp, r1, r8, lsr #12
    4848:	1e2c2900 	cdpne	9, 2, cr2, cr12, cr0, {0}
    484c:	001c0000 	andseq	r0, ip, r0
    4850:	df1e0000 	svcle	0x001e0000
    4854:	4a000001 	bmi	4860 <__bss_end+0x16e4>
    4858:	0000000f 	andeq	r0, r0, pc
    485c:	01c62600 	biceq	r2, r6, r0, lsl #12
    4860:	1e700000 	cdpne	0, 7, cr0, cr0, cr0, {0}
    4864:	01700000 	cmneq	r0, r0
    4868:	3d010000 	stccc	0, cr0, [r1, #-0]
    486c:	00055201 	andeq	r5, r5, r1, lsl #4
    4870:	01d61c00 	bicseq	r1, r6, r0, lsl #24
    4874:	0f750000 	svceq	0x00750000
    4878:	701d0000 	andsvc	r0, sp, r0
    487c:	1e000001 	cdpne	0, 0, cr0, cr0, cr1, {0}
    4880:	000001df 	ldrdeq	r0, [r0], -pc	; <UNPREDICTABLE>
    4884:	00000f93 	muleq	r0, r3, pc	; <UNPREDICTABLE>
    4888:	94270000 	strtls	r0, [r7], #-0
    488c:	ac000001 	stcge	0, cr0, [r0], {1}
    4890:	1000001e 	andne	r0, r0, lr, lsl r0
    4894:	01000000 	mrseq	r0, (UNDEF: 0)
    4898:	0584013f 	streq	r0, [r4, #319]	; 0x13f
    489c:	af1c0000 	svcge	0x001c0000
    48a0:	c9000001 	stmdbgt	r0, {r0}
    48a4:	2800000f 	stmdacs	r0, {r0, r1, r2, r3}
    48a8:	000001a4 	andeq	r0, r0, r4, lsr #3
    48ac:	001eac29 	andseq	sl, lr, r9, lsr #24
    48b0:	00001000 	andeq	r1, r0, r0
    48b4:	01ba2a00 			; <UNDEFINED> instruction: 0x01ba2a00
    48b8:	00000000 	andeq	r0, r0, r0
    48bc:	0001c626 	andeq	ip, r1, r6, lsr #12
    48c0:	001edc00 	andseq	sp, lr, r0, lsl #24
    48c4:	00018800 	andeq	r8, r1, r0, lsl #16
    48c8:	01320100 	teqeq	r2, r0, lsl #2
    48cc:	000005b1 			; <UNDEFINED> instruction: 0x000005b1
    48d0:	0001d61c 	andeq	sp, r1, ip, lsl r6
    48d4:	000fe900 	andeq	lr, pc, r0, lsl #18
    48d8:	01881d00 	orreq	r1, r8, r0, lsl #26
    48dc:	df1e0000 	svcle	0x001e0000
    48e0:	07000001 	streq	r0, [r0, -r1]
    48e4:	00000010 	andeq	r0, r0, r0, lsl r0
    48e8:	01942700 	orrseq	r2, r4, r0, lsl #14
    48ec:	1f180000 	svcne	0x00180000
    48f0:	00100000 	andseq	r0, r0, r0
    48f4:	34010000 	strcc	r0, [r1], #-0
    48f8:	0005e301 	andeq	lr, r5, r1, lsl #6
    48fc:	01af1c00 			; <UNDEFINED> instruction: 0x01af1c00
    4900:	103d0000 	eorsne	r0, sp, r0
    4904:	a4280000 	strtge	r0, [r8], #-0
    4908:	29000001 	stmdbcs	r0, {r0}
    490c:	00001f18 	andeq	r1, r0, r8, lsl pc
    4910:	00000010 	andeq	r0, r0, r0, lsl r0
    4914:	0001ba2a 	andeq	fp, r1, sl, lsr #20
    4918:	2b000000 	blcs	4920 <__bss_end+0x17a4>
    491c:	00001d80 	andeq	r1, r0, r0, lsl #27
    4920:	00000987 	andeq	r0, r0, r7, lsl #19
    4924:	000005fa 	strdeq	r0, [r0], -sl
    4928:	0550012c 	ldrbeq	r0, [r0, #-300]	; 0xfffffed4
    492c:	002e7003 	eoreq	r7, lr, r3
    4930:	b02b0000 	eorlt	r0, fp, r0
    4934:	6f00001d 	svcvs	0x0000001d
    4938:	13000002 	movwne	r0, #2
    493c:	2c000006 	stccs	0, cr0, [r0], {6}
    4940:	78025101 	stmdavc	r2, {r0, r8, ip, lr}
    4944:	52012c00 	andpl	r2, r1, #0, 24
    4948:	2b003a01 	blcs	13154 <__bss_end+0xffd8>
    494c:	00001de0 	andeq	r1, r0, r0, ror #27
    4950:	000002e9 	andeq	r0, r0, r9, ror #5
    4954:	00000633 	andeq	r0, r0, r3, lsr r6
    4958:	0250012c 	subseq	r0, r0, #44, 2
    495c:	012c0078 			; <UNDEFINED> instruction: 0x012c0078
    4960:	007a0251 	rsbseq	r0, sl, r1, asr r2
    4964:	0252012c 	subseq	r0, r2, #44, 2
    4968:	2b000079 	blcs	4b54 <__bss_end+0x19d8>
    496c:	00001e70 	andeq	r1, r0, r0, ror lr
    4970:	0000026f 	andeq	r0, r0, pc, ror #4
    4974:	0000064c 	andeq	r0, r0, ip, asr #12
    4978:	0251012c 	subseq	r0, r1, #44, 2
    497c:	012c0078 			; <UNDEFINED> instruction: 0x012c0078
    4980:	00400152 	subeq	r0, r0, r2, asr r1
    4984:	001ea02b 	andseq	sl, lr, fp, lsr #32
    4988:	0002e900 	andeq	lr, r2, r0, lsl #18
    498c:	00066c00 	andeq	r6, r6, r0, lsl #24
    4990:	50012c00 	andpl	r2, r1, r0, lsl #24
    4994:	2c007802 	stccs	8, cr7, [r0], {2}
    4998:	7a025101 	bvc	98da4 <__bss_end+0x95c28>
    499c:	52012c00 	andpl	r2, r1, #0, 24
    49a0:	00007902 	andeq	r7, r0, r2, lsl #18
    49a4:	001edc2b 	andseq	sp, lr, fp, lsr #24
    49a8:	00037e00 	andeq	r7, r3, r0, lsl #28
    49ac:	00068000 	andeq	r8, r6, r0
    49b0:	51012c00 	tstpl	r1, r0, lsl #24
    49b4:	00007802 	andeq	r7, r0, r2, lsl #16
    49b8:	001f0c2d 	andseq	r0, pc, sp, lsr #24
    49bc:	0002e900 	andeq	lr, r2, r0, lsl #18
    49c0:	50012c00 	andpl	r2, r1, r0, lsl #24
    49c4:	2c007802 	stccs	8, cr7, [r0], {2}
    49c8:	7a025101 	bvc	98dd4 <__bss_end+0x95c58>
    49cc:	52012c00 	andpl	r2, r1, #0, 24
    49d0:	00007902 	andeq	r7, r0, r2, lsl #18
    49d4:	18662200 	stmdane	r6!, {r9, sp}^
    49d8:	84010000 	strhi	r0, [r1], #-0
    49dc:	00004101 	andeq	r4, r0, r1, lsl #2
    49e0:	001f7800 	andseq	r7, pc, r0, lsl #16
    49e4:	0002fc00 	andeq	pc, r2, r0, lsl #24
    49e8:	659c0100 	ldrvs	r0, [ip, #256]	; 0x100
    49ec:	18000009 	stmdane	r0, {r0, r3}
    49f0:	000017bd 			; <UNDEFINED> instruction: 0x000017bd
    49f4:	89018401 	stmdbhi	r1, {r0, sl, pc}
    49f8:	5d000001 	stcpl	0, cr0, [r0, #-4]
    49fc:	23000010 	movwcs	r0, #16
    4a00:	0018291a 	andseq	r2, r8, sl, lsl r9
    4a04:	01860100 	orreq	r0, r6, r0, lsl #2
    4a08:	0000013b 	andeq	r0, r0, fp, lsr r1
    4a0c:	7fbc9103 	svcvc	0x00bc9103
    4a10:	0018461a 	andseq	r4, r8, sl, lsl r6
    4a14:	01870100 	orreq	r0, r7, r0, lsl #2
    4a18:	0000024f 	andeq	r0, r0, pc, asr #4
    4a1c:	24409102 	strbcs	r9, [r0], #-258	; 0xfffffefe
    4a20:	00001854 	andeq	r1, r0, r4, asr r8
    4a24:	83018801 	movwhi	r8, #6145	; 0x1801
    4a28:	9f000001 	svcls	0x00000001
    4a2c:	24000010 	strcs	r0, [r0], #-16
    4a30:	000017b8 			; <UNDEFINED> instruction: 0x000017b8
    4a34:	83018901 	movwhi	r8, #6401	; 0x1901
    4a38:	2e000001 	cdpcs	0, 0, cr0, cr0, cr1, {0}
    4a3c:	24000011 	strcs	r0, [r0], #-17	; 0xffffffef
    4a40:	00001860 	andeq	r1, r0, r0, ror #16
    4a44:	41018a01 	tstmi	r1, r1, lsl #20
    4a48:	41000000 	mrsmi	r0, (UNDEF: 0)
    4a4c:	25000011 	strcs	r0, [r0, #-17]	; 0xffffffef
    4a50:	006e656c 	rsbeq	r6, lr, ip, ror #10
    4a54:	41018b01 	tstmi	r1, r1, lsl #22
    4a58:	5f000000 	svcpl	0x00000000
    4a5c:	26000011 			; <UNDEFINED> instruction: 0x26000011
    4a60:	000001c6 	andeq	r0, r0, r6, asr #3
    4a64:	000020ac 	andeq	r2, r0, ip, lsr #1
    4a68:	000001a0 	andeq	r0, r0, r0, lsr #3
    4a6c:	5401bc01 	strpl	fp, [r1], #-3073	; 0xfffff3ff
    4a70:	1c000007 	stcne	0, cr0, [r0], {7}
    4a74:	000001d6 	ldrdeq	r0, [r0], -r6
    4a78:	000011a0 	andeq	r1, r0, r0, lsr #3
    4a7c:	0001a01d 	andeq	sl, r1, sp, lsl r0
    4a80:	01df1e00 	bicseq	r1, pc, r0, lsl #28
    4a84:	11be0000 			; <UNDEFINED> instruction: 0x11be0000
    4a88:	00000000 	andeq	r0, r0, r0
    4a8c:	00019427 	andeq	r9, r1, r7, lsr #8
    4a90:	0020e800 	eoreq	lr, r0, r0, lsl #16
    4a94:	00001000 	andeq	r1, r0, r0
    4a98:	01be0100 			; <UNDEFINED> instruction: 0x01be0100
    4a9c:	00000786 	andeq	r0, r0, r6, lsl #15
    4aa0:	0001af1c 	andeq	sl, r1, ip, lsl pc
    4aa4:	0011f400 	andseq	pc, r1, r0, lsl #8
    4aa8:	01a42800 			; <UNDEFINED> instruction: 0x01a42800
    4aac:	e8290000 	stmda	r9!, {}	; <UNPREDICTABLE>
    4ab0:	10000020 	andne	r0, r0, r0, lsr #32
    4ab4:	2a000000 	bcs	4abc <__bss_end+0x1940>
    4ab8:	000001ba 			; <UNDEFINED> instruction: 0x000001ba
    4abc:	94270000 	strtls	r0, [r7], #-0
    4ac0:	18000001 	stmdane	r0, {r0}
    4ac4:	10000021 	andne	r0, r0, r1, lsr #32
    4ac8:	01000000 	mrseq	r0, (UNDEF: 0)
    4acc:	07c001cc 	strbeq	r0, [r0, ip, asr #3]
    4ad0:	af1c0000 	svcge	0x001c0000
    4ad4:	14000001 	strne	r0, [r0], #-1
    4ad8:	1c000012 	stcne	0, cr0, [r0], {18}
    4adc:	000001a4 	andeq	r0, r0, r4, lsr #3
    4ae0:	0000123f 	andeq	r1, r0, pc, lsr r2
    4ae4:	00211829 	eoreq	r1, r1, r9, lsr #16
    4ae8:	00001000 	andeq	r1, r0, r0
    4aec:	01ba1e00 			; <UNDEFINED> instruction: 0x01ba1e00
    4af0:	12520000 	subsne	r0, r2, #0
    4af4:	00000000 	andeq	r0, r0, r0
    4af8:	0001c627 	andeq	ip, r1, r7, lsr #12
    4afc:	00212800 	eoreq	r2, r1, r0, lsl #16
    4b00:	00001c00 	andeq	r1, r0, r0, lsl #24
    4b04:	01cd0100 	biceq	r0, sp, r0, lsl #2
    4b08:	000007ed 	andeq	r0, r0, sp, ror #15
    4b0c:	0001d628 	andeq	sp, r1, r8, lsr #12
    4b10:	21282900 			; <UNDEFINED> instruction: 0x21282900
    4b14:	001c0000 	andseq	r0, ip, r0
    4b18:	df1e0000 	svcle	0x001e0000
    4b1c:	65000001 	strvs	r0, [r0, #-1]
    4b20:	00000012 	andeq	r0, r0, r2, lsl r0
    4b24:	01c62600 	biceq	r2, r6, r0, lsl #12
    4b28:	216c0000 	cmncs	ip, r0
    4b2c:	01b80000 			; <UNDEFINED> instruction: 0x01b80000
    4b30:	b2010000 	andlt	r0, r1, #0
    4b34:	00081a01 	andeq	r1, r8, r1, lsl #20
    4b38:	01d61c00 	bicseq	r1, r6, r0, lsl #24
    4b3c:	12900000 	addsne	r0, r0, #0
    4b40:	b81d0000 	ldmdalt	sp, {}	; <UNPREDICTABLE>
    4b44:	1e000001 	cdpne	0, 0, cr0, cr0, cr1, {0}
    4b48:	000001df 	ldrdeq	r0, [r0], -pc	; <UNPREDICTABLE>
    4b4c:	000012ae 	andeq	r1, r0, lr, lsr #5
    4b50:	94270000 	strtls	r0, [r7], #-0
    4b54:	a8000001 	stmdage	r0, {r0}
    4b58:	10000021 	andne	r0, r0, r1, lsr #32
    4b5c:	01000000 	mrseq	r0, (UNDEF: 0)
    4b60:	084c01b4 	stmdaeq	ip, {r2, r4, r5, r7, r8}^
    4b64:	af1c0000 	svcge	0x001c0000
    4b68:	e4000001 	str	r0, [r0], #-1
    4b6c:	28000012 	stmdacs	r0, {r1, r4}
    4b70:	000001a4 	andeq	r0, r0, r4, lsr #3
    4b74:	0021a829 	eoreq	sl, r1, r9, lsr #16
    4b78:	00001000 	andeq	r1, r0, r0
    4b7c:	01ba2a00 			; <UNDEFINED> instruction: 0x01ba2a00
    4b80:	00000000 	andeq	r0, r0, r0
    4b84:	0001c626 	andeq	ip, r1, r6, lsr #12
    4b88:	0021d800 	eoreq	sp, r1, r0, lsl #16
    4b8c:	0001d000 	andeq	sp, r1, r0
    4b90:	01a70100 			; <UNDEFINED> instruction: 0x01a70100
    4b94:	00000879 	andeq	r0, r0, r9, ror r8
    4b98:	0001d61c 	andeq	sp, r1, ip, lsl r6
    4b9c:	00130400 	andseq	r0, r3, r0, lsl #8
    4ba0:	01d01d00 	bicseq	r1, r0, r0, lsl #26
    4ba4:	df1e0000 	svcle	0x001e0000
    4ba8:	22000001 	andcs	r0, r0, #1
    4bac:	00000013 	andeq	r0, r0, r3, lsl r0
    4bb0:	01942700 	orrseq	r2, r4, r0, lsl #14
    4bb4:	22140000 	andscs	r0, r4, #0
    4bb8:	00100000 	andseq	r0, r0, r0
    4bbc:	a9010000 	stmdbge	r1, {}	; <UNPREDICTABLE>
    4bc0:	0008ab01 	andeq	sl, r8, r1, lsl #22
    4bc4:	01af1c00 			; <UNDEFINED> instruction: 0x01af1c00
    4bc8:	13580000 	cmpne	r8, #0
    4bcc:	a4280000 	strtge	r0, [r8], #-0
    4bd0:	29000001 	stmdbcs	r0, {r0}
    4bd4:	00002214 	andeq	r2, r0, r4, lsl r2
    4bd8:	00000010 	andeq	r0, r0, r0, lsl r0
    4bdc:	0001ba2a 	andeq	fp, r1, sl, lsr #20
    4be0:	2b000000 	blcs	4be8 <__bss_end+0x1a6c>
    4be4:	0000207c 	andeq	r2, r0, ip, ror r0
    4be8:	00000992 	muleq	r0, r2, r9
    4bec:	000008c2 	andeq	r0, r0, r2, asr #17
    4bf0:	0550012c 	ldrbeq	r0, [r0, #-300]	; 0xfffffed4
    4bf4:	002e7003 	eoreq	r7, lr, r3
    4bf8:	ac2b0000 	stcge	0, cr0, [fp], #-0
    4bfc:	6f000020 	svcvs	0x00000020
    4c00:	db000002 	blle	4c10 <__bss_end+0x1a94>
    4c04:	2c000008 	stccs	0, cr0, [r0], {8}
    4c08:	78025101 	stmdavc	r2, {r0, r8, ip, lr}
    4c0c:	52012c00 	andpl	r2, r1, #0, 24
    4c10:	2b003a01 	blcs	1341c <__bss_end+0x102a0>
    4c14:	000020dc 	ldrdeq	r2, [r0], -ip
    4c18:	000002e9 	andeq	r0, r0, r9, ror #5
    4c1c:	000008fb 	strdeq	r0, [r0], -fp
    4c20:	0250012c 	subseq	r0, r0, #44, 2
    4c24:	012c0078 			; <UNDEFINED> instruction: 0x012c0078
    4c28:	007a0251 	rsbseq	r0, sl, r1, asr r2
    4c2c:	0252012c 	subseq	r0, r2, #44, 2
    4c30:	2b000079 	blcs	4e1c <__bss_end+0x1ca0>
    4c34:	0000216c 	andeq	r2, r0, ip, ror #2
    4c38:	0000026f 	andeq	r0, r0, pc, ror #4
    4c3c:	00000914 	andeq	r0, r0, r4, lsl r9
    4c40:	0251012c 	subseq	r0, r1, #44, 2
    4c44:	012c0078 			; <UNDEFINED> instruction: 0x012c0078
    4c48:	00400152 	subeq	r0, r0, r2, asr r1
    4c4c:	00219c2b 	eoreq	r9, r1, fp, lsr #24
    4c50:	0002e900 	andeq	lr, r2, r0, lsl #18
    4c54:	00093400 	andeq	r3, r9, r0, lsl #8
    4c58:	50012c00 	andpl	r2, r1, r0, lsl #24
    4c5c:	2c007802 	stccs	8, cr7, [r0], {2}
    4c60:	7a025101 	bvc	9906c <__bss_end+0x95ef0>
    4c64:	52012c00 	andpl	r2, r1, #0, 24
    4c68:	00007902 	andeq	r7, r0, r2, lsl #18
    4c6c:	0021d82b 	eoreq	sp, r1, fp, lsr #16
    4c70:	00037e00 	andeq	r7, r3, r0, lsl #28
    4c74:	00094800 	andeq	r4, r9, r0, lsl #16
    4c78:	51012c00 	tstpl	r1, r0, lsl #24
    4c7c:	00007802 	andeq	r7, r0, r2, lsl #16
    4c80:	0022082d 	eoreq	r0, r2, sp, lsr #16
    4c84:	0002e900 	andeq	lr, r2, r0, lsl #18
    4c88:	50012c00 	andpl	r2, r1, r0, lsl #24
    4c8c:	2c007802 	stccs	8, cr7, [r0], {2}
    4c90:	7a025101 	bvc	9909c <__bss_end+0x95f20>
    4c94:	52012c00 	andpl	r2, r1, #0, 24
    4c98:	00007902 	andeq	r7, r0, r2, lsl #18
    4c9c:	01091100 	mrseq	r1, (UNDEF: 25)
    4ca0:	09750000 	ldmdbeq	r5!, {}^	; <UNPREDICTABLE>
    4ca4:	73120000 	tstvc	r2, #0
    4ca8:	ff000000 			; <UNDEFINED> instruction: 0xff000000
    4cac:	17d61a00 	ldrbne	r1, [r6, r0, lsl #20]
    4cb0:	0e010000 	cdpeq	0, 0, cr0, cr1, cr0, {0}
    4cb4:	00096501 	andeq	r6, r9, r1, lsl #10
    4cb8:	70030500 	andvc	r0, r3, r0, lsl #10
    4cbc:	2e00002e 	cdpcs	0, 0, cr0, cr0, cr14, {1}
    4cc0:	00000d90 	muleq	r0, r0, sp
    4cc4:	00000d90 	muleq	r0, r0, sp
    4cc8:	ba2e3604 	blt	b924e0 <__bss_end+0xb8f364>
    4ccc:	ba000007 	blt	4cf0 <__bss_end+0x1b74>
    4cd0:	04000007 	streq	r0, [r0], #-7
    4cd4:	00820039 	addeq	r0, r2, r9, lsr r0
    4cd8:	00020000 	andeq	r0, r2, r0
    4cdc:	00000f88 	andeq	r0, r0, r8, lsl #31
    4ce0:	0fd90104 	svceq	0x00d90104
    4ce4:	22740000 	rsbscs	r0, r4, #0
    4ce8:	24500000 	ldrbcs	r0, [r0], #-0
    4cec:	72610000 	rsbvc	r0, r1, #0
    4cf0:	612f6863 			; <UNDEFINED> instruction: 0x612f6863
    4cf4:	6d2f6d72 	stcvs	13, cr6, [pc, #-456]!	; 4b34 <__bss_end+0x19b8>
    4cf8:	2d686361 	stclcs	3, cr6, [r8, #-388]!	; 0xfffffe7c
    4cfc:	786e7573 	stmdavc	lr!, {r0, r1, r4, r5, r6, r8, sl, ip, sp, lr}^
    4d00:	6d702f69 	ldclvs	15, cr2, [r0, #-420]!	; 0xfffffe5c
    4d04:	6174732f 	cmnvs	r4, pc, lsr #6
    4d08:	7962646e 	stmdbvc	r2!, {r1, r2, r3, r5, r6, sl, sp, lr}^
    4d0c:	2f2e2e2f 	svccs	0x002e2e2f
    4d10:	5f6d656d 	svcpl	0x006d656d
    4d14:	6c766964 	ldclvs	9, cr6, [r6], #-400	; 0xfffffe70
    4d18:	532e6269 			; <UNDEFINED> instruction: 0x532e6269
    4d1c:	656d2f00 	strbvs	r2, [sp, #-3840]!	; 0xfffff100
    4d20:	2f616964 	svccs	0x00616964
    4d24:	676e6164 	strbvs	r6, [lr, -r4, ror #2]!
    4d28:	6d2f756b 	cfstr32vs	mvfx7, [pc, #-428]!	; 4b84 <__bss_end+0x1a08>
    4d2c:	73696479 	cmnvc	r9, #2030043136	; 0x79000000
    4d30:	326d2f6b 	rsbcc	r2, sp, #428	; 0x1ac
    4d34:	50422f6d 	subpl	r2, r2, sp, ror #30
    4d38:	324d2d49 	subcc	r2, sp, #4672	; 0x1240
    4d3c:	73622d4d 	cmnvc	r2, #4928	; 0x1340
    4d40:	696c2f70 	stmdbvs	ip!, {r4, r5, r6, r8, r9, sl, fp, sp}^
    4d44:	2d78756e 	cfldr64cs	mvdx7, [r8, #-440]!	; 0xfffffe48
    4d48:	786e7573 	stmdavc	lr!, {r0, r1, r4, r5, r6, r8, sl, ip, sp, lr}^
    4d4c:	4e470069 	cdpmi	0, 4, cr0, cr7, cr9, {3}
    4d50:	53412055 	movtpl	r2, #4181	; 0x1055
    4d54:	322e3220 	eorcc	r3, lr, #32, 4
    4d58:	80010036 	andhi	r0, r1, r6, lsr r0
    4d5c:	0000011e 	andeq	r0, r0, lr, lsl r1
    4d60:	0f9c0004 	svceq	0x009c0004
    4d64:	01040000 	mrseq	r0, (UNDEF: 4)
    4d68:	00000000 	andeq	r0, r0, r0
    4d6c:	0018b60c 	andseq	fp, r8, ip, lsl #12
    4d70:	00015400 	andeq	r5, r1, r0, lsl #8
    4d74:	00245000 	eoreq	r5, r4, r0
    4d78:	00006000 	andeq	r6, r0, r0
    4d7c:	00108600 	andseq	r8, r0, r0, lsl #12
    4d80:	06010200 	streq	r0, [r1], -r0, lsl #4
    4d84:	00000114 	andeq	r0, r0, r4, lsl r1
    4d88:	12080102 	andne	r0, r8, #-2147483648	; 0x80000000
    4d8c:	02000001 	andeq	r0, r0, #1
    4d90:	02780502 	rsbseq	r0, r8, #8388608	; 0x800000
    4d94:	02020000 	andeq	r0, r2, #0
    4d98:	00013607 	andeq	r3, r1, r7, lsl #12
    4d9c:	12660300 	rsbne	r0, r6, #0, 6
    4da0:	12020000 	andne	r0, r2, #0
    4da4:	0000004c 	andeq	r0, r0, ip, asr #32
    4da8:	69050404 	stmdbvs	r5, {r2, sl}
    4dac:	0300746e 	movweq	r7, #1134	; 0x46e
    4db0:	00000a82 	andeq	r0, r0, r2, lsl #21
    4db4:	005e1302 	subseq	r1, lr, r2, lsl #6
    4db8:	04020000 	streq	r0, [r2], #-0
    4dbc:	0001e807 	andeq	lr, r1, r7, lsl #16
    4dc0:	05080200 	streq	r0, [r8, #-512]	; 0xfffffe00
    4dc4:	00000238 	andeq	r0, r0, r8, lsr r2
    4dc8:	de070802 	cdple	8, 0, cr0, cr7, cr2, {0}
    4dcc:	02000001 	andeq	r0, r0, #1
    4dd0:	022f0704 	eoreq	r0, pc, #4, 14	; 0x100000
    4dd4:	01020000 	mrseq	r0, (UNDEF: 2)
    4dd8:	00011b08 	andeq	r1, r1, r8, lsl #22
    4ddc:	07040200 	streq	r0, [r4, -r0, lsl #4]
    4de0:	000001e3 	andeq	r0, r0, r3, ror #3
    4de4:	00188a05 	andseq	r8, r8, r5, lsl #20
    4de8:	500e0100 	andpl	r0, lr, r0, lsl #2
    4dec:	0c000024 	stceq	0, cr0, [r0], {36}	; 0x24
    4df0:	01000000 	mrseq	r0, (UNDEF: 0)
    4df4:	0000b19c 	muleq	r0, ip, r1
    4df8:	245c0600 	ldrbcs	r0, [ip], #-1536	; 0xfffffa00
    4dfc:	01160000 	tsteq	r6, r0
    4e00:	01070000 	mrseq	r0, (UNDEF: 7)
    4e04:	70030550 	andvc	r0, r3, r0, asr r5
    4e08:	0000002d 	andeq	r0, r0, sp, lsr #32
    4e0c:	13460800 	movtne	r0, #26624	; 0x6800
    4e10:	13010000 	movwne	r0, #4096	; 0x1000
    4e14:	00000053 	andeq	r0, r0, r3, asr r0
    4e18:	0000245c 	andeq	r2, r0, ip, asr r4
    4e1c:	00000054 	andeq	r0, r0, r4, asr r0
    4e20:	01169c01 	tsteq	r6, r1, lsl #24
    4e24:	a6090000 	strge	r0, [r9], -r0
    4e28:	01000018 	tsteq	r0, r8, lsl r0
    4e2c:	00005313 	andeq	r5, r0, r3, lsl r3
    4e30:	00137800 	andseq	r7, r3, r0, lsl #16
    4e34:	189d0900 	ldmne	sp, {r8, fp}
    4e38:	13010000 	movwne	r0, #4096	; 0x1000
    4e3c:	00000053 	andeq	r0, r0, r3, asr r0
    4e40:	000013af 	andeq	r1, r0, pc, lsr #7
    4e44:	0018af0a 	andseq	sl, r8, sl, lsl #30
    4e48:	53150100 	tstpl	r5, #0, 2
    4e4c:	db000000 	blle	4e54 <__bss_end+0x1cd8>
    4e50:	0a000013 	beq	4ea4 <__bss_end+0x1d28>
    4e54:	00001895 	muleq	r0, r5, r8
    4e58:	00531601 	subseq	r1, r3, r1, lsl #12
    4e5c:	14130000 	ldrne	r0, [r3], #-0
    4e60:	e60a0000 	str	r0, [sl], -r0
    4e64:	01000018 	tsteq	r0, r8, lsl r0
    4e68:	00004117 	andeq	r4, r0, r7, lsl r1
    4e6c:	00143e00 	andseq	r3, r4, r0, lsl #28
    4e70:	ff0b0000 			; <UNDEFINED> instruction: 0xff0b0000
    4e74:	ff00000a 			; <UNDEFINED> instruction: 0xff00000a
    4e78:	0300000a 	movweq	r0, #10
    4e7c:	02fb0018 	rscseq	r0, fp, #24
    4e80:	00040000 	andeq	r0, r4, r0
    4e84:	00001052 	andeq	r1, r0, r2, asr r0
    4e88:	00000104 	andeq	r0, r0, r4, lsl #2
    4e8c:	000c0000 	andeq	r0, ip, r0
    4e90:	54000019 	strpl	r0, [r0], #-25	; 0xffffffe7
    4e94:	b0000001 	andlt	r0, r0, r1
    4e98:	80000024 	andhi	r0, r0, r4, lsr #32
    4e9c:	1a000001 	bne	4ea8 <__bss_end+0x1d2c>
    4ea0:	02000011 	andeq	r0, r0, #17
    4ea4:	01140601 	tsteq	r4, r1, lsl #12
    4ea8:	01020000 	mrseq	r0, (UNDEF: 2)
    4eac:	00011208 	andeq	r1, r1, r8, lsl #4
    4eb0:	05020200 	streq	r0, [r2, #-512]	; 0xfffffe00
    4eb4:	00000278 	andeq	r0, r0, r8, ror r2
    4eb8:	36070202 	strcc	r0, [r7], -r2, lsl #4
    4ebc:	03000001 	movweq	r0, #1
    4ec0:	00001266 	andeq	r1, r0, r6, ror #4
    4ec4:	004c1202 	subeq	r1, ip, r2, lsl #4
    4ec8:	04040000 	streq	r0, [r4], #-0
    4ecc:	746e6905 	strbtvc	r6, [lr], #-2309	; 0xfffff6fb
    4ed0:	0a820300 	beq	fe085ad8 <__bss_end+0xfe08295c>
    4ed4:	13020000 	movwne	r0, #8192	; 0x2000
    4ed8:	0000005e 	andeq	r0, r0, lr, asr r0
    4edc:	e8070402 	stmda	r7, {r1, sl}
    4ee0:	02000001 	andeq	r0, r0, #1
    4ee4:	02380508 	eorseq	r0, r8, #8, 10	; 0x2000000
    4ee8:	08020000 	stmdaeq	r2, {}	; <UNPREDICTABLE>
    4eec:	0001de07 	andeq	sp, r1, r7, lsl #28
    4ef0:	00530500 	subseq	r0, r3, r0, lsl #10
    4ef4:	04020000 	streq	r0, [r2], #-0
    4ef8:	00022f07 	andeq	r2, r2, r7, lsl #30
    4efc:	19980600 	ldmibne	r8, {r9, sl}
    4f00:	5e040000 	cdppl	0, 0, cr0, cr4, cr0, {0}
    4f04:	03000000 	movweq	r0, #0
    4f08:	00012c18 	andeq	r2, r1, r8, lsl ip
    4f0c:	1ad80700 	bne	ff606b14 <__bss_end+0xff603998>
    4f10:	07320000 	ldreq	r0, [r2, -r0]!
    4f14:	00001aea 	andeq	r1, r0, sl, ror #21
    4f18:	19680733 	stmdbne	r8!, {r0, r1, r4, r5, r8, r9, sl}^
    4f1c:	07000000 	streq	r0, [r0, -r0]
    4f20:	00001a67 	andeq	r1, r0, r7, ror #20
    4f24:	1ab4073e 	bne	fed06c24 <__bss_end+0xfed03aa8>
    4f28:	07400000 	strbeq	r0, [r0, -r0]
    4f2c:	00001b31 	andeq	r1, r0, r1, lsr fp
    4f30:	1b4b0751 	blne	12c6c7c <__bss_end+0x12c3b00>
    4f34:	07000000 	streq	r0, [r0, -r0]
    4f38:	00001b13 	andeq	r1, r0, r3, lsl fp
    4f3c:	1b220700 	blne	886b44 <__bss_end+0x8839c8>
    4f40:	07000000 	streq	r0, [r0, -r0]
    4f44:	00001a55 	andeq	r1, r0, r5, asr sl
    4f48:	192c0767 	stmdbne	ip!, {r0, r1, r2, r5, r6, r8, r9, sl}
    4f4c:	07680000 	strbeq	r0, [r8, -r0]!
    4f50:	00001940 	andeq	r1, r0, r0, asr #18
    4f54:	19540700 	ldmdbne	r4, {r8, r9, sl}^
    4f58:	07000000 	streq	r0, [r0, -r0]
    4f5c:	00001a78 	andeq	r1, r0, r8, ror sl
    4f60:	1a8c0769 	bne	fe306d0c <__bss_end+0xfe303b90>
    4f64:	07000000 	streq	r0, [r0, -r0]
    4f68:	00001aa0 	andeq	r1, r0, r0, lsr #21
    4f6c:	19ab0700 	stmibne	fp!, {r8, r9, sl}
    4f70:	072b0000 	streq	r0, [fp, -r0]!
    4f74:	000019bc 			; <UNDEFINED> instruction: 0x000019bc
    4f78:	19cd072f 	stmibne	sp, {r0, r1, r2, r3, r5, r8, r9, sl}^
    4f7c:	07000000 	streq	r0, [r0, -r0]
    4f80:	000019de 	ldrdeq	r1, [r0], -lr
    4f84:	19ef0700 	stmibne	pc!, {r8, r9, sl}^	; <UNPREDICTABLE>
    4f88:	07000000 	streq	r0, [r0, -r0]
    4f8c:	00001a00 	andeq	r1, r0, r0, lsl #20
    4f90:	1a110700 	bne	446b98 <__bss_end+0x443a1c>
    4f94:	07310000 	ldreq	r0, [r1, -r0]!
    4f98:	00001a22 	andeq	r1, r0, r2, lsr #20
    4f9c:	1a330700 	bne	cc6ba4 <__bss_end+0xcc3a28>
    4fa0:	07000000 	streq	r0, [r0, -r0]
    4fa4:	00001a44 	andeq	r1, r0, r4, asr #20
    4fa8:	0b060000 	bleq	184fb0 <__bss_end+0x181e34>
    4fac:	04000002 	streq	r0, [r0], #-2
    4fb0:	0000005e 	andeq	r0, r0, lr, asr r0
    4fb4:	01bb8904 			; <UNDEFINED> instruction: 0x01bb8904
    4fb8:	d4070000 	strle	r0, [r7], #-0
    4fbc:	00000000 	andeq	r0, r0, r0
    4fc0:	00012907 	andeq	r2, r1, r7, lsl #18
    4fc4:	e1070100 	mrs	r0, (UNDEF: 23)
    4fc8:	02000000 	andeq	r0, r0, #0
    4fcc:	00010607 	andeq	r0, r1, r7, lsl #12
    4fd0:	53070300 	movwpl	r0, #29440	; 0x7300
    4fd4:	04000002 	streq	r0, [r0], #-2
    4fd8:	0001d207 	andeq	sp, r1, r7, lsl #4
    4fdc:	ba070500 	blt	1c63e4 <__bss_end+0x1c3268>
    4fe0:	06000001 	streq	r0, [r0], -r1
    4fe4:	0001f507 	andeq	pc, r1, r7, lsl #10
    4fe8:	c8070700 	stmdagt	r7, {r8, r9, sl}
    4fec:	08000000 	stmdaeq	r0, {}	; <UNPREDICTABLE>
    4ff0:	0000fb07 	andeq	pc, r0, r7, lsl #22
    4ff4:	c7070900 	strgt	r0, [r7, -r0, lsl #18]
    4ff8:	0a000001 	beq	5004 <__bss_end+0x1e88>
    4ffc:	00026d07 	andeq	r6, r2, r7, lsl #26
    5000:	05070b00 	streq	r0, [r7, #-2816]	; 0xfffff500
    5004:	0c000002 	stceq	0, cr0, [r0], {2}
    5008:	00022107 	andeq	r2, r2, r7, lsl #2
    500c:	1a070d00 	bne	1c8414 <__bss_end+0x1c5298>
    5010:	0e000003 	cdpeq	0, 0, cr0, cr0, cr3, {0}
    5014:	00025f07 	andeq	r5, r2, r7, lsl #30
    5018:	ea070f00 	b	1c8c20 <__bss_end+0x1c5aa4>
    501c:	10000002 	andne	r0, r0, r2
    5020:	00024607 	andeq	r4, r2, r7, lsl #12
    5024:	04071100 	streq	r1, [r7], #-256	; 0xffffff00
    5028:	12000003 	andne	r0, r0, #3
    502c:	0000ee07 	andeq	lr, r0, r7, lsl #28
    5030:	cf071300 	svcgt	0x00071300
    5034:	14000002 	strne	r0, [r0], #-2
    5038:	08010200 	stmdaeq	r1, {r9}
    503c:	0000011b 	andeq	r0, r0, fp, lsl r1
    5040:	e3070402 	movw	r0, #29698	; 0x7402
    5044:	08000001 	stmdaeq	r0, {r0}
    5048:	197c0904 	ldmdbne	ip!, {r2, r8, fp}^
    504c:	22010000 	andcs	r0, r1, #0
    5050:	00000041 	andeq	r0, r0, r1, asr #32
    5054:	000024b0 			; <UNDEFINED> instruction: 0x000024b0
    5058:	00000090 	muleq	r0, r0, r0
    505c:	02059c01 	andeq	r9, r5, #256	; 0x100
    5060:	690a0000 	stmdbvs	sl, {}	; <UNPREDICTABLE>
    5064:	53240100 			; <UNDEFINED> instruction: 0x53240100
    5068:	8c000000 	stchi	0, cr0, [r0], {-0}
    506c:	0b000014 	bleq	50c4 <__bss_end+0x1f48>
    5070:	00002530 	andeq	r2, r0, r0, lsr r5
    5074:	000002f3 	strdeq	r0, [r0], -r3
    5078:	0550010c 	ldrbeq	r0, [r0, #-268]	; 0xfffffef4
    507c:	002d8c03 	eoreq	r8, sp, r3, lsl #24
    5080:	09000000 	stmdbeq	r0, {}	; <UNPREDICTABLE>
    5084:	000018f3 	strdeq	r1, [r0], -r3
    5088:	00415701 	subeq	r5, r1, r1, lsl #14
    508c:	25400000 	strbcs	r0, [r0, #-0]
    5090:	00500000 	subseq	r0, r0, r0
    5094:	9c010000 	stcls	0, cr0, [r1], {-0}
    5098:	0000023a 	andeq	r0, r0, sl, lsr r2
    509c:	0100690a 	tsteq	r0, sl, lsl #18
    50a0:	00004c59 	andeq	r4, r0, r9, asr ip
    50a4:	0014fa00 	andseq	pc, r4, r0, lsl #20
    50a8:	1ac60d00 	bne	ff1884b0 <__bss_end+0xff185334>
    50ac:	5a010000 	bpl	450b4 <__bss_end+0x41f38>
    50b0:	00000073 	andeq	r0, r0, r3, ror r0
    50b4:	007c9102 	rsbseq	r9, ip, r2, lsl #2
    50b8:	00198909 	andseq	r8, r9, r9, lsl #18
    50bc:	41710100 	cmnmi	r1, r0, lsl #2
    50c0:	90000000 	andls	r0, r0, r0
    50c4:	4c000025 	stcmi	0, cr0, [r0], {37}	; 0x25
    50c8:	01000000 	mrseq	r0, (UNDEF: 0)
    50cc:	0002819c 	muleq	r2, ip, r1
    50d0:	72730e00 	rsbsvc	r0, r3, #0, 28
    50d4:	71010063 	tstvc	r1, r3, rrx
    50d8:	0000007f 	andeq	r0, r0, pc, ror r0
    50dc:	0000153e 	andeq	r1, r0, lr, lsr r5
    50e0:	001b440f 	andseq	r4, fp, pc, lsl #8
    50e4:	53730100 	cmnpl	r3, #0, 2
    50e8:	5f000000 	svcpl	0x00000000
    50ec:	0f000015 	svceq	0x00000015
    50f0:	00001ad1 	ldrdeq	r1, [r0], -r1	; <UNPREDICTABLE>
    50f4:	00537401 	subseq	r7, r3, r1, lsl #8
    50f8:	15910000 	ldrne	r0, [r1]
    50fc:	09000000 	stmdbeq	r0, {}	; <UNPREDICTABLE>
    5100:	00001b05 	andeq	r1, r0, r5, lsl #22
    5104:	00419301 	subeq	r9, r1, r1, lsl #6
    5108:	25dc0000 	ldrbcs	r0, [ip]
    510c:	00540000 	subseq	r0, r4, r0
    5110:	9c010000 	stcls	0, cr0, [r1], {-0}
    5114:	000002d7 	ldrdeq	r0, [r0], -r7
    5118:	6372730e 	cmnvs	r2, #939524096	; 0x38000000
    511c:	7f930100 	svcvc	0x00930100
    5120:	b4000000 	strlt	r0, [r0], #-0
    5124:	0f000015 	svceq	0x00000015
    5128:	000018ec 	andeq	r1, r0, ip, ror #17
    512c:	00419501 	subeq	r9, r1, r1, lsl #10
    5130:	15d50000 	ldrbne	r0, [r5]
    5134:	440f0000 	strmi	r0, [pc], #-0	; 513c <__bss_end+0x1fc0>
    5138:	0100001b 	tsteq	r0, fp, lsl r0
    513c:	00005396 	muleq	r0, r6, r3
    5140:	00160700 	andseq	r0, r6, r0, lsl #14
    5144:	1ad10f00 	bne	ff448d4c <__bss_end+0xff445bd0>
    5148:	97010000 	strls	r0, [r1, -r0]
    514c:	00000053 	andeq	r0, r0, r3, asr r0
    5150:	00001635 	andeq	r1, r0, r5, lsr r6
    5154:	1afc0d00 	bne	fff0855c <__bss_end+0xfff053e0>
    5158:	14010000 	strne	r0, [r1], #-0
    515c:	000001c9 	andeq	r0, r0, r9, asr #3
    5160:	2f700305 	svccs	0x00700305
    5164:	5c100000 	ldcpl	0, cr0, [r0], {-0}
    5168:	0100001b 	tsteq	r0, fp, lsl r0
    516c:	0001c915 	andeq	ip, r1, r5, lsl r9
    5170:	0aff1100 	beq	fffc9578 <__bss_end+0xfffc63fc>
    5174:	0aff0000 	beq	fffc517c <__bss_end+0xfffc2000>
    5178:	18050000 	stmdane	r5, {}	; <UNPREDICTABLE>
    517c:	00011d00 	andeq	r1, r1, r0, lsl #26
    5180:	3e000400 	cfcpyscc	mvf0, mvf0
    5184:	04000011 	streq	r0, [r0], #-17	; 0xffffffef
    5188:	00000001 	andeq	r0, r0, r1
    518c:	1b900c00 	blne	fe408194 <__bss_end+0xfe405018>
    5190:	01540000 	cmpeq	r4, r0
    5194:	26300000 	ldrtcs	r0, [r0], -r0
    5198:	00580000 	subseq	r0, r8, r0
    519c:	12400000 	subne	r0, r0, #0
    51a0:	01020000 	mrseq	r0, (UNDEF: 2)
    51a4:	00011406 	andeq	r1, r1, r6, lsl #8
    51a8:	08010200 	stmdaeq	r1, {r9}
    51ac:	00000112 	andeq	r0, r0, r2, lsl r1
    51b0:	78050202 	stmdavc	r5, {r1, r9}
    51b4:	02000002 	andeq	r0, r0, #2
    51b8:	01360702 	teqeq	r6, r2, lsl #14
    51bc:	66030000 	strvs	r0, [r3], -r0
    51c0:	02000012 	andeq	r0, r0, #18
    51c4:	00004c12 	andeq	r4, r0, r2, lsl ip
    51c8:	05040400 	streq	r0, [r4, #-1024]	; 0xfffffc00
    51cc:	00746e69 	rsbseq	r6, r4, r9, ror #28
    51d0:	000a8203 	andeq	r8, sl, r3, lsl #4
    51d4:	5e130200 	cdppl	2, 1, cr0, cr3, cr0, {0}
    51d8:	02000000 	andeq	r0, r0, #0
    51dc:	01e80704 	mvneq	r0, r4, lsl #14
    51e0:	08020000 	stmdaeq	r2, {}	; <UNPREDICTABLE>
    51e4:	00023805 	andeq	r3, r2, r5, lsl #16
    51e8:	07080200 	streq	r0, [r8, -r0, lsl #4]
    51ec:	000001de 	ldrdeq	r0, [r0], -lr
    51f0:	2f070402 	svccs	0x00070402
    51f4:	05000002 	streq	r0, [r0, #-2]
    51f8:	00001b85 	andeq	r1, r0, r5, lsl #23
    51fc:	1603025c 			; <UNDEFINED> instruction: 0x1603025c
    5200:	00000094 	muleq	r0, r4, r0
    5204:	001b7606 	andseq	r7, fp, r6, lsl #12
    5208:	94170300 	ldrls	r0, [r7], #-768	; 0xfffffd00
    520c:	00000000 	andeq	r0, r0, r0
    5210:	00530700 	subseq	r0, r3, r0, lsl #14
    5214:	00a40000 	adceq	r0, r4, r0
    5218:	73080000 	movwvc	r0, #32768	; 0x8000
    521c:	96000000 	strls	r0, [r0], -r0
    5220:	08010200 	stmdaeq	r1, {r9}
    5224:	0000011b 	andeq	r0, r0, fp, lsl r1
    5228:	e3070402 	movw	r0, #29698	; 0x7402
    522c:	09000001 	stmdbeq	r0, {r0}
    5230:	00001bbd 			; <UNDEFINED> instruction: 0x00001bbd
    5234:	00411a01 	subeq	r1, r1, r1, lsl #20
    5238:	26300000 	ldrtcs	r0, [r0], -r0
    523c:	002c0000 	eoreq	r0, ip, r0
    5240:	9c010000 	stcls	0, cr0, [r1], {-0}
    5244:	000000e8 	andeq	r0, r0, r8, ror #1
    5248:	001b840a 	andseq	r8, fp, sl, lsl #8
    524c:	e81a0100 	ldmda	sl, {r8}
    5250:	73000000 	movwvc	r0, #0
    5254:	0b000016 	bleq	52b4 <__bss_end+0x2138>
    5258:	1c010069 	stcne	0, cr0, [r1], {105}	; 0x69
    525c:	0000004c 	andeq	r0, r0, ip, asr #32
    5260:	000016a1 	andeq	r1, r0, r1, lsr #13
    5264:	7a040c00 	bvc	10826c <__bss_end+0x1050f0>
    5268:	0d000000 	stceq	0, cr0, [r0, #-0]
    526c:	00001b65 	andeq	r1, r0, r5, ror #22
    5270:	00413001 	subeq	r3, r1, r1
    5274:	265c0000 	ldrbcs	r0, [ip], -r0
    5278:	002c0000 	eoreq	r0, ip, r0
    527c:	9c010000 	stcls	0, cr0, [r1], {-0}
    5280:	001b840a 	andseq	r8, fp, sl, lsl #8
    5284:	e8300100 	ldmda	r0!, {r8}
    5288:	b5000000 	strlt	r0, [r0, #-0]
    528c:	0b000016 	bleq	52ec <__bss_end+0x2170>
    5290:	32010069 	andcc	r0, r1, #105	; 0x69
    5294:	0000004c 	andeq	r0, r0, ip, asr #32
    5298:	000016e3 	andeq	r1, r0, r3, ror #13
    529c:	04470000 	strbeq	r0, [r7], #-0
    52a0:	00040000 	andeq	r0, r4, r0
    52a4:	00001202 	andeq	r1, r0, r2, lsl #4
    52a8:	00000104 	andeq	r0, r0, r4, lsl #2
    52ac:	710c0000 	mrsvc	r0, (UNDEF: 12)
    52b0:	5400001c 	strpl	r0, [r0], #-28	; 0xffffffe4
    52b4:	88000001 	stmdahi	r0, {r0}
    52b8:	e0000026 	and	r0, r0, r6, lsr #32
    52bc:	e5000001 	str	r0, [r0, #-1]
    52c0:	02000012 	andeq	r0, r0, #18
    52c4:	01140601 	tsteq	r4, r1, lsl #12
    52c8:	01020000 	mrseq	r0, (UNDEF: 2)
    52cc:	00011208 	andeq	r1, r1, r8, lsl #4
    52d0:	05020200 	streq	r0, [r2, #-512]	; 0xfffffe00
    52d4:	00000278 	andeq	r0, r0, r8, ror r2
    52d8:	36070202 	strcc	r0, [r7], -r2, lsl #4
    52dc:	03000001 	movweq	r0, #1
    52e0:	00001266 	andeq	r1, r0, r6, ror #4
    52e4:	004c1202 	subeq	r1, ip, r2, lsl #4
    52e8:	04040000 	streq	r0, [r4], #-0
    52ec:	746e6905 	strbtvc	r6, [lr], #-2309	; 0xfffff6fb
    52f0:	0a820300 	beq	fe085ef8 <__bss_end+0xfe082d7c>
    52f4:	13020000 	movwne	r0, #8192	; 0x2000
    52f8:	0000005e 	andeq	r0, r0, lr, asr r0
    52fc:	e8070402 	stmda	r7, {r1, sl}
    5300:	02000001 	andeq	r0, r0, #1
    5304:	02380508 	eorseq	r0, r8, #8, 10	; 0x2000000
    5308:	08020000 	stmdaeq	r2, {}	; <UNPREDICTABLE>
    530c:	0001de07 	andeq	sp, r1, r7, lsl #28
    5310:	00530500 	subseq	r0, r3, r0, lsl #10
    5314:	53060000 	movwpl	r0, #24576	; 0x6000
    5318:	88000000 	stmdahi	r0, {}	; <UNPREDICTABLE>
    531c:	07000000 	streq	r0, [r0, -r0]
    5320:	00000088 	andeq	r0, r0, r8, lsl #1
    5324:	04020003 	streq	r0, [r2], #-3
    5328:	00022f07 	andeq	r2, r2, r7, lsl #30
    532c:	00530600 	subseq	r0, r3, r0, lsl #12
    5330:	009f0000 	addseq	r0, pc, r0
    5334:	88070000 	stmdahi	r7, {}	; <UNPREDICTABLE>
    5338:	01000000 	mrseq	r0, (UNDEF: 0)
    533c:	1d4c0800 	stclne	8, cr0, [ip, #-0]
    5340:	03bc0000 			; <UNDEFINED> instruction: 0x03bc0000
    5344:	00026815 	andeq	r6, r2, r5, lsl r8
    5348:	1be10900 	blne	ff847750 <__bss_end+0xff8445d4>
    534c:	18030000 	stmdane	r3, {}	; <UNPREDICTABLE>
    5350:	00000073 	andeq	r0, r0, r3, ror r0
    5354:	1daa0900 	stcne	9, cr0, [sl]
    5358:	19030000 	stmdbne	r3, {}	; <UNPREDICTABLE>
    535c:	00000073 	andeq	r0, r0, r3, ror r0
    5360:	0d360904 	ldceq	9, cr0, [r6, #-16]!
    5364:	1a030000 	bne	c536c <__bss_end+0xc21f0>
    5368:	00000268 	andeq	r0, r0, r8, ror #4
    536c:	1def0908 	stclne	9, cr0, [pc, #32]!	; 5394 <__bss_end+0x2218>
    5370:	1c030000 	stcne	0, cr0, [r3], {-0}
    5374:	00000073 	andeq	r0, r0, r3, ror r0
    5378:	1be80910 	blne	ffa077c0 <__bss_end+0xffa04644>
    537c:	1d030000 	stcne	0, cr0, [r3, #-0]
    5380:	00000073 	andeq	r0, r0, r3, ror r0
    5384:	1c160914 	ldcne	9, cr0, [r6], {20}
    5388:	1e030000 	cdpne	0, 0, cr0, cr3, cr0, {0}
    538c:	00000073 	andeq	r0, r0, r3, ror r0
    5390:	0d400918 	stcleq	9, cr0, [r0, #-96]	; 0xffffffa0
    5394:	1f030000 	svcne	0x00030000
    5398:	00000073 	andeq	r0, r0, r3, ror r0
    539c:	1c0e091c 	stcne	9, cr0, [lr], {28}
    53a0:	21030000 	mrscs	r0, (UNDEF: 3)
    53a4:	00000073 	andeq	r0, r0, r3, ror r0
    53a8:	1d7e0920 	ldclne	9, cr0, [lr, #-128]!	; 0xffffff80
    53ac:	22030000 	andcs	r0, r3, #0
    53b0:	00000073 	andeq	r0, r0, r3, ror r0
    53b4:	1db10924 	ldcne	9, cr0, [r1, #144]!	; 0x90
    53b8:	23030000 	movwcs	r0, #12288	; 0x3000
    53bc:	00000073 	andeq	r0, r0, r3, ror r0
    53c0:	0d4a0928 	stcleq	9, cr0, [sl, #-160]	; 0xffffff60
    53c4:	24030000 	strcs	r0, [r3], #-0
    53c8:	00000073 	andeq	r0, r0, r3, ror r0
    53cc:	1cd6092c 	ldclne	9, cr0, [r6], {44}	; 0x2c
    53d0:	26030000 	strcs	r0, [r3], -r0
    53d4:	00000073 	andeq	r0, r0, r3, ror r0
    53d8:	1c290930 	stcne	9, cr0, [r9], #-192	; 0xffffff40
    53dc:	27030000 	strcs	r0, [r3, -r0]
    53e0:	00000073 	andeq	r0, r0, r3, ror r0
    53e4:	1c440934 	mcrrne	9, 3, r0, r4, cr4
    53e8:	28030000 	stmdacs	r3, {}	; <UNPREDICTABLE>
    53ec:	00000073 	andeq	r0, r0, r3, ror r0
    53f0:	0d540938 	ldcleq	9, cr0, [r4, #-224]	; 0xffffff20
    53f4:	29030000 	stmdbcs	r3, {}	; <UNPREDICTABLE>
    53f8:	00000073 	andeq	r0, r0, r3, ror r0
    53fc:	1d9b093c 	ldcne	9, cr0, [fp, #240]	; 0xf0
    5400:	2b030000 	blcs	c5408 <__bss_end+0xc228c>
    5404:	00000073 	andeq	r0, r0, r3, ror r0
    5408:	1dbc0940 	ldcne	9, cr0, [ip, #256]!	; 0x100
    540c:	2c030000 	stccs	0, cr0, [r3], {-0}
    5410:	00000073 	andeq	r0, r0, r3, ror r0
    5414:	0d5e0944 	ldcleq	9, cr0, [lr, #-272]	; 0xfffffef0
    5418:	2d030000 	stccs	0, cr0, [r3, #-0]
    541c:	0000026d 	andeq	r0, r0, sp, ror #4
    5420:	1df70948 	ldclne	9, cr0, [r7, #288]!	; 0x120
    5424:	2f030000 	svccs	0x00030000
    5428:	00000073 	andeq	r0, r0, r3, ror r0
    542c:	1c9d0950 	ldcne	9, cr0, [sp], {80}	; 0x50
    5430:	30030000 	andcc	r0, r3, r0
    5434:	00000073 	andeq	r0, r0, r3, ror r0
    5438:	1ca80954 	stcne	9, cr0, [r8], #336	; 0x150
    543c:	31030000 	mrscc	r0, (UNDEF: 3)
    5440:	00000073 	andeq	r0, r0, r3, ror r0
    5444:	0d680958 	stcleq	9, cr0, [r8, #-352]!	; 0xfffffea0
    5448:	32030000 	andcc	r0, r3, #0
    544c:	00000073 	andeq	r0, r0, r3, ror r0
    5450:	1c21095c 	stcne	9, cr0, [r1], #-368	; 0xfffffe90
    5454:	34030000 	strcc	r0, [r3], #-0
    5458:	00000073 	andeq	r0, r0, r3, ror r0
    545c:	1d730960 	ldclne	9, cr0, [r3, #-384]!	; 0xfffffe80
    5460:	35030000 	strcc	r0, [r3, #-0]
    5464:	00000073 	andeq	r0, r0, r3, ror r0
    5468:	1ddd0964 	ldclne	9, cr0, [sp, #400]	; 0x190
    546c:	36030000 	strcc	r0, [r3], -r0
    5470:	00000073 	andeq	r0, r0, r3, ror r0
    5474:	0d720968 	ldcleq	9, cr0, [r2, #-416]!	; 0xfffffe60
    5478:	37030000 	strcc	r0, [r3, -r0]
    547c:	00000282 	andeq	r0, r0, r2, lsl #5
    5480:	1da3096c 	stcne	9, cr0, [r3, #432]!	; 0x1b0
    5484:	39030000 	stmdbcc	r3, {}	; <UNPREDICTABLE>
    5488:	00000073 	andeq	r0, r0, r3, ror r0
    548c:	1dd50980 	ldclne	9, cr0, [r5, #512]	; 0x200
    5490:	3a030000 	bcc	c5498 <__bss_end+0xc231c>
    5494:	00000073 	andeq	r0, r0, r3, ror r0
    5498:	1bd90984 	blne	ff647ab0 <__bss_end+0xff644934>
    549c:	3b030000 	blcc	c54a4 <__bss_end+0xc2328>
    54a0:	00000073 	andeq	r0, r0, r3, ror r0
    54a4:	1d940988 	ldcne	9, cr0, [r4, #544]	; 0x220
    54a8:	3c030000 	stccc	0, cr0, [r3], {-0}
    54ac:	00000073 	andeq	r0, r0, r3, ror r0
    54b0:	0d7c098c 	ldcleq	9, cr0, [ip, #-560]!	; 0xfffffdd0
    54b4:	3f030000 	svccc	0x00030000
    54b8:	00000287 	andeq	r0, r0, r7, lsl #5
    54bc:	1d280990 	stcne	9, cr0, [r8, #-576]!	; 0xfffffdc0
    54c0:	42030000 	andmi	r0, r3, #0
    54c4:	00000073 	andeq	r0, r0, r3, ror r0
    54c8:	1bcb09a0 	blne	ff2c7b50 <__bss_end+0xff2c49d4>
    54cc:	43030000 	movwmi	r0, #12288	; 0x3000
    54d0:	00000073 	andeq	r0, r0, r3, ror r0
    54d4:	1ccc09a4 	stclne	9, cr0, [ip], {164}	; 0xa4
    54d8:	44030000 	strmi	r0, [r3], #-0
    54dc:	0000028c 	andeq	r0, r0, ip, lsl #5
    54e0:	1bf309a8 	blne	ffcc7b88 <__bss_end+0xffcc4a0c>
    54e4:	47030000 	strmi	r0, [r3, -r0]
    54e8:	00000073 	andeq	r0, r0, r3, ror r0
    54ec:	1dc709b0 	stclne	9, cr0, [r7, #704]	; 0x2c0
    54f0:	48030000 	stmdami	r3, {}	; <UNPREDICTABLE>
    54f4:	00000073 	andeq	r0, r0, r3, ror r0
    54f8:	1cde09b4 	ldclne	9, cr0, [lr], {180}	; 0xb4
    54fc:	49030000 	stmdbmi	r3, {}	; <UNPREDICTABLE>
    5500:	00000073 	andeq	r0, r0, r3, ror r0
    5504:	8f0500b8 	svchi	0x000500b8
    5508:	05000000 	streq	r0, [r0, #-0]
    550c:	0000008f 	andeq	r0, r0, pc, lsl #1
    5510:	00005306 	andeq	r5, r0, r6, lsl #6
    5514:	00028200 	andeq	r8, r2, r0, lsl #4
    5518:	00880700 	addeq	r0, r8, r0, lsl #14
    551c:	00040000 	andeq	r0, r4, r0
    5520:	00027205 	andeq	r7, r2, r5, lsl #4
    5524:	00780500 	rsbseq	r0, r8, r0, lsl #10
    5528:	8f050000 	svchi	0x00050000
    552c:	03000000 	movweq	r0, #0
    5530:	00001c34 	andeq	r1, r0, r4, lsr ip
    5534:	009f4b03 	addseq	r4, pc, r3, lsl #22
    5538:	0b0a0000 	bleq	285540 <__bss_end+0x2823c4>
    553c:	04000002 	streq	r0, [r0], #-2
    5540:	0000005e 	andeq	r0, r0, lr, asr r0
    5544:	032b8904 			; <UNDEFINED> instruction: 0x032b8904
    5548:	d40b0000 	strle	r0, [fp], #-0
    554c:	00000000 	andeq	r0, r0, r0
    5550:	0001290b 	andeq	r2, r1, fp, lsl #18
    5554:	e10b0100 	mrs	r0, (UNDEF: 27)
    5558:	02000000 	andeq	r0, r0, #0
    555c:	0001060b 	andeq	r0, r1, fp, lsl #12
    5560:	530b0300 	movwpl	r0, #45824	; 0xb300
    5564:	04000002 	streq	r0, [r0], #-2
    5568:	0001d20b 	andeq	sp, r1, fp, lsl #4
    556c:	ba0b0500 	blt	2c6974 <__bss_end+0x2c37f8>
    5570:	06000001 	streq	r0, [r0], -r1
    5574:	0001f50b 	andeq	pc, r1, fp, lsl #10
    5578:	c80b0700 	stmdagt	fp, {r8, r9, sl}
    557c:	08000000 	stmdaeq	r0, {}	; <UNPREDICTABLE>
    5580:	0000fb0b 	andeq	pc, r0, fp, lsl #22
    5584:	c70b0900 	strgt	r0, [fp, -r0, lsl #18]
    5588:	0a000001 	beq	5594 <__bss_end+0x2418>
    558c:	00026d0b 	andeq	r6, r2, fp, lsl #26
    5590:	050b0b00 	streq	r0, [fp, #-2816]	; 0xfffff500
    5594:	0c000002 	stceq	0, cr0, [r0], {2}
    5598:	0002210b 	andeq	r2, r2, fp, lsl #2
    559c:	1a0b0d00 	bne	2c89a4 <__bss_end+0x2c5828>
    55a0:	0e000003 	cdpeq	0, 0, cr0, cr0, cr3, {0}
    55a4:	00025f0b 	andeq	r5, r2, fp, lsl #30
    55a8:	ea0b0f00 	b	2c91b0 <__bss_end+0x2c6034>
    55ac:	10000002 	andne	r0, r0, r2
    55b0:	0002460b 	andeq	r4, r2, fp, lsl #12
    55b4:	040b1100 	streq	r1, [fp], #-256	; 0xffffff00
    55b8:	12000003 	andne	r0, r0, #3
    55bc:	0000ee0b 	andeq	lr, r0, fp, lsl #28
    55c0:	cf0b1300 	svcgt	0x000b1300
    55c4:	14000002 	strne	r0, [r0], #-2
    55c8:	08010200 	stmdaeq	r1, {r9}
    55cc:	0000011b 	andeq	r0, r0, fp, lsl r1
    55d0:	e3070402 	movw	r0, #29698	; 0x7402
    55d4:	0c000001 	stceq	0, cr0, [r0], {1}
    55d8:	00001dff 	strdeq	r1, [r0], -pc	; <UNPREDICTABLE>
    55dc:	00411c01 	subeq	r1, r1, r1, lsl #24
    55e0:	26880000 	strcs	r0, [r8], r0
    55e4:	00580000 	subseq	r0, r8, r0
    55e8:	9c010000 	stcls	0, cr0, [r1], {-0}
    55ec:	00000362 	andeq	r0, r0, r2, ror #6
    55f0:	001d890d 	andseq	r8, sp, sp, lsl #18
    55f4:	621c0100 	andsvs	r0, ip, #0, 2
    55f8:	f7000003 			; <UNDEFINED> instruction: 0xf7000003
    55fc:	00000016 	andeq	r0, r0, r6, lsl r0
    5600:	0291040e 	addseq	r0, r1, #234881024	; 0xe000000
    5604:	3c0c0000 	stccc	0, cr0, [ip], {-0}
    5608:	0100001d 	tsteq	r0, sp, lsl r0
    560c:	0000413a 	andeq	r4, r0, sl, lsr r1
    5610:	0026e000 	eoreq	lr, r6, r0
    5614:	00005000 	andeq	r5, r0, r0
    5618:	919c0100 	orrsls	r0, ip, r0, lsl #2
    561c:	0d000003 	stceq	0, cr0, [r0, #-12]
    5620:	00001d89 	andeq	r1, r0, r9, lsl #27
    5624:	03623a01 	cmneq	r2, #4096	; 0x1000
    5628:	17150000 	ldrne	r0, [r5, -r0]
    562c:	0f000000 	svceq	0x00000000
    5630:	00001d1b 	andeq	r1, r0, fp, lsl sp
    5634:	00415401 	subeq	r5, r1, r1, lsl #8
    5638:	27300000 	ldrcs	r0, [r0, -r0]!
    563c:	00340000 	eorseq	r0, r4, r0
    5640:	9c010000 	stcls	0, cr0, [r1], {-0}
    5644:	001c640f 	andseq	r6, ip, pc, lsl #8
    5648:	416c0100 	cmnmi	ip, r0, lsl #2
    564c:	64000000 	strvs	r0, [r0], #-0
    5650:	28000027 	stmdacs	r0, {r0, r1, r2, r5}
    5654:	01000000 	mrseq	r0, (UNDEF: 0)
    5658:	1d03109c 	stcne	0, cr1, [r3, #-624]	; 0xfffffd90
    565c:	84010000 	strhi	r0, [r1], #-0
    5660:	0000278c 	andeq	r2, r0, ip, lsl #15
    5664:	00000048 	andeq	r0, r0, r8, asr #32
    5668:	5a109c01 	bpl	42c674 <__bss_end+0x4294f8>
    566c:	0100001d 	tsteq	r0, sp, lsl r0
    5670:	0027d4a5 	eoreq	sp, r7, r5, lsr #9
    5674:	00004000 	andeq	r4, r0, r0
    5678:	0c9c0100 	ldfeqs	f0, [ip], {0}
    567c:	00001c02 	andeq	r1, r0, r2, lsl #24
    5680:	0041c001 	subeq	ip, r1, r1
    5684:	28140000 	ldmdacs	r4, {}	; <UNPREDICTABLE>
    5688:	00540000 	subseq	r0, r4, r0
    568c:	9c010000 	stcls	0, cr0, [r1], {-0}
    5690:	00000406 	andeq	r0, r0, r6, lsl #8
    5694:	001d350d 	andseq	r3, sp, sp, lsl #10
    5698:	53c00100 	bicpl	r0, r0, #0, 2
    569c:	41000000 	mrsmi	r0, (UNDEF: 0)
    56a0:	00000017 	andeq	r0, r0, r7, lsl r0
    56a4:	001de811 	andseq	lr, sp, r1, lsl r8
    56a8:	620e0100 	andvs	r0, lr, #0, 2
    56ac:	05000003 	streq	r0, [r0, #-3]
    56b0:	002f7403 	eoreq	r7, pc, r3, lsl #8
    56b4:	1cb31100 	ldfnes	f1, [r3]
    56b8:	0f010000 	svceq	0x00010000
    56bc:	00000053 	andeq	r0, r0, r3, asr r0
    56c0:	2f780305 	svccs	0x00780305
    56c4:	ed110000 	ldc	0, cr0, [r1, #-0]
    56c8:	0100001c 	tsteq	r0, ip, lsl r0
    56cc:	0000530f 	andeq	r5, r0, pc, lsl #6
    56d0:	7c030500 	cfstr32vc	mvfx0, [r3], {-0}
    56d4:	1100002f 	tstne	r0, pc, lsr #32
    56d8:	00001c4f 	andeq	r1, r0, pc, asr #24
    56dc:	00530f01 	subseq	r0, r3, r1, lsl #30
    56e0:	03050000 	movweq	r0, #20480	; 0x5000
    56e4:	00002f80 	andeq	r2, r0, r0, lsl #31
    56e8:	00006700 	andeq	r6, r0, r0, lsl #14
    56ec:	ff000400 			; <UNDEFINED> instruction: 0xff000400
    56f0:	04000012 	streq	r0, [r0], #-18	; 0xffffffee
    56f4:	00000001 	andeq	r0, r0, r1
    56f8:	1e0c0c00 	cdpne	12, 0, cr0, cr12, cr0, {0}
    56fc:	01540000 	cmpeq	r4, r0
    5700:	13e50000 	mvnne	r0, #0
    5704:	01020000 	mrseq	r0, (UNDEF: 2)
    5708:	00011406 	andeq	r1, r1, r6, lsl #8
    570c:	08010200 	stmdaeq	r1, {r9}
    5710:	00000112 	andeq	r0, r0, r2, lsl r1
    5714:	78050202 	stmdavc	r5, {r1, r9}
    5718:	02000002 	andeq	r0, r0, #2
    571c:	01360702 	teqeq	r6, r2, lsl #14
    5720:	04030000 	streq	r0, [r3], #-0
    5724:	746e6905 	strbtvc	r6, [lr], #-2309	; 0xfffff6fb
    5728:	07040200 	streq	r0, [r4, -r0, lsl #4]
    572c:	000001e8 	andeq	r0, r0, r8, ror #3
    5730:	38050802 	stmdacc	r5, {r1, fp}
    5734:	02000002 	andeq	r0, r0, #2
    5738:	01de0708 	bicseq	r0, lr, r8, lsl #14
    573c:	04020000 	streq	r0, [r2], #-0
    5740:	00022f07 	andeq	r2, r2, r7, lsl #30
    5744:	08010200 	stmdaeq	r1, {r9}
    5748:	0000011b 	andeq	r0, r0, fp, lsl r1
    574c:	e3070402 	movw	r0, #29698	; 0x7402
    5750:	00000001 	andeq	r0, r0, r1
    5754:	00000067 	andeq	r0, r0, r7, rrx
    5758:	13250004 			; <UNDEFINED> instruction: 0x13250004
    575c:	01040000 	mrseq	r0, (UNDEF: 4)
    5760:	00000000 	andeq	r0, r0, r0
    5764:	001e3b0c 	andseq	r3, lr, ip, lsl #22
    5768:	00015400 	andeq	r5, r1, r0, lsl #8
    576c:	00140200 	andseq	r0, r4, r0, lsl #4
    5770:	06010200 	streq	r0, [r1], -r0, lsl #4
    5774:	00000114 	andeq	r0, r0, r4, lsl r1
    5778:	12080102 	andne	r0, r8, #-2147483648	; 0x80000000
    577c:	02000001 	andeq	r0, r0, #1
    5780:	02780502 	rsbseq	r0, r8, #8388608	; 0x800000
    5784:	02020000 	andeq	r0, r2, #0
    5788:	00013607 	andeq	r3, r1, r7, lsl #12
    578c:	05040300 	streq	r0, [r4, #-768]	; 0xfffffd00
    5790:	00746e69 	rsbseq	r6, r4, r9, ror #28
    5794:	e8070402 	stmda	r7, {r1, sl}
    5798:	02000001 	andeq	r0, r0, #1
    579c:	02380508 	eorseq	r0, r8, #8, 10	; 0x2000000
    57a0:	08020000 	stmdaeq	r2, {}	; <UNPREDICTABLE>
    57a4:	0001de07 	andeq	sp, r1, r7, lsl #28
    57a8:	07040200 	streq	r0, [r4, -r0, lsl #4]
    57ac:	0000022f 	andeq	r0, r0, pc, lsr #4
    57b0:	1b080102 	blne	205bc0 <__bss_end+0x202a44>
    57b4:	02000001 	andeq	r0, r0, #1
    57b8:	01e30704 	mvneq	r0, r4, lsl #14
    57bc:	00000000 	andeq	r0, r0, r0
    57c0:	04000014 	streq	r0, [r0], #-20	; 0xffffffec
    57c4:	00134b00 	andseq	r4, r3, r0, lsl #22
    57c8:	00010400 	andeq	r0, r1, r0, lsl #8
    57cc:	0c000000 	stceq	0, cr0, [r0], {-0}
    57d0:	00001e7f 	andeq	r1, r0, pc, ror lr
    57d4:	00000154 	andeq	r0, r0, r4, asr r1
    57d8:	00002868 	andeq	r2, r0, r8, ror #16
    57dc:	000003a4 	andeq	r0, r0, r4, lsr #7
    57e0:	0000141f 	andeq	r1, r0, pc, lsl r4
    57e4:	14060102 	strne	r0, [r6], #-258	; 0xfffffefe
    57e8:	03000001 	movweq	r0, #1
    57ec:	00000de8 	andeq	r0, r0, r8, ror #27
    57f0:	00370f02 	eorseq	r0, r7, r2, lsl #30
    57f4:	01020000 	mrseq	r0, (UNDEF: 2)
    57f8:	00011208 	andeq	r1, r1, r8, lsl #4
    57fc:	05020200 	streq	r0, [r2, #-512]	; 0xfffffe00
    5800:	00000278 	andeq	r0, r0, r8, ror r2
    5804:	36070202 	strcc	r0, [r7], -r2, lsl #4
    5808:	03000001 	movweq	r0, #1
    580c:	00001266 	andeq	r1, r0, r6, ror #4
    5810:	00571202 	subseq	r1, r7, r2, lsl #4
    5814:	04040000 	streq	r0, [r4], #-0
    5818:	746e6905 	strbtvc	r6, [lr], #-2309	; 0xfffff6fb
    581c:	0a820300 	beq	fe086424 <__bss_end+0xfe0832a8>
    5820:	13020000 	movwne	r0, #8192	; 0x2000
    5824:	00000069 	andeq	r0, r0, r9, rrx
    5828:	e8070402 	stmda	r7, {r1, sl}
    582c:	02000001 	andeq	r0, r0, #1
    5830:	02380508 	eorseq	r0, r8, #8, 10	; 0x2000000
    5834:	08020000 	stmdaeq	r2, {}	; <UNPREDICTABLE>
    5838:	0001de07 	andeq	sp, r1, r7, lsl #28
    583c:	03040500 	movweq	r0, #17664	; 0x4500
    5840:	00014a1a 	andeq	r4, r1, sl, lsl sl
    5844:	07420600 	strbeq	r0, [r2, -r0, lsl #12]
    5848:	1c030000 	stcne	0, cr0, [r3], {-0}
    584c:	0000005e 	andeq	r0, r0, lr, asr r0
    5850:	001e0204 	andseq	r0, lr, r4, lsl #4
    5854:	000d3606 	andeq	r3, sp, r6, lsl #12
    5858:	5e1d0300 	cdppl	3, 1, cr0, cr13, cr0, {0}
    585c:	04000000 	streq	r0, [r0], #-0
    5860:	06001c02 	streq	r1, [r0], -r2, lsl #24
    5864:	0000073a 	andeq	r0, r0, sl, lsr r7
    5868:	005e1e03 	subseq	r1, lr, r3, lsl #28
    586c:	02040000 	andeq	r0, r4, #0
    5870:	4006001a 	andmi	r0, r6, sl, lsl r0
    5874:	0300000d 	movweq	r0, #13
    5878:	00005e1f 	andeq	r5, r0, pc, lsl lr
    587c:	18020400 	stmdane	r2, {sl}
    5880:	074a0600 	strbeq	r0, [sl, -r0, lsl #12]
    5884:	20030000 	andcs	r0, r3, r0
    5888:	0000005e 	andeq	r0, r0, lr, asr r0
    588c:	00130504 	andseq	r0, r3, r4, lsl #10
    5890:	000d4a06 	andeq	r4, sp, r6, lsl #20
    5894:	5e210300 	cdppl	3, 2, cr0, cr1, cr0, {0}
    5898:	04000000 	streq	r0, [r0], #-0
    589c:	06001003 	streq	r1, [r0], -r3
    58a0:	0000075a 	andeq	r0, r0, sl, asr r7
    58a4:	005e2203 	subseq	r2, lr, r3, lsl #4
    58a8:	02040000 	andeq	r0, r4, #0
    58ac:	5406000e 	strpl	r0, [r6], #-14
    58b0:	0300000d 	movweq	r0, #13
    58b4:	00005e23 	andeq	r5, r0, r3, lsr #28
    58b8:	08060400 	stmdaeq	r6, {sl}
    58bc:	0a610600 	beq	18470c4 <__bss_end+0x1843f48>
    58c0:	24030000 	strcs	r0, [r3], #-0
    58c4:	0000005e 	andeq	r0, r0, lr, asr r0
    58c8:	00070104 	andeq	r0, r7, r4, lsl #2
    58cc:	000d5e06 	andeq	r5, sp, r6, lsl #28
    58d0:	5e250300 	cdppl	3, 2, cr0, cr5, cr0, {0}
    58d4:	04000000 	streq	r0, [r0], #-0
    58d8:	06000403 	streq	r0, [r0], -r3, lsl #8
    58dc:	00000bfd 	strdeq	r0, [r0], -sp
    58e0:	005e2603 	subseq	r2, lr, r3, lsl #12
    58e4:	01040000 	mrseq	r0, (UNDEF: 4)
    58e8:	68060003 	stmdavs	r6, {r0, r1}
    58ec:	0300000d 	movweq	r0, #13
    58f0:	00005e27 	andeq	r5, r0, r7, lsr #28
    58f4:	01020400 	tsteq	r2, r0, lsl #8
    58f8:	0cac0600 	stceq	6, cr0, [ip]
    58fc:	28030000 	stmdacs	r3, {}	; <UNPREDICTABLE>
    5900:	0000005e 	andeq	r0, r0, lr, asr r0
    5904:	00000104 	andeq	r0, r0, r4, lsl #2
    5908:	03040700 	movweq	r0, #18176	; 0x4700
    590c:	00016918 	andeq	r6, r1, r8, lsl r9
    5910:	04d40800 	ldrbeq	r0, [r4], #2048	; 0x800
    5914:	19030000 	stmdbne	r3, {}	; <UNPREDICTABLE>
    5918:	0000005e 	andeq	r0, r0, lr, asr r0
    591c:	000ad208 	andeq	sp, sl, r8, lsl #4
    5920:	7e2a0300 	cdpvc	3, 2, cr0, cr10, cr0, {0}
    5924:	00000000 	andeq	r0, r0, r0
    5928:	000cb203 	andeq	fp, ip, r3, lsl #4
    592c:	4a2b0300 	bmi	ac6534 <__bss_end+0xac33b8>
    5930:	09000001 	stmdbeq	r0, {r0}
    5934:	00000cd3 	ldrdeq	r0, [r0], -r3
    5938:	262e0304 	strtcs	r0, [lr], -r4, lsl #6
    593c:	06000002 	streq	r0, [r0], -r2
    5940:	00000742 	andeq	r0, r0, r2, asr #14
    5944:	005e3003 	subseq	r3, lr, r3
    5948:	05040000 	streq	r0, [r4, #-0]
    594c:	3606001b 			; <UNDEFINED> instruction: 0x3606001b
    5950:	0300000d 	movweq	r0, #13
    5954:	00005e31 	andeq	r5, r0, r1, lsr lr
    5958:	18030400 	stmdane	r3, {sl}
    595c:	074a0600 	strbeq	r0, [sl, -r0, lsl #12]
    5960:	32030000 	andcc	r0, r3, #0
    5964:	0000005e 	andeq	r0, r0, lr, asr r0
    5968:	00110704 	andseq	r0, r1, r4, lsl #14
    596c:	000d4006 	andeq	r4, sp, r6
    5970:	5e330300 	cdppl	3, 3, cr0, cr3, cr0, {0}
    5974:	04000000 	streq	r0, [r0], #-0
    5978:	06001001 	streq	r1, [r0], -r1
    597c:	0000075a 	andeq	r0, r0, sl, asr r7
    5980:	005e3403 	subseq	r3, lr, r3, lsl #8
    5984:	04040000 	streq	r0, [r4], #-0
    5988:	4a06000c 	bmi	1859c0 <__bss_end+0x182844>
    598c:	0300000d 	movweq	r0, #13
    5990:	00005e35 	andeq	r5, r0, r5, lsr lr
    5994:	08040400 	stmdaeq	r4, {sl}
    5998:	0bd20600 	bleq	ff4871a0 <__bss_end+0xff484024>
    599c:	36030000 	strcc	r0, [r3], -r0
    59a0:	0000005e 	andeq	r0, r0, lr, asr r0
    59a4:	00070104 	andeq	r0, r7, r4, lsl #2
    59a8:	000d5406 	andeq	r5, sp, r6, lsl #8
    59ac:	5e370300 	cdppl	3, 3, cr0, cr7, cr0, {0}
    59b0:	04000000 	streq	r0, [r0], #-0
    59b4:	06000403 	streq	r0, [r0], -r3, lsl #8
    59b8:	00000bfd 	strdeq	r0, [r0], -sp
    59bc:	005e3803 	subseq	r3, lr, r3, lsl #16
    59c0:	01040000 	mrseq	r0, (UNDEF: 4)
    59c4:	5e060003 	cdppl	0, 0, cr0, cr6, cr3, {0}
    59c8:	0300000d 	movweq	r0, #13
    59cc:	00005e39 	andeq	r5, r0, r9, lsr lr
    59d0:	01020400 	tsteq	r2, r0, lsl #8
    59d4:	0cac0600 	stceq	6, cr0, [ip]
    59d8:	3a030000 	bcc	c59e0 <__bss_end+0xc2864>
    59dc:	0000005e 	andeq	r0, r0, lr, asr r0
    59e0:	00000104 	andeq	r0, r0, r4, lsl #2
    59e4:	0c250300 	stceq	3, cr0, [r5], #-0
    59e8:	3b030000 	blcc	c59f0 <__bss_end+0xc2874>
    59ec:	00000174 	andeq	r0, r0, r4, ror r1
    59f0:	000c9209 	andeq	r9, ip, r9, lsl #4
    59f4:	50030400 	andpl	r0, r3, r0, lsl #8
    59f8:	00000301 	andeq	r0, r0, r1, lsl #6
    59fc:	00074206 	andeq	r4, r7, r6, lsl #4
    5a00:	5e520300 	cdppl	3, 5, cr0, cr2, cr0, {0}
    5a04:	04000000 	streq	r0, [r0], #-0
    5a08:	06001e02 	streq	r1, [r0], -r2, lsl #28
    5a0c:	00000d36 	andeq	r0, r0, r6, lsr sp
    5a10:	005e5303 	subseq	r5, lr, r3, lsl #6
    5a14:	02040000 	andeq	r0, r4, #0
    5a18:	3a06001c 	bcc	185a90 <__bss_end+0x182914>
    5a1c:	03000007 	movweq	r0, #7
    5a20:	00005e54 	andeq	r5, r0, r4, asr lr
    5a24:	1a020400 	bne	86a2c <__bss_end+0x838b0>
    5a28:	0d400600 	stcleq	6, cr0, [r0, #-0]
    5a2c:	55030000 	strpl	r0, [r3, #-0]
    5a30:	0000005e 	andeq	r0, r0, lr, asr r0
    5a34:	00180204 	andseq	r0, r8, r4, lsl #4
    5a38:	00074a06 	andeq	r4, r7, r6, lsl #20
    5a3c:	5e560300 	cdppl	3, 5, cr0, cr6, cr0, {0}
    5a40:	04000000 	streq	r0, [r0], #-0
    5a44:	06001305 	streq	r1, [r0], -r5, lsl #6
    5a48:	00000d4a 	andeq	r0, r0, sl, asr #26
    5a4c:	005e5703 	subseq	r5, lr, r3, lsl #14
    5a50:	07040000 	streq	r0, [r4, -r0]
    5a54:	9706000c 	strls	r0, [r6, -ip]
    5a58:	03000006 	movweq	r0, #6
    5a5c:	00005e58 	andeq	r5, r0, r8, asr lr
    5a60:	0b010400 	bleq	46a68 <__bss_end+0x438ec>
    5a64:	0d540600 	ldcleq	6, cr0, [r4, #-0]
    5a68:	59030000 	stmdbpl	r3, {}	; <UNPREDICTABLE>
    5a6c:	0000005e 	andeq	r0, r0, lr, asr r0
    5a70:	00080304 	andeq	r0, r8, r4, lsl #6
    5a74:	000a6906 	andeq	r6, sl, r6, lsl #18
    5a78:	5e5a0300 	cdppl	3, 5, cr0, cr10, cr0, {0}
    5a7c:	04000000 	streq	r0, [r0], #-0
    5a80:	06000701 	streq	r0, [r0], -r1, lsl #14
    5a84:	00000d5e 	andeq	r0, r0, lr, asr sp
    5a88:	005e5b03 	subseq	r5, lr, r3, lsl #22
    5a8c:	03040000 	movweq	r0, #16384	; 0x4000
    5a90:	fd060004 	stc2	0, cr0, [r6, #-16]
    5a94:	0300000b 	movweq	r0, #11
    5a98:	00005e5c 	andeq	r5, r0, ip, asr lr
    5a9c:	03010400 	movweq	r0, #5120	; 0x1400
    5aa0:	0d680600 	stcleq	6, cr0, [r8, #-0]
    5aa4:	5d030000 	stcpl	0, cr0, [r3, #-0]
    5aa8:	0000005e 	andeq	r0, r0, lr, asr r0
    5aac:	00010204 	andeq	r0, r1, r4, lsl #4
    5ab0:	000cac06 	andeq	sl, ip, r6, lsl #24
    5ab4:	5e5e0300 	cdppl	3, 5, cr0, cr14, cr0, {0}
    5ab8:	04000000 	streq	r0, [r0], #-0
    5abc:	00000001 	andeq	r0, r0, r1
    5ac0:	0006b003 	andeq	fp, r6, r3
    5ac4:	315f0300 	cmpcc	pc, r0, lsl #6
    5ac8:	09000002 	stmdbeq	r0, {r1}
    5acc:	000010a6 	andeq	r1, r0, r6, lsr #1
    5ad0:	fa620304 	blx	18866e8 <__bss_end+0x188356c>
    5ad4:	06000003 	streq	r0, [r0], -r3
    5ad8:	00000742 	andeq	r0, r0, r2, asr #14
    5adc:	005e6403 	subseq	r6, lr, r3, lsl #8
    5ae0:	02040000 	andeq	r0, r4, #0
    5ae4:	3606001e 			; <UNDEFINED> instruction: 0x3606001e
    5ae8:	0300000d 	movweq	r0, #13
    5aec:	00005e65 	andeq	r5, r0, r5, ror #28
    5af0:	1c020400 	cfstrsne	mvf0, [r2], {-0}
    5af4:	073a0600 	ldreq	r0, [sl, -r0, lsl #12]!
    5af8:	66030000 	strvs	r0, [r3], -r0
    5afc:	0000005e 	andeq	r0, r0, lr, asr r0
    5b00:	001a0204 	andseq	r0, sl, r4, lsl #4
    5b04:	000d4006 	andeq	r4, sp, r6
    5b08:	5e670300 	cdppl	3, 6, cr0, cr7, cr0, {0}
    5b0c:	04000000 	streq	r0, [r0], #-0
    5b10:	06001802 	streq	r1, [r0], -r2, lsl #16
    5b14:	0000074a 	andeq	r0, r0, sl, asr #14
    5b18:	005e6803 	subseq	r6, lr, r3, lsl #16
    5b1c:	05040000 	streq	r0, [r4, #-0]
    5b20:	4a060013 	bmi	185b74 <__bss_end+0x1829f8>
    5b24:	0300000d 	movweq	r0, #13
    5b28:	00005e69 	andeq	r5, r0, r9, ror #28
    5b2c:	10030400 	andne	r0, r3, r0, lsl #8
    5b30:	0ed70600 	cdpeq	6, 13, cr0, cr7, cr0, {0}
    5b34:	6a030000 	bvs	c5b3c <__bss_end+0xc29c0>
    5b38:	0000005e 	andeq	r0, r0, lr, asr r0
    5b3c:	000e0204 	andeq	r0, lr, r4, lsl #4
    5b40:	00043806 	andeq	r3, r4, r6, lsl #16
    5b44:	5e6b0300 	cdppl	3, 6, cr0, cr11, cr0, {0}
    5b48:	04000000 	streq	r0, [r0], #-0
    5b4c:	06000d01 	streq	r0, [r0], -r1, lsl #26
    5b50:	00000d54 	andeq	r0, r0, r4, asr sp
    5b54:	005e6c03 	subseq	r6, lr, r3, lsl #24
    5b58:	05040000 	streq	r0, [r4, #-0]
    5b5c:	5b060008 	blpl	185b84 <__bss_end+0x182a08>
    5b60:	0300000b 	movweq	r0, #11
    5b64:	00005e6d 	andeq	r5, r0, sp, ror #28
    5b68:	07010400 	streq	r0, [r1, -r0, lsl #8]
    5b6c:	0b110600 	bleq	447374 <__bss_end+0x4441f8>
    5b70:	6e030000 	cdpvs	0, 0, cr0, cr3, cr0, {0}
    5b74:	0000005e 	andeq	r0, r0, lr, asr r0
    5b78:	00060104 	andeq	r0, r6, r4, lsl #2
    5b7c:	000d5e06 	andeq	r5, sp, r6, lsl #28
    5b80:	5e6f0300 	cdppl	3, 6, cr0, cr15, cr0, {0}
    5b84:	04000000 	streq	r0, [r0], #-0
    5b88:	06000402 	streq	r0, [r0], -r2, lsl #8
    5b8c:	00000bfd 	strdeq	r0, [r0], -sp
    5b90:	005e7003 	subseq	r7, lr, r3
    5b94:	01040000 	mrseq	r0, (UNDEF: 4)
    5b98:	68060003 	stmdavs	r6, {r0, r1}
    5b9c:	0300000d 	movweq	r0, #13
    5ba0:	00005e71 	andeq	r5, r0, r1, ror lr
    5ba4:	01020400 	tsteq	r2, r0, lsl #8
    5ba8:	0cac0600 	stceq	6, cr0, [ip]
    5bac:	72030000 	andvc	r0, r3, #0
    5bb0:	0000005e 	andeq	r0, r0, lr, asr r0
    5bb4:	00000104 	andeq	r0, r0, r4, lsl #2
    5bb8:	05c60300 	strbeq	r0, [r6, #768]	; 0x300
    5bbc:	73030000 	movwvc	r0, #12288	; 0x3000
    5bc0:	0000030c 	andeq	r0, r0, ip, lsl #6
    5bc4:	00088909 	andeq	r8, r8, r9, lsl #18
    5bc8:	75030400 	strvc	r0, [r3, #-1024]	; 0xfffffc00
    5bcc:	000004c6 	andeq	r0, r0, r6, asr #9
    5bd0:	00074206 	andeq	r4, r7, r6, lsl #4
    5bd4:	5e770300 	cdppl	3, 7, cr0, cr7, cr0, {0}
    5bd8:	04000000 	streq	r0, [r0], #-0
    5bdc:	06001c04 	streq	r1, [r0], -r4, lsl #24
    5be0:	00000d36 	andeq	r0, r0, r6, lsr sp
    5be4:	005e7803 	subseq	r7, lr, r3, lsl #16
    5be8:	04040000 	streq	r0, [r4], #-0
    5bec:	4a060018 	bmi	185c54 <__bss_end+0x182ad8>
    5bf0:	03000007 	movweq	r0, #7
    5bf4:	00005e79 	andeq	r5, r0, r9, ror lr
    5bf8:	11070400 	tstne	r7, r0, lsl #8
    5bfc:	0d400600 	stcleq	6, cr0, [r0, #-0]
    5c00:	7a030000 	bvc	c5c08 <__bss_end+0xc2a8c>
    5c04:	0000005e 	andeq	r0, r0, lr, asr r0
    5c08:	000c0504 	andeq	r0, ip, r4, lsl #10
    5c0c:	000bd206 	andeq	sp, fp, r6, lsl #4
    5c10:	5e7b0300 	cdppl	3, 7, cr0, cr11, cr0, {0}
    5c14:	04000000 	streq	r0, [r0], #-0
    5c18:	06000b01 	streq	r0, [r0], -r1, lsl #22
    5c1c:	00000d4a 	andeq	r0, r0, sl, asr #26
    5c20:	005e7c03 	subseq	r7, lr, r3, lsl #24
    5c24:	03040000 	movweq	r0, #16384	; 0x4000
    5c28:	61060008 	tstvs	r6, r8
    5c2c:	0300000c 	movweq	r0, #12
    5c30:	00005e7d 	andeq	r5, r0, sp, ror lr
    5c34:	07010400 	streq	r0, [r1, -r0, lsl #8]
    5c38:	0dc40600 	stcleq	6, cr0, [r4]
    5c3c:	7e030000 	cdpvc	0, 0, cr0, cr3, cr0, {0}
    5c40:	0000005e 	andeq	r0, r0, lr, asr r0
    5c44:	00060104 	andeq	r0, r6, r4, lsl #2
    5c48:	000d5406 	andeq	r5, sp, r6, lsl #8
    5c4c:	5e7f0300 	cdppl	3, 7, cr0, cr15, cr0, {0}
    5c50:	04000000 	streq	r0, [r0], #-0
    5c54:	06000402 	streq	r0, [r0], -r2, lsl #8
    5c58:	00000bfd 	strdeq	r0, [r0], -sp
    5c5c:	005e8003 	subseq	r8, lr, r3
    5c60:	01040000 	mrseq	r0, (UNDEF: 4)
    5c64:	5e060003 	cdppl	0, 0, cr0, cr6, cr3, {0}
    5c68:	0300000d 	movweq	r0, #13
    5c6c:	00005e81 	andeq	r5, r0, r1, lsl #29
    5c70:	01020400 	tsteq	r2, r0, lsl #8
    5c74:	0cac0600 	stceq	6, cr0, [ip]
    5c78:	82030000 	andhi	r0, r3, #0
    5c7c:	0000005e 	andeq	r0, r0, lr, asr r0
    5c80:	00000104 	andeq	r0, r0, r4, lsl #2
    5c84:	09a50300 	stmibeq	r5!, {r8, r9}
    5c88:	83030000 	movwhi	r0, #12288	; 0x3000
    5c8c:	00000405 	andeq	r0, r0, r5, lsl #8
    5c90:	000be109 	andeq	lr, fp, r9, lsl #2
    5c94:	86030400 	strhi	r0, [r3], -r0, lsl #8
    5c98:	000005fb 	strdeq	r0, [r0], -fp
    5c9c:	00074206 	andeq	r4, r7, r6, lsl #4
    5ca0:	5e880300 	cdppl	3, 8, cr0, cr8, cr0, {0}
    5ca4:	04000000 	streq	r0, [r0], #-0
    5ca8:	06001c04 	streq	r1, [r0], -r4, lsl #24
    5cac:	0000073a 	andeq	r0, r0, sl, lsr r7
    5cb0:	005e8903 	subseq	r8, lr, r3, lsl #18
    5cb4:	02040000 	andeq	r0, r4, #0
    5cb8:	3606001a 			; <UNDEFINED> instruction: 0x3606001a
    5cbc:	0300000d 	movweq	r0, #13
    5cc0:	00005e8a 	andeq	r5, r0, sl, lsl #29
    5cc4:	18020400 	stmdane	r2, {sl}
    5cc8:	074a0600 	strbeq	r0, [sl, -r0, lsl #12]
    5ccc:	8b030000 	blhi	c5cd4 <__bss_end+0xc2b58>
    5cd0:	0000005e 	andeq	r0, r0, lr, asr r0
    5cd4:	00140404 	andseq	r0, r4, r4, lsl #8
    5cd8:	000d4006 	andeq	r4, sp, r6
    5cdc:	5e8c0300 	cdppl	3, 8, cr0, cr12, cr0, {0}
    5ce0:	04000000 	streq	r0, [r0], #-0
    5ce4:	06001004 	streq	r1, [r0], -r4
    5ce8:	000006d4 	ldrdeq	r0, [r0], -r4
    5cec:	005e8d03 	subseq	r8, lr, r3, lsl #26
    5cf0:	01040000 	mrseq	r0, (UNDEF: 4)
    5cf4:	6906000f 	stmdbvs	r6, {r0, r1, r2, r3}
    5cf8:	0300000c 	movweq	r0, #12
    5cfc:	00005e8f 	andeq	r5, r0, pc, lsl #29
    5d00:	0e010400 	cfcpyseq	mvf0, mvf1
    5d04:	0d4a0600 	stcleq	6, cr0, [sl, #-0]
    5d08:	90030000 	andls	r0, r3, r0
    5d0c:	0000005e 	andeq	r0, r0, lr, asr r0
    5d10:	000c0204 	andeq	r0, ip, r4, lsl #4
    5d14:	000bd206 	andeq	sp, fp, r6, lsl #4
    5d18:	5e910300 	cdppl	3, 9, cr0, cr1, cr0, {0}
    5d1c:	04000000 	streq	r0, [r0], #-0
    5d20:	06000b01 	streq	r0, [r0], -r1, lsl #22
    5d24:	0000057d 	andeq	r0, r0, sp, ror r5
    5d28:	005e9203 	subseq	r9, lr, r3, lsl #4
    5d2c:	01040000 	mrseq	r0, (UNDEF: 4)
    5d30:	1106000a 	tstne	r6, sl
    5d34:	03000006 	movweq	r0, #6
    5d38:	00005e93 	muleq	r0, r3, lr
    5d3c:	09010400 	stmdbeq	r1, {sl}
    5d40:	0d2f0600 	stceq	6, cr0, [pc, #-0]	; 5d48 <__bss_end+0x2bcc>
    5d44:	94030000 	strls	r0, [r3], #-0
    5d48:	0000005e 	andeq	r0, r0, lr, asr r0
    5d4c:	00080104 	andeq	r0, r8, r4, lsl #2
    5d50:	000d5406 	andeq	r5, sp, r6, lsl #8
    5d54:	5e950300 	cdppl	3, 9, cr0, cr5, cr0, {0}
    5d58:	04000000 	streq	r0, [r0], #-0
    5d5c:	06000701 	streq	r0, [r0], -r1, lsl #14
    5d60:	00000c19 	andeq	r0, r0, r9, lsl ip
    5d64:	005e9603 	subseq	r9, lr, r3, lsl #12
    5d68:	01040000 	mrseq	r0, (UNDEF: 4)
    5d6c:	a6060006 	strge	r0, [r6], -r6
    5d70:	0300000c 	movweq	r0, #12
    5d74:	00005e97 	muleq	r0, r7, lr
    5d78:	05010400 	streq	r0, [r1, #-1024]	; 0xfffffc00
    5d7c:	0e730600 	cdpeq	6, 7, cr0, cr3, cr0, {0}
    5d80:	98030000 	stmdals	r3, {}	; <UNPREDICTABLE>
    5d84:	0000005e 	andeq	r0, r0, lr, asr r0
    5d88:	00040104 	andeq	r0, r4, r4, lsl #2
    5d8c:	000bfd06 	andeq	pc, fp, r6, lsl #26
    5d90:	5e990300 	cdppl	3, 9, cr0, cr9, cr0, {0}
    5d94:	04000000 	streq	r0, [r0], #-0
    5d98:	06000301 	streq	r0, [r0], -r1, lsl #6
    5d9c:	00000d5e 	andeq	r0, r0, lr, asr sp
    5da0:	005e9a03 	subseq	r9, lr, r3, lsl #20
    5da4:	02040000 	andeq	r0, r4, #0
    5da8:	ac060001 	stcge	0, cr0, [r6], {1}
    5dac:	0300000c 	movweq	r0, #12
    5db0:	00005e9b 	muleq	r0, fp, lr
    5db4:	00010400 	andeq	r0, r1, r0, lsl #8
    5db8:	84030000 	strhi	r0, [r3], #-0
    5dbc:	03000004 	movweq	r0, #4
    5dc0:	0004d19c 	muleq	r4, ip, r1
    5dc4:	03040500 	movweq	r0, #17664	; 0x4500
    5dc8:	000669a4 	andeq	r6, r6, r4, lsr #19
    5dcc:	0fe30600 	svceq	0x00e30600
    5dd0:	a6030000 	strge	r0, [r3], -r0
    5dd4:	0000005e 	andeq	r0, r0, lr, asr r0
    5dd8:	001e0204 	andseq	r0, lr, r4, lsl #4
    5ddc:	000d3606 	andeq	r3, sp, r6, lsl #12
    5de0:	5ea70300 	cdppl	3, 10, cr0, cr7, cr0, {0}
    5de4:	04000000 	streq	r0, [r0], #-0
    5de8:	06001806 	streq	r1, [r0], -r6, lsl #16
    5dec:	00000ce7 	andeq	r0, r0, r7, ror #25
    5df0:	005ea803 	subseq	sl, lr, r3, lsl #16
    5df4:	02040000 	andeq	r0, r4, #0
    5df8:	40060016 	andmi	r0, r6, r6, lsl r0
    5dfc:	0300000d 	movweq	r0, #13
    5e00:	00005ea9 	andeq	r5, r0, r9, lsr #29
    5e04:	10060400 	andne	r0, r6, r0, lsl #8
    5e08:	08c40600 	stmiaeq	r4, {r9, sl}^
    5e0c:	aa030000 	bge	c5e14 <__bss_end+0xc2c98>
    5e10:	0000005e 	andeq	r0, r0, lr, asr r0
    5e14:	000e0204 	andeq	r0, lr, r4, lsl #4
    5e18:	000d4a06 	andeq	r4, sp, r6, lsl #20
    5e1c:	5eab0300 	cdppl	3, 10, cr0, cr11, cr0, {0}
    5e20:	04000000 	streq	r0, [r0], #-0
    5e24:	0000000e 	andeq	r0, r0, lr
    5e28:	a2030407 	andge	r0, r3, #117440512	; 0x7000000
    5e2c:	00000688 	andeq	r0, r0, r8, lsl #13
    5e30:	0004d408 	andeq	sp, r4, r8, lsl #8
    5e34:	5ea30300 	cdppl	3, 10, cr0, cr3, cr0, {0}
    5e38:	08000000 	stmdaeq	r0, {}	; <UNPREDICTABLE>
    5e3c:	00000ad2 	ldrdeq	r0, [r0], -r2
    5e40:	0606ac03 	streq	sl, [r6], -r3, lsl #24
    5e44:	03000000 	movweq	r0, #0
    5e48:	000005f3 	strdeq	r0, [r0], -r3
    5e4c:	0669ad03 	strbteq	sl, [r9], -r3, lsl #26
    5e50:	54090000 	strpl	r0, [r9], #-0
    5e54:	04000004 	streq	r0, [r0], #-4
    5e58:	0709b403 	streq	fp, [r9, -r3, lsl #8]
    5e5c:	36060000 	strcc	r0, [r6], -r0
    5e60:	0300000d 	movweq	r0, #13
    5e64:	00005eb6 			; <UNDEFINED> instruction: 0x00005eb6
    5e68:	1c040400 	cfstrsne	mvf0, [r4], {-0}
    5e6c:	0b2a0600 	bleq	a87674 <__bss_end+0xa844f8>
    5e70:	b7030000 	strlt	r0, [r3, -r0]
    5e74:	0000005e 	andeq	r0, r0, lr, asr r0
    5e78:	001a0204 	andseq	r0, sl, r4, lsl #4
    5e7c:	000fa606 	andeq	sl, pc, r6, lsl #12
    5e80:	5eb80300 	cdppl	3, 11, cr0, cr8, cr0, {0}
    5e84:	04000000 	streq	r0, [r0], #-0
    5e88:	06001802 	streq	r1, [r0], -r2, lsl #16
    5e8c:	00000c59 	andeq	r0, r0, r9, asr ip
    5e90:	005eb903 	subseq	fp, lr, r3, lsl #18
    5e94:	02040000 	andeq	r0, r4, #0
    5e98:	40060016 	andmi	r0, r6, r6, lsl r0
    5e9c:	0300000d 	movweq	r0, #13
    5ea0:	00005eba 			; <UNDEFINED> instruction: 0x00005eba
    5ea4:	14020400 	strne	r0, [r2], #-1024	; 0xfffffc00
    5ea8:	0c440600 	mcrreq	6, 0, r0, r4, cr0
    5eac:	bb030000 	bllt	c5eb4 <__bss_end+0xc2d38>
    5eb0:	0000005e 	andeq	r0, r0, lr, asr r0
    5eb4:	00120204 	andseq	r0, r2, r4, lsl #4
    5eb8:	000d4a06 	andeq	r4, sp, r6, lsl #20
    5ebc:	5ebc0300 	cdppl	3, 11, cr0, cr12, cr0, {0}
    5ec0:	04000000 	streq	r0, [r0], #-0
    5ec4:	00000012 	andeq	r0, r0, r2, lsl r0
    5ec8:	000eea03 	andeq	lr, lr, r3, lsl #20
    5ecc:	93bd0300 			; <UNDEFINED> instruction: 0x93bd0300
    5ed0:	05000006 	streq	r0, [r0, #-6]
    5ed4:	77c50304 	strbvc	r0, [r5, r4, lsl #6]
    5ed8:	06000007 	streq	r0, [r0], -r7
    5edc:	000007e9 	andeq	r0, r0, r9, ror #15
    5ee0:	005ec703 	subseq	ip, lr, r3, lsl #14
    5ee4:	05040000 	streq	r0, [r4, #-0]
    5ee8:	da06001b 	ble	185f5c <__bss_end+0x182de0>
    5eec:	0300000f 	movweq	r0, #15
    5ef0:	00005ec8 	andeq	r5, r0, r8, asr #29
    5ef4:	100b0400 	andne	r0, fp, r0, lsl #8
    5ef8:	07ee0600 	strbeq	r0, [lr, r0, lsl #12]!
    5efc:	c9030000 	stmdbgt	r3, {}	; <UNPREDICTABLE>
    5f00:	0000005e 	andeq	r0, r0, lr, asr r0
    5f04:	000e0204 	andeq	r0, lr, r4, lsl #4
    5f08:	000d4006 	andeq	r4, sp, r6
    5f0c:	5eca0300 	cdppl	3, 12, cr0, cr10, cr0, {0}
    5f10:	04000000 	streq	r0, [r0], #-0
    5f14:	06000806 	streq	r0, [r0], -r6, lsl #16
    5f18:	00000c48 	andeq	r0, r0, r8, asr #24
    5f1c:	005ecb03 	subseq	ip, lr, r3, lsl #22
    5f20:	02040000 	andeq	r0, r4, #0
    5f24:	4a060006 	bmi	185f44 <__bss_end+0x182dc8>
    5f28:	0300000d 	movweq	r0, #13
    5f2c:	00005ecc 	andeq	r5, r0, ip, asr #29
    5f30:	00060400 	andeq	r0, r6, r0, lsl #8
    5f34:	04070000 	streq	r0, [r7], #-0
    5f38:	0796c303 	ldreq	ip, [r6, r3, lsl #6]
    5f3c:	d4080000 	strle	r0, [r8], #-0
    5f40:	03000004 	movweq	r0, #4
    5f44:	00005ec4 	andeq	r5, r0, r4, asr #29
    5f48:	0ad20800 	beq	ff487f50 <__bss_end+0xff484dd4>
    5f4c:	cd030000 	stcgt	0, cr0, [r3, #-0]
    5f50:	00000714 	andeq	r0, r0, r4, lsl r7
    5f54:	0b670300 	bleq	19c6b5c <__bss_end+0x19c39e0>
    5f58:	ce030000 	cdpgt	0, 0, cr0, cr3, cr0, {0}
    5f5c:	00000777 	andeq	r0, r0, r7, ror r7
    5f60:	0009e009 	andeq	lr, r9, r9
    5f64:	d0030400 	andle	r0, r3, r0, lsl #8
    5f68:	000007cc 	andeq	r0, r0, ip, asr #15
    5f6c:	000f9d06 	andeq	r9, pc, r6, lsl #26
    5f70:	5ed20300 	cdppl	3, 13, cr0, cr2, cr0, {0}
    5f74:	04000000 	streq	r0, [r0], #-0
    5f78:	06001010 			; <UNDEFINED> instruction: 0x06001010
    5f7c:	00000fda 	ldrdeq	r0, [r0], -sl
    5f80:	005ed303 	subseq	sp, lr, r3, lsl #6
    5f84:	10040000 	andne	r0, r4, r0
    5f88:	03000000 	movweq	r0, #0
    5f8c:	00000e30 	andeq	r0, r0, r0, lsr lr
    5f90:	07a1d403 	streq	sp, [r1, r3, lsl #8]!
    5f94:	500a0000 	andpl	r0, sl, r0
    5f98:	dc000010 	stcle	0, cr0, [r0], {16}
    5f9c:	a4d60302 	ldrbge	r0, [r6], #770	; 0x302
    5fa0:	0b00000e 	bleq	5fe0 <__bss_end+0x2e64>
    5fa4:	00000978 	andeq	r0, r0, r8, ror r9
    5fa8:	0ea4d803 	cdpeq	8, 10, cr13, cr4, cr3, {0}
    5fac:	0b000000 	bleq	5fb4 <__bss_end+0x2e38>
    5fb0:	00000d36 	andeq	r0, r0, r6, lsr sp
    5fb4:	0ea9d903 	cdpeq	9, 10, cr13, cr9, cr3, {0}
    5fb8:	0b040000 	bleq	105fc0 <__bss_end+0x102e44>
    5fbc:	00001048 	andeq	r1, r0, r8, asr #32
    5fc0:	0eaeda03 	vfmaeq.f32	s26, s28, s6
    5fc4:	0b080000 	bleq	205fcc <__bss_end+0x202e50>
    5fc8:	00000d40 	andeq	r0, r0, r0, asr #26
    5fcc:	0ea9db03 	vfmaeq.f64	d13, d9, d3
    5fd0:	0b0c0000 	bleq	305fd8 <__bss_end+0x302e5c>
    5fd4:	00000b49 	andeq	r0, r0, r9, asr #22
    5fd8:	0ea9dc03 	cdpeq	12, 10, cr13, cr9, cr3, {0}
    5fdc:	0b100000 	bleq	405fe4 <__bss_end+0x402e68>
    5fe0:	00000d4a 	andeq	r0, r0, sl, asr #26
    5fe4:	0ea9dd03 	cdpeq	13, 10, cr13, cr9, cr3, {0}
    5fe8:	0b140000 	bleq	505ff0 <__bss_end+0x502e74>
    5fec:	000005a7 	andeq	r0, r0, r7, lsr #11
    5ff0:	0ea9de03 	cdpeq	14, 10, cr13, cr9, cr3, {0}
    5ff4:	0b180000 	bleq	605ffc <__bss_end+0x602e80>
    5ff8:	00000d54 	andeq	r0, r0, r4, asr sp
    5ffc:	0ea9df03 	cdpeq	15, 10, cr13, cr9, cr3, {0}
    6000:	0b1c0000 	bleq	706008 <__bss_end+0x702e8c>
    6004:	00000c80 	andeq	r0, r0, r0, lsl #25
    6008:	0eb3e003 	cdpeq	0, 11, cr14, cr3, cr3, {0}
    600c:	0b200000 	bleq	806014 <__bss_end+0x802e98>
    6010:	00000d5e 	andeq	r0, r0, lr, asr sp
    6014:	0ea9e103 	taneqe	f6, f3
    6018:	0b240000 	bleq	906020 <__bss_end+0x902ea4>
    601c:	0000053e 	andeq	r0, r0, lr, lsr r5
    6020:	0eb8e203 	cdpeq	2, 11, cr14, cr8, cr3, {0}
    6024:	0b280000 	bleq	a0602c <__bss_end+0xa02eb0>
    6028:	00000d68 	andeq	r0, r0, r8, ror #26
    602c:	0ea9e303 	cdpeq	3, 10, cr14, cr9, cr3, {0}
    6030:	0b2c0000 	bleq	b06038 <__bss_end+0xb02ebc>
    6034:	00000c75 	andeq	r0, r0, r5, ror ip
    6038:	0ea9e403 	cdpeq	4, 10, cr14, cr9, cr3, {0}
    603c:	0b300000 	bleq	c06044 <__bss_end+0xc02ec8>
    6040:	00000d72 	andeq	r0, r0, r2, ror sp
    6044:	0ea9e503 	cdpeq	5, 10, cr14, cr9, cr3, {0}
    6048:	0b340000 	bleq	d06050 <__bss_end+0xd02ed4>
    604c:	000009cd 	andeq	r0, r0, sp, asr #19
    6050:	0ebde603 	cdpeq	6, 11, cr14, cr13, cr3, {0}
    6054:	0b380000 	bleq	e0605c <__bss_end+0xe02ee0>
    6058:	00000d7c 	andeq	r0, r0, ip, ror sp
    605c:	0ea9e703 	cdpeq	7, 10, cr14, cr9, cr3, {0}
    6060:	0b3c0000 	bleq	f06068 <__bss_end+0xf02eec>
    6064:	0000072f 	andeq	r0, r0, pc, lsr #14
    6068:	0ec2e803 	cdpeq	8, 12, cr14, cr2, cr3, {0}
    606c:	0b400000 	bleq	1006074 <__bss_end+0x1002ef8>
    6070:	000010ba 	strheq	r1, [r0], -sl
    6074:	0ea9e903 	cdpeq	9, 10, cr14, cr9, cr3, {0}
    6078:	0b440000 	bleq	1106080 <__bss_end+0x1102f04>
    607c:	0000059e 	muleq	r0, lr, r5
    6080:	0ea9ea03 	vfmaeq.f32	s28, s18, s6
    6084:	0b480000 	bleq	120608c <__bss_end+0x1202f10>
    6088:	00000cc8 	andeq	r0, r0, r8, asr #25
    608c:	0ea9eb03 	vfmaeq.f64	d14, d9, d3
    6090:	0b4c0000 	bleq	1306098 <__bss_end+0x1302f1c>
    6094:	00000b51 	andeq	r0, r0, r1, asr fp
    6098:	0ec7ec03 	cdpeq	12, 12, cr14, cr7, cr3, {0}
    609c:	0b500000 	bleq	14060a4 <__bss_end+0x1402f28>
    60a0:	00000b2a 	andeq	r0, r0, sl, lsr #22
    60a4:	0ecced03 	cdpeq	13, 12, cr14, cr12, cr3, {0}
    60a8:	0b540000 	bleq	15060b0 <__bss_end+0x1502f34>
    60ac:	00000752 	andeq	r0, r0, r2, asr r7
    60b0:	0ed1ee03 	cdpeq	14, 13, cr14, cr1, cr3, {0}
    60b4:	0b580000 	bleq	16060bc <__bss_end+0x1602f40>
    60b8:	00000f29 	andeq	r0, r0, r9, lsr #30
    60bc:	0ea9ef03 	cdpeq	15, 10, cr14, cr9, cr3, {0}
    60c0:	0b5c0000 	bleq	17060c8 <__bss_end+0x1702f4c>
    60c4:	00000e13 	andeq	r0, r0, r3, lsl lr
    60c8:	0ea9f003 	cdpeq	0, 10, cr15, cr9, cr3, {0}
    60cc:	0b600000 	bleq	18060d4 <__bss_end+0x1802f58>
    60d0:	0000093e 	andeq	r0, r0, lr, lsr r9
    60d4:	0ea9f103 	taneqe	f7, f3
    60d8:	0b640000 	bleq	19060e0 <__bss_end+0x1902f64>
    60dc:	00000fed 	andeq	r0, r0, sp, ror #31
    60e0:	0ea9f203 	cdpeq	2, 10, cr15, cr9, cr3, {0}
    60e4:	0b680000 	bleq	1a060ec <__bss_end+0x1a02f70>
    60e8:	00000bd8 	ldrdeq	r0, [r0], -r8
    60ec:	0ea9f303 	cdpeq	3, 10, cr15, cr9, cr3, {0}
    60f0:	0b6c0000 	bleq	1b060f8 <__bss_end+0x1b02f7c>
    60f4:	00000d86 	andeq	r0, r0, r6, lsl #27
    60f8:	0eedf403 	cdpeq	4, 14, cr15, cr13, cr3, {0}
    60fc:	0b700000 	bleq	1c06104 <__bss_end+0x1c02f88>
    6100:	00001078 	andeq	r1, r0, r8, ror r0
    6104:	0ea9f503 	cdpeq	5, 10, cr15, cr9, cr3, {0}
    6108:	0b800000 	bleq	fe006110 <__bss_end+0xfe002f94>
    610c:	00000ff6 	strdeq	r0, [r0], -r6
    6110:	0ea9f603 	cdpeq	6, 10, cr15, cr9, cr3, {0}
    6114:	0c840000 	stceq	0, cr0, [r4], {0}
    6118:	00306453 	eorseq	r6, r0, r3, asr r4
    611c:	0ea9f703 	cdpeq	7, 10, cr15, cr9, cr3, {0}
    6120:	0c880000 	stceq	0, cr0, [r8], {0}
    6124:	00316453 	eorseq	r6, r1, r3, asr r4
    6128:	0ea9f803 	cdpeq	8, 10, cr15, cr9, cr3, {0}
    612c:	0c8c0000 	stceq	0, cr0, [ip], {0}
    6130:	00326453 	eorseq	r6, r2, r3, asr r4
    6134:	0ea9f903 	cdpeq	9, 10, cr15, cr9, cr3, {0}
    6138:	0b900000 	bleq	fe406140 <__bss_end+0xfe402fc4>
    613c:	00001001 	andeq	r1, r0, r1
    6140:	0f02fa03 	svceq	0x0002fa03
    6144:	0c940000 	ldceq	0, cr0, [r4], {0}
    6148:	03007353 	movweq	r7, #851	; 0x353
    614c:	000ea9fb 	strdeq	sl, [lr], -fp
    6150:	090b9c00 	stmdbeq	fp, {sl, fp, ip, pc}
    6154:	0300000e 	movweq	r0, #14
    6158:	000ea9fc 	strdeq	sl, [lr], -ip
    615c:	0e0ba000 	cdpeq	0, 0, cr10, cr11, cr0, {0}
    6160:	0300000e 	movweq	r0, #14
    6164:	000ea9fd 	strdeq	sl, [lr], -sp
    6168:	0c0ba400 	cfstrseq	mvf10, [fp], {-0}
    616c:	03000010 	movweq	r0, #16
    6170:	000f07fe 	strdeq	r0, [pc], -lr
    6174:	940ba800 	strls	sl, [fp], #-2048	; 0xfffff800
    6178:	03000005 	movweq	r0, #5
    617c:	000ea9ff 	strdeq	sl, [lr], -pc	; <UNPREDICTABLE>
    6180:	990db000 	stmdbls	sp, {ip, sp, pc}
    6184:	03000005 	movweq	r0, #5
    6188:	0ea90100 	fdveqe	f0, f1, f0
    618c:	0db40000 	ldceq	0, cr0, [r4]
    6190:	000009d5 	ldrdeq	r0, [r0], -r5
    6194:	0c010103 	stfeqs	f0, [r1], {3}
    6198:	b800000f 	stmdalt	r0, {r0, r1, r2, r3}
    619c:	000e670d 	andeq	r6, lr, sp, lsl #14
    61a0:	01020300 	mrseq	r0, LR_svc
    61a4:	00000ea9 	andeq	r0, r0, r9, lsr #29
    61a8:	0b060dc0 	bleq	1898b0 <__bss_end+0x186734>
    61ac:	03030000 	movweq	r0, #12288	; 0x3000
    61b0:	000f1101 	andeq	r1, pc, r1, lsl #2
    61b4:	550ec400 	strpl	ip, [lr, #-1024]	; 0xfffffc00
    61b8:	03006273 	movweq	r6, #627	; 0x273
    61bc:	0ea90104 	fdveqe	f0, f1, f4
    61c0:	0dcc0000 	stcleq	0, cr0, [ip]
    61c4:	00000f54 	andeq	r0, r0, r4, asr pc
    61c8:	a9010503 	stmdbge	r1, {r0, r1, r8, sl}
    61cc:	d000000e 	andle	r0, r0, lr
    61d0:	0009f70d 	andeq	pc, r9, sp, lsl #14
    61d4:	01060300 	mrseq	r0, LR_und
    61d8:	00000f26 	andeq	r0, r0, r6, lsr #30
    61dc:	103c0dd4 	ldrsbtne	r0, [ip], -r4
    61e0:	07030000 	streq	r0, [r3, -r0]
    61e4:	000ea901 	andeq	sl, lr, r1, lsl #18
    61e8:	e20df000 	and	pc, sp, #0
    61ec:	0300000e 	movweq	r0, #14
    61f0:	0ea90108 	fdveqe	f0, f1, #0.0
    61f4:	0df40000 	ldcleq	0, cr0, [r4]
    61f8:	00000a34 	andeq	r0, r0, r4, lsr sl
    61fc:	a9010903 	stmdbge	r1, {r0, r1, r8, fp}
    6200:	f800000e 			; <UNDEFINED> instruction: 0xf800000e
    6204:	000b830d 	andeq	r8, fp, sp, lsl #6
    6208:	010a0300 	mrseq	r0, (UNDEF: 58)
    620c:	00000ea9 	andeq	r0, r0, r9, lsr #29
    6210:	0c3b0ffc 	ldceq	15, cr0, [fp], #-1008	; 0xfffffc10
    6214:	0b030000 	bleq	c621c <__bss_end+0xc30a0>
    6218:	000ea901 	andeq	sl, lr, r1, lsl #18
    621c:	10010000 	andne	r0, r1, r0
    6220:	00306542 	eorseq	r6, r0, r2, asr #10
    6224:	a9010c03 	stmdbge	r1, {r0, r1, sl, fp}
    6228:	0400000e 	streq	r0, [r0], #-14
    622c:	0b3d0f01 	bleq	f49e38 <__bss_end+0xf46cbc>
    6230:	0d030000 	stceq	0, cr0, [r3, #-0]
    6234:	000ea901 	andeq	sl, lr, r1, lsl #18
    6238:	10010800 	andne	r0, r1, r0, lsl #16
    623c:	00306546 	eorseq	r6, r0, r6, asr #10
    6240:	a9010e03 	stmdbge	r1, {r0, r1, r9, sl, fp}
    6244:	0c00000e 	stceq	0, cr0, [r0], {14}
    6248:	049e0f01 	ldreq	r0, [lr], #3841	; 0xf01
    624c:	0f030000 	svceq	0x00030000
    6250:	000ea901 	andeq	sl, lr, r1, lsl #18
    6254:	0f011000 	svceq	0x00011000
    6258:	000004aa 	andeq	r0, r0, sl, lsr #9
    625c:	a9011003 	stmdbge	r1, {r0, r1, ip}
    6260:	1400000e 	strne	r0, [r0], #-14
    6264:	05130f01 	ldreq	r0, [r3, #-3841]	; 0xfffff0ff
    6268:	11030000 	mrsne	r0, (UNDEF: 3)
    626c:	000ea901 	andeq	sl, lr, r1, lsl #18
    6270:	0f011800 	svceq	0x00011800
    6274:	000004b6 			; <UNDEFINED> instruction: 0x000004b6
    6278:	a9011203 	stmdbge	r1, {r0, r1, r9, ip}
    627c:	1c00000e 	stcne	0, cr0, [r0], {14}
    6280:	0a080f01 	beq	209e8c <__bss_end+0x206d10>
    6284:	13030000 	movwne	r0, #12288	; 0x3000
    6288:	000f3b01 	andeq	r3, pc, r1, lsl #22
    628c:	0f012000 	svceq	0x00012000
    6290:	0000051b 	andeq	r0, r0, fp, lsl r5
    6294:	a9011403 	stmdbge	r1, {r0, r1, sl, ip}
    6298:	2c00000e 	stccs	0, cr0, [r0], {14}
    629c:	05530f01 	ldrbeq	r0, [r3, #-3841]	; 0xfffff0ff
    62a0:	15030000 	strne	r0, [r3, #-0]
    62a4:	000ea901 	andeq	sl, lr, r1, lsl #18
    62a8:	0f013000 	svceq	0x00013000
    62ac:	00000db6 			; <UNDEFINED> instruction: 0x00000db6
    62b0:	a9011603 	stmdbge	r1, {r0, r1, r9, sl, ip}
    62b4:	3400000e 	strcc	r0, [r0], #-14
    62b8:	055f0f01 	ldrbeq	r0, [pc, #-3841]	; 53bf <__bss_end+0x2243>
    62bc:	17030000 	strne	r0, [r3, -r0]
    62c0:	000ea901 	andeq	sl, lr, r1, lsl #18
    62c4:	10013800 	andne	r3, r1, r0, lsl #16
    62c8:	03006556 	movweq	r6, #1366	; 0x556
    62cc:	0ea90118 	mcreq	1, 5, r0, cr9, cr8, {0}
    62d0:	013c0000 	teqeq	ip, r0
    62d4:	0009800f 	andeq	r8, r9, pc
    62d8:	01190300 	tsteq	r9, r0, lsl #6
    62dc:	00000ea9 	andeq	r0, r0, r9, lsr #29
    62e0:	41100140 	tstmi	r0, r0, asr #2
    62e4:	03007376 	movweq	r7, #886	; 0x376
    62e8:	0ea9011a 	mcreq	1, 5, r0, cr9, cr10, {0}
    62ec:	01440000 	mrseq	r0, (UNDEF: 68)
    62f0:	00056b0f 	andeq	r6, r5, pc, lsl #22
    62f4:	011b0300 	tsteq	fp, r0, lsl #6
    62f8:	00000ea9 	andeq	r0, r0, r9, lsr #29
    62fc:	130f0148 	movwne	r0, #61768	; 0xf148
    6300:	0300000a 	movweq	r0, #10
    6304:	0ea9011c 	mcreq	1, 5, r0, cr9, cr12, {0}
    6308:	014c0000 	mrseq	r0, (UNDEF: 76)
    630c:	00064e0f 	andeq	r4, r6, pc, lsl #28
    6310:	011d0300 	tsteq	sp, r0, lsl #6
    6314:	00000ea9 	andeq	r0, r0, r9, lsr #29
    6318:	5a0f0150 	bpl	3c6860 <__bss_end+0x3c36e4>
    631c:	03000006 	movweq	r0, #6
    6320:	0ea9011e 	mcreq	1, 5, r0, cr9, cr14, {0}
    6324:	01540000 	cmpeq	r4, r0
    6328:	0006660f 	andeq	r6, r6, pc, lsl #12
    632c:	011f0300 	tsteq	pc, r0, lsl #6
    6330:	00000ea9 	andeq	r0, r0, r9, lsr #29
    6334:	ce0f0158 	mcrgt	1, 0, r0, cr15, cr8, {2}
    6338:	03000006 	movweq	r0, #6
    633c:	0ea90120 	fdveqep	f0, f1, f0
    6340:	015c0000 	cmpeq	ip, r0
    6344:	0006720f 	andeq	r7, r6, pc, lsl #4
    6348:	01210300 			; <UNDEFINED> instruction: 0x01210300
    634c:	00000ea9 	andeq	r0, r0, r9, lsr #29
    6350:	1e0f0160 	adfneez	f0, f7, f0
    6354:	0300000a 	movweq	r0, #10
    6358:	0ea90122 	fdveqep	f0, f1, f2
    635c:	01640000 	cmneq	r4, r0
    6360:	0005dc0f 	andeq	sp, r5, pc, lsl #24
    6364:	01230300 			; <UNDEFINED> instruction: 0x01230300
    6368:	00000ea9 	andeq	r0, r0, r9, lsr #29
    636c:	910f0168 	tstls	pc, r8, ror #2
    6370:	0300000f 	movweq	r0, #15
    6374:	0ea90124 	fdveqep	f0, f1, f4
    6378:	016c0000 	cmneq	ip, r0
    637c:	000a290f 	andeq	r2, sl, pc, lsl #18
    6380:	01250300 			; <UNDEFINED> instruction: 0x01250300
    6384:	00000f40 	andeq	r0, r0, r0, asr #30
    6388:	a50f0170 	strge	r0, [pc, #-368]	; 6220 <__bss_end+0x30a4>
    638c:	03000008 	movweq	r0, #8
    6390:	0ea90126 	fdveqep	f0, f1, f6
    6394:	01800000 	orreq	r0, r0, r0
    6398:	0008540f 	andeq	r5, r8, pc, lsl #8
    639c:	01270300 			; <UNDEFINED> instruction: 0x01270300
    63a0:	00000ea9 	andeq	r0, r0, r9, lsr #29
    63a4:	600f0184 	andvs	r0, pc, r4, lsl #3
    63a8:	03000008 	movweq	r0, #8
    63ac:	0ea90128 	fdveqep	f0, f1, #0.0
    63b0:	01880000 	orreq	r0, r8, r0
    63b4:	00086c0f 	andeq	r6, r8, pc, lsl #24
    63b8:	01290300 			; <UNDEFINED> instruction: 0x01290300
    63bc:	00000ea9 	andeq	r0, r0, r9, lsr #29
    63c0:	320f018c 	andcc	r0, pc, #140, 2	; 0x23
    63c4:	0300000b 	movweq	r0, #11
    63c8:	0f45012a 	svceq	0x0045012a
    63cc:	01900000 	orrseq	r0, r0, r0
    63d0:	00089d0f 	andeq	r9, r8, pc, lsl #26
    63d4:	012b0300 			; <UNDEFINED> instruction: 0x012b0300
    63d8:	00000ea9 	andeq	r0, r0, r9, lsr #29
    63dc:	cc0f01a0 	stfgts	f0, [pc], {160}	; 0xa0
    63e0:	03000007 	movweq	r0, #7
    63e4:	0ea9012c 	fdveqep	f0, f1, #4.0
    63e8:	01a40000 			; <UNDEFINED> instruction: 0x01a40000
    63ec:	000b900f 	andeq	r9, fp, pc
    63f0:	012d0300 			; <UNDEFINED> instruction: 0x012d0300
    63f4:	00000ea9 	andeq	r0, r0, r9, lsr #29
    63f8:	f50f01a8 			; <UNDEFINED> instruction: 0xf50f01a8
    63fc:	03000008 	movweq	r0, #8
    6400:	0ea9012e 	fdveqep	f0, f1, #0.5
    6404:	01ac0000 			; <UNDEFINED> instruction: 0x01ac0000
    6408:	73744110 	cmnvc	r4, #16, 2
    640c:	012f0300 			; <UNDEFINED> instruction: 0x012f0300
    6410:	00000ea9 	andeq	r0, r0, r9, lsr #29
    6414:	3e0f01b0 	fltcc<illegal precision>p	f7, r0
    6418:	0300000a 	movweq	r0, #10
    641c:	0f5a0130 	svceq	0x005a0130
    6420:	01b40000 			; <UNDEFINED> instruction: 0x01b40000
    6424:	0008780f 	andeq	r7, r8, pc, lsl #16
    6428:	01310300 	teqeq	r1, r0, lsl #6
    642c:	00000f5f 	andeq	r0, r0, pc, asr pc
    6430:	f90f0200 			; <UNDEFINED> instruction: 0xf90f0200
    6434:	0300000b 	movweq	r0, #11
    6438:	0ea90132 	mcreq	1, 5, r0, cr9, cr2, {1}
    643c:	02040000 	andeq	r0, r4, #0
    6440:	000fce0f 	andeq	ip, pc, pc, lsl #28
    6444:	01330300 	teqeq	r3, r0, lsl #6
    6448:	00000f74 	andeq	r0, r0, r4, ror pc
    644c:	a60f0208 	strge	r0, [pc], -r8, lsl #4
    6450:	0300000a 	movweq	r0, #10
    6454:	0f890134 	svceq	0x00890134
    6458:	02200000 	eoreq	r0, r0, #0
    645c:	0006290f 	andeq	r2, r6, pc, lsl #18
    6460:	01350300 	teqeq	r5, r0, lsl #6
    6464:	00000ea9 	andeq	r0, r0, r9, lsr #29
    6468:	620f0224 	andvs	r0, pc, #36, 4	; 0x40000002
    646c:	03000009 	movweq	r0, #9
    6470:	0ea90136 	mcreq	1, 5, r0, cr9, cr6, {1}
    6474:	02280000 	eoreq	r0, r8, #0
    6478:	000aed0f 	andeq	lr, sl, pc, lsl #26
    647c:	01370300 	teqeq	r7, r0, lsl #6
    6480:	00000ea9 	andeq	r0, r0, r9, lsr #29
    6484:	020f022c 	andeq	r0, pc, #44, 4	; 0xc0000002
    6488:	0300000c 	movweq	r0, #12
    648c:	0ea90138 	mcreq	1, 5, r0, cr9, cr8, {1}
    6490:	02300000 	eorseq	r0, r0, #0
    6494:	000e490f 	andeq	r4, lr, pc, lsl #18
    6498:	01390300 	teqeq	r9, r0, lsl #6
    649c:	00000ea9 	andeq	r0, r0, r9, lsr #29
    64a0:	620f0234 	andvs	r0, pc, #52, 4	; 0x40000003
    64a4:	03000007 	movweq	r0, #7
    64a8:	0ea9013a 	mcreq	1, 5, r0, cr9, cr10, {1}
    64ac:	02380000 	eorseq	r0, r8, #0
    64b0:	00079e0f 	andeq	r9, r7, pc, lsl #28
    64b4:	013b0300 	teqeq	fp, r0, lsl #6
    64b8:	00000ea9 	andeq	r0, r0, r9, lsr #29
    64bc:	af0f023c 	svcge	0x000f023c
    64c0:	0300000a 	movweq	r0, #10
    64c4:	0ea9013c 	mcreq	1, 5, r0, cr9, cr12, {1}
    64c8:	02400000 	subeq	r0, r0, #0
    64cc:	0006a40f 	andeq	sl, r6, pc, lsl #8
    64d0:	013d0300 	teqeq	sp, r0, lsl #6
    64d4:	00000ea9 	andeq	r0, r0, r9, lsr #29
    64d8:	4f0f0244 	svcmi	0x000f0244
    64dc:	0300000c 	movweq	r0, #12
    64e0:	0ea9013e 	mcreq	1, 5, r0, cr9, cr14, {1}
    64e4:	02480000 	subeq	r0, r8, #0
    64e8:	000eb30f 	andeq	fp, lr, pc, lsl #6
    64ec:	013f0300 	teqeq	pc, r0, lsl #6
    64f0:	00000ea9 	andeq	r0, r0, r9, lsr #29
    64f4:	c60f024c 	strgt	r0, [pc], -ip, asr #4
    64f8:	03000006 	movweq	r0, #6
    64fc:	0ea90140 	fdveqem	f0, f1, f0
    6500:	02500000 	subseq	r0, r0, #0
    6504:	00076e0f 	andeq	r6, r7, pc, lsl #28
    6508:	01410300 	mrseq	r0, (UNDEF: 113)
    650c:	00000f8e 	andeq	r0, r0, lr, lsl #31
    6510:	f70f0254 			; <UNDEFINED> instruction: 0xf70f0254
    6514:	0300000a 	movweq	r0, #10
    6518:	0ea90142 	fdveqem	f0, f1, f2
    651c:	02600000 	rsbeq	r0, r0, #0
    6520:	00077a0f 	andeq	r7, r7, pc, lsl #20
    6524:	01430300 	mrseq	r0, (UNDEF: 115)
    6528:	00000f93 	muleq	r0, r3, pc	; <UNPREDICTABLE>
    652c:	c70f0264 	strgt	r0, [pc, -r4, ror #4]
    6530:	0300000a 	movweq	r0, #10
    6534:	0ea90144 	fdveqem	f0, f1, f4
    6538:	02700000 	rsbseq	r0, r0, #0
    653c:	0007860f 	andeq	r8, r7, pc, lsl #12
    6540:	01450300 	mrseq	r0, (UNDEF: 117)
    6544:	00000f98 	muleq	r0, r8, pc	; <UNPREDICTABLE>
    6548:	bb0f0274 	bllt	3c6f20 <__bss_end+0x3c3da4>
    654c:	0300000a 	movweq	r0, #10
    6550:	0ea90146 	fdveqem	f0, f1, f6
    6554:	02800000 	addeq	r0, r0, #0
    6558:	000df20f 	andeq	pc, sp, pc, lsl #4
    655c:	01470300 	mrseq	r0, (UNDEF: 119)
    6560:	00000ea9 	andeq	r0, r0, r9, lsr #29
    6564:	b10f0284 	smlabblt	pc, r4, r2, r0	; <UNPREDICTABLE>
    6568:	0300000f 	movweq	r0, #15
    656c:	0ea90148 	fdveqem	f0, f1, #0.0
    6570:	02880000 	addeq	r0, r8, #0
    6574:	000fc10f 	andeq	ip, pc, pc, lsl #2
    6578:	01490300 	mrseq	r0, (UNDEF: 121)
    657c:	00000ea9 	andeq	r0, r0, r9, lsr #29
    6580:	440f028c 	strmi	r0, [pc], #-652	; 6588 <__bss_end+0x340c>
    6584:	03000004 	movweq	r0, #4
    6588:	0ea9014a 	fdveqem	f0, f1, #2.0
    658c:	02900000 	addseq	r0, r0, #0
    6590:	000e1c0f 	andeq	r1, lr, pc, lsl #24
    6594:	014b0300 	mrseq	r0, (UNDEF: 123)
    6598:	00000f9d 	muleq	r0, sp, pc	; <UNPREDICTABLE>
    659c:	d30f0294 	movwle	r0, #62100	; 0xf294
    65a0:	03000007 	movweq	r0, #7
    65a4:	0ea9014c 	fdveqem	f0, f1, #4.0
    65a8:	029c0000 	addseq	r0, ip, #0
    65ac:	000a520f 	andeq	r5, sl, pc, lsl #4
    65b0:	014d0300 	mrseq	r0, (UNDEF: 125)
    65b4:	00000ea9 	andeq	r0, r0, r9, lsr #29
    65b8:	7e0f02a0 	cdpvc	2, 0, cr0, cr15, cr0, {5}
    65bc:	03000006 	movweq	r0, #6
    65c0:	0ea9014e 	fdveqem	f0, f1, #0.5
    65c4:	02a40000 	adceq	r0, r4, #0
    65c8:	000d9c0f 	andeq	r9, sp, pc, lsl #24
    65cc:	014f0300 	mrseq	r0, (UNDEF: 127)
    65d0:	00000ea9 	andeq	r0, r0, r9, lsr #29
    65d4:	690f02a8 	stmdbvs	pc, {r3, r5, r7, r9}	; <UNPREDICTABLE>
    65d8:	0300000f 	movweq	r0, #15
    65dc:	0ea90150 	mcreq	1, 5, r0, cr9, cr0, {2}
    65e0:	02ac0000 	adceq	r0, ip, #0
    65e4:	000f7d0f 	andeq	r7, pc, pc, lsl #26
    65e8:	01510300 	cmpeq	r1, r0, lsl #6
    65ec:	00000ea9 	andeq	r0, r0, r9, lsr #29
    65f0:	920f02b0 	andls	r0, pc, #176, 4
    65f4:	03000007 	movweq	r0, #7
    65f8:	0fa20152 	svceq	0x00a20152
    65fc:	02b40000 	adcseq	r0, r4, #0
    6600:	000b9e0f 	andeq	r9, fp, pc, lsl #28
    6604:	01530300 	cmpeq	r3, r0, lsl #6
    6608:	00000ea9 	andeq	r0, r0, r9, lsr #29
    660c:	a80f02c0 	stmdage	pc, {r6, r7, r9}	; <UNPREDICTABLE>
    6610:	0300000b 	movweq	r0, #11
    6614:	0ea90154 	mcreq	1, 5, r0, cr9, cr4, {2}
    6618:	02c40000 	sbceq	r0, r4, #0
    661c:	000bb20f 	andeq	fp, fp, pc, lsl #4
    6620:	01550300 	cmpeq	r5, r0, lsl #6
    6624:	00000ea9 	andeq	r0, r0, r9, lsr #29
    6628:	d70f02c8 	strle	r0, [pc, -r8, asr #5]
    662c:	0300000a 	movweq	r0, #10
    6630:	0ea90156 	mcreq	1, 5, r0, cr9, cr6, {2}
    6634:	02cc0000 	sbceq	r0, ip, #0
    6638:	000d120f 	andeq	r1, sp, pc, lsl #4
    663c:	01570300 	cmpeq	r7, r0, lsl #6
    6640:	00000ea9 	andeq	r0, r0, r9, lsr #29
    6644:	e20f02d0 	and	r0, pc, #208, 4
    6648:	0300000a 	movweq	r0, #10
    664c:	0ea90158 	mcreq	1, 5, r0, cr9, cr8, {2}
    6650:	02d40000 	sbcseq	r0, r4, #0
    6654:	0008230f 	andeq	r2, r8, pc, lsl #6
    6658:	01590300 	cmpeq	r9, r0, lsl #6
    665c:	00000ea9 	andeq	r0, r0, r9, lsr #29
    6660:	110002d8 	ldrdne	r0, [r0, -r8]
    6664:	00000169 	andeq	r0, r0, r9, ror #2
    6668:	00005e11 	andeq	r5, r0, r1, lsl lr
    666c:	02261100 	eoreq	r1, r6, #0, 2
    6670:	01110000 	tsteq	r1, r0
    6674:	11000003 	tstne	r0, r3
    6678:	000003fa 	strdeq	r0, [r0], -sl
    667c:	0004c611 	andeq	ip, r4, r1, lsl r6
    6680:	05fb1100 	ldrbeq	r1, [fp, #256]!	; 0x100
    6684:	88110000 	ldmdahi	r1, {}	; <UNPREDICTABLE>
    6688:	11000006 	tstne	r0, r6
    668c:	00000709 	andeq	r0, r0, r9, lsl #14
    6690:	00079611 	andeq	r9, r7, r1, lsl r6
    6694:	005e1200 	subseq	r1, lr, r0, lsl #4
    6698:	0ee60000 	cdpeq	0, 14, cr0, cr6, cr0, {0}
    669c:	e6130000 	ldr	r0, [r3], -r0
    66a0:	0300000e 	movweq	r0, #14
    66a4:	07040200 	streq	r0, [r4, -r0, lsl #4]
    66a8:	0000022f 	andeq	r0, r0, pc, lsr #4
    66ac:	000ed611 	andeq	sp, lr, r1, lsl r6
    66b0:	005e1200 	subseq	r1, lr, r0, lsl #4
    66b4:	0f020000 	svceq	0x00020000
    66b8:	e6130000 	ldr	r0, [r3], -r0
    66bc:	0100000e 	tsteq	r0, lr
    66c0:	0ef21100 	cdpeq	1, 15, cr1, cr2, cr0, {0}
    66c4:	f2110000 	vhadd.s16	d0, d1, d0
    66c8:	1100000e 	tstne	r0, lr
    66cc:	00000ef2 	strdeq	r0, [r0], -r2
    66d0:	000ef211 	andeq	pc, lr, r1, lsl r2	; <UNPREDICTABLE>
    66d4:	005e1200 	subseq	r1, lr, r0, lsl #4
    66d8:	0f260000 	svceq	0x00260000
    66dc:	e6130000 	ldr	r0, [r3], -r0
    66e0:	0600000e 	streq	r0, [r0], -lr
    66e4:	0f161100 	svceq	0x00161100
    66e8:	5e120000 	cdppl	0, 1, cr0, cr2, cr0, {0}
    66ec:	3b000000 	blcc	66f4 <__bss_end+0x3578>
    66f0:	1300000f 	movwne	r0, #15
    66f4:	00000ee6 	andeq	r0, r0, r6, ror #29
    66f8:	2b110002 	blcs	446708 <__bss_end+0x44358c>
    66fc:	1100000f 	tstne	r0, pc
    6700:	00000ed6 	ldrdeq	r0, [r0], -r6
    6704:	000ed611 	andeq	sp, lr, r1, lsl r6
    6708:	005e1200 	subseq	r1, lr, r0, lsl #4
    670c:	0f5a0000 	svceq	0x005a0000
    6710:	e6130000 	ldr	r0, [r3], -r0
    6714:	1200000e 	andne	r0, r0, #14
    6718:	0f4a1100 	svceq	0x004a1100
    671c:	cc110000 	ldcgt	0, cr0, [r1], {-0}
    6720:	12000007 	andne	r0, r0, #7
    6724:	0000005e 	andeq	r0, r0, lr, asr r0
    6728:	00000f74 	andeq	r0, r0, r4, ror pc
    672c:	000ee613 	andeq	lr, lr, r3, lsl r6
    6730:	11000500 	tstne	r0, r0, lsl #10
    6734:	00000f64 	andeq	r0, r0, r4, ror #30
    6738:	00005e12 	andeq	r5, r0, r2, lsl lr
    673c:	000f8900 	andeq	r8, pc, r0, lsl #18
    6740:	0ee61300 	cdpeq	3, 14, cr1, cr6, cr0, {0}
    6744:	00000000 	andeq	r0, r0, r0
    6748:	000f7911 	andeq	r7, pc, r1, lsl r9	; <UNPREDICTABLE>
    674c:	0f2b1100 	svceq	0x002b1100
    6750:	2b110000 	blcs	446758 <__bss_end+0x4435dc>
    6754:	1100000f 	tstne	r0, pc
    6758:	00000f2b 	andeq	r0, r0, fp, lsr #30
    675c:	000ef211 	andeq	pc, lr, r1, lsl r2	; <UNPREDICTABLE>
    6760:	0f2b1100 	svceq	0x002b1100
    6764:	96140000 	ldrls	r0, [r4], -r0
    6768:	0300000e 	movweq	r0, #14
    676c:	07d7015a 			; <UNDEFINED> instruction: 0x07d7015a
    6770:	04150000 	ldreq	r0, [r5], #-0
    6774:	00000fa7 	andeq	r0, r0, r7, lsr #31
    6778:	000c8809 	andeq	r8, ip, r9, lsl #16
    677c:	18040800 	stmdane	r4, {fp}
    6780:	00000fde 	ldrdeq	r0, [r0], -lr
    6784:	0005230b 	andeq	r2, r5, fp, lsl #6
    6788:	5e190400 	cfmulspl	mvf0, mvf9, mvf0
    678c:	00000000 	andeq	r0, r0, r0
    6790:	00082d0b 	andeq	r2, r8, fp, lsl #26
    6794:	5e1a0400 	cfmulspl	mvf0, mvf10, mvf0
    6798:	04000000 	streq	r0, [r0], #-0
    679c:	0ea80900 	cdpeq	9, 10, cr0, cr8, cr0, {0}
    67a0:	04240000 	strteq	r0, [r4], #-0
    67a4:	0010571d 	andseq	r5, r0, sp, lsl r7
    67a8:	0f060b00 	svceq	0x00060b00
    67ac:	1e040000 	cdpne	0, 0, cr0, cr4, cr0, {0}
    67b0:	0000005e 	andeq	r0, r0, lr, asr r0
    67b4:	0ecd0b00 	vdiveq.f64	d16, d13, d0
    67b8:	1f040000 	svcne	0x00040000
    67bc:	0000005e 	andeq	r0, r0, lr, asr r0
    67c0:	08800b04 	stmeq	r0, {r2, r8, r9, fp}
    67c4:	20040000 	andcs	r0, r4, r0
    67c8:	0000005e 	andeq	r0, r0, lr, asr r0
    67cc:	0b490b08 	bleq	12493f4 <__bss_end+0x1246278>
    67d0:	22040000 	andcs	r0, r4, #0
    67d4:	0000005e 	andeq	r0, r0, lr, asr r0
    67d8:	05a70b0c 	streq	r0, [r7, #2828]!	; 0xb0c
    67dc:	23040000 	movwcs	r0, #16384	; 0x4000
    67e0:	0000005e 	andeq	r0, r0, lr, asr r0
    67e4:	09620b10 	stmdbeq	r2!, {r4, r8, r9, fp}^
    67e8:	24040000 	strcs	r0, [r4], #-0
    67ec:	0000005e 	andeq	r0, r0, lr, asr r0
    67f0:	0aed0b14 	beq	ffb49448 <__bss_end+0xffb462cc>
    67f4:	25040000 	strcs	r0, [r4, #-0]
    67f8:	0000005e 	andeq	r0, r0, lr, asr r0
    67fc:	0fb10b18 	svceq	0x00b10b18
    6800:	26040000 	strcs	r0, [r4], -r0
    6804:	0000005e 	andeq	r0, r0, lr, asr r0
    6808:	0fc10b1c 	svceq	0x00c10b1c
    680c:	27040000 	strcs	r0, [r4, -r0]
    6810:	0000005e 	andeq	r0, r0, lr, asr r0
    6814:	41090020 	tstmi	r9, r0, lsr #32
    6818:	08000006 	stmdaeq	r0, {r1, r2}
    681c:	10a04a04 	adcne	r4, r0, r4, lsl #20
    6820:	4a0b0000 	bmi	2c6828 <__bss_end+0x2c36ac>
    6824:	04000007 	streq	r0, [r0], #-7
    6828:	00002c4b 	andeq	r2, r0, fp, asr #24
    682c:	3a0b0000 	bcc	2c6834 <__bss_end+0x2c36b8>
    6830:	04000007 	streq	r0, [r0], #-7
    6834:	00002c4c 	andeq	r2, r0, ip, asr #24
    6838:	420b0100 	andmi	r0, fp, #0, 2
    683c:	04000007 	streq	r0, [r0], #-7
    6840:	00002c4d 	andeq	r2, r0, sp, asr #24
    6844:	5a0b0200 	bpl	2c704c <__bss_end+0x2c3ed0>
    6848:	04000007 	streq	r0, [r0], #-7
    684c:	00002c4e 	andeq	r2, r0, lr, asr #24
    6850:	500c0300 	andpl	r0, ip, r0, lsl #6
    6854:	04006c6c 	streq	r6, [r0], #-3180	; 0xfffff394
    6858:	00005e4f 	andeq	r5, r0, pc, asr #28
    685c:	09000400 	stmdbeq	r0, {sl}
    6860:	00001f07 	andeq	r1, r0, r7, lsl #30
    6864:	c5520440 	ldrbgt	r0, [r2, #-1088]	; 0xfffffbc0
    6868:	0b000010 	bleq	68b0 <__bss_end+0x3734>
    686c:	00000e29 	andeq	r0, r0, r9, lsr #28
    6870:	0fb35304 	svceq	0x00b35304
    6874:	0b000000 	bleq	687c <__bss_end+0x3700>
    6878:	00001eda 	ldrdeq	r1, [r0], -sl
    687c:	10c55404 	sbcne	r5, r5, r4, lsl #8
    6880:	00040000 	andeq	r0, r4, r0
    6884:	00005e12 	andeq	r5, r0, r2, lsl lr
    6888:	0010d500 	andseq	sp, r0, r0, lsl #10
    688c:	0ee61300 	cdpeq	3, 14, cr1, cr6, cr0, {0}
    6890:	000e0000 	andeq	r0, lr, r0
    6894:	00020b16 	andeq	r0, r2, r6, lsl fp
    6898:	00690400 	rsbeq	r0, r9, r0, lsl #8
    689c:	89070000 	stmdbhi	r7, {}	; <UNPREDICTABLE>
    68a0:	00001164 	andeq	r1, r0, r4, ror #2
    68a4:	0000d417 	andeq	sp, r0, r7, lsl r4
    68a8:	29170000 	ldmdbcs	r7, {}	; <UNPREDICTABLE>
    68ac:	01000001 	tsteq	r0, r1
    68b0:	0000e117 	andeq	lr, r0, r7, lsl r1
    68b4:	06170200 	ldreq	r0, [r7], -r0, lsl #4
    68b8:	03000001 	movweq	r0, #1
    68bc:	00025317 	andeq	r5, r2, r7, lsl r3
    68c0:	d2170400 	andsle	r0, r7, #0, 8
    68c4:	05000001 	streq	r0, [r0, #-1]
    68c8:	0001ba17 	andeq	fp, r1, r7, lsl sl
    68cc:	f5170600 			; <UNDEFINED> instruction: 0xf5170600
    68d0:	07000001 	streq	r0, [r0, -r1]
    68d4:	0000c817 	andeq	ip, r0, r7, lsl r8
    68d8:	fb170800 	blx	5c88e2 <__bss_end+0x5c5766>
    68dc:	09000000 	stmdbeq	r0, {}	; <UNPREDICTABLE>
    68e0:	0001c717 	andeq	ip, r1, r7, lsl r7
    68e4:	6d170a00 	vldrvs	s0, [r7, #-0]
    68e8:	0b000002 	bleq	68f8 <__bss_end+0x377c>
    68ec:	00020517 	andeq	r0, r2, r7, lsl r5
    68f0:	21170c00 	tstcs	r7, r0, lsl #24
    68f4:	0d000002 	stceq	0, cr0, [r0, #-8]
    68f8:	00031a17 	andeq	r1, r3, r7, lsl sl
    68fc:	5f170e00 	svcpl	0x00170e00
    6900:	0f000002 	svceq	0x00000002
    6904:	0002ea17 	andeq	lr, r2, r7, lsl sl
    6908:	46171000 	ldrmi	r1, [r7], -r0
    690c:	11000002 	tstne	r0, r2
    6910:	00030417 	andeq	r0, r3, r7, lsl r4
    6914:	ee171200 	cdp	2, 1, cr1, cr7, cr0, {0}
    6918:	13000000 	movwne	r0, #0
    691c:	0002cf17 	andeq	ip, r2, r7, lsl pc
    6920:	02001400 	andeq	r1, r0, #0, 8
    6924:	011b0801 	tsteq	fp, r1, lsl #16
    6928:	04020000 	streq	r0, [r2], #-0
    692c:	0001e307 	andeq	lr, r1, r7, lsl #6
    6930:	05461800 	strbeq	r1, [r6, #-2048]	; 0xfffff800
    6934:	20010000 	andcs	r0, r1, r0
    6938:	00000fb3 			; <UNDEFINED> instruction: 0x00000fb3
    693c:	00002868 	andeq	r2, r0, r8, ror #16
    6940:	00000030 	andeq	r0, r0, r0, lsr r0
    6944:	119b9c01 	orrsne	r9, fp, r1, lsl #24
    6948:	e2190000 	ands	r0, r9, #0
    694c:	01000016 	tsteq	r0, r6, lsl r0
    6950:	00005e20 	andeq	r5, r0, r0, lsr #28
    6954:	00176200 	andseq	r6, r7, r0, lsl #4
    6958:	831a0000 	tsthi	sl, #0
    695c:	01000016 	tsteq	r0, r6, lsl r0
    6960:	000fb339 	andeq	fp, pc, r9, lsr r3	; <UNPREDICTABLE>
    6964:	00289800 	eoreq	r9, r8, r0, lsl #16
    6968:	00001000 	andeq	r1, r0, r0
    696c:	189c0100 	ldmne	ip, {r8}
    6970:	00001ecd 	andeq	r1, r0, sp, asr #29
    6974:	004c6001 	subeq	r6, ip, r1
    6978:	28a80000 	stmiacs	r8!, {}	; <UNPREDICTABLE>
    697c:	003c0000 	eorseq	r0, ip, r0
    6980:	9c010000 	stcls	0, cr0, [r1], {-0}
    6984:	000011d9 	ldrdeq	r1, [r0], -r9
    6988:	001f0619 	andseq	r0, pc, r9, lsl r6	; <UNPREDICTABLE>
    698c:	d9600100 	stmdble	r0!, {r8}^
    6990:	83000011 	movwhi	r0, #17
    6994:	00000017 	andeq	r0, r0, r7, lsl r0
    6998:	10a00415 	adcne	r0, r0, r5, lsl r4
    699c:	11180000 	tstne	r8, r0
    69a0:	0100001f 	tsteq	r0, pc, lsl r0
    69a4:	00004c7b 	andeq	r4, r0, fp, ror ip
    69a8:	0028e400 	eoreq	lr, r8, r0, lsl #8
    69ac:	00003400 	andeq	r3, r0, r0, lsl #8
    69b0:	089c0100 	ldmeq	ip, {r8}
    69b4:	19000012 	stmdbne	r0, {r1, r4}
    69b8:	00001f06 	andeq	r1, r0, r6, lsl #30
    69bc:	11d97b01 	bicsne	r7, r9, r1, lsl #22
    69c0:	17a10000 	strne	r0, [r1, r0]!
    69c4:	18000000 	stmdane	r0, {}	; <UNPREDICTABLE>
    69c8:	00000a88 	andeq	r0, r0, r8, lsl #21
    69cc:	004c9901 	subeq	r9, ip, r1, lsl #18
    69d0:	29180000 	ldmdbcs	r8, {}	; <UNPREDICTABLE>
    69d4:	007c0000 	rsbseq	r0, ip, r0
    69d8:	9c010000 	stcls	0, cr0, [r1], {-0}
    69dc:	00001253 	andeq	r1, r0, r3, asr r2
    69e0:	0007e119 	andeq	lr, r7, r9, lsl r1
    69e4:	53990100 	orrspl	r0, r9, #0, 2
    69e8:	cd000012 	stcgt	0, cr0, [r0, #-72]	; 0xffffffb8
    69ec:	1b000017 	blne	6a50 <__bss_end+0x38d4>
    69f0:	00002970 	andeq	r2, r0, r0, ror r9
    69f4:	000013ed 	andeq	r1, r0, sp, ror #7
    69f8:	00001243 	andeq	r1, r0, r3, asr #4
    69fc:	0150011c 	cmpeq	r0, ip, lsl r1
    6a00:	841d0035 	ldrhi	r0, [sp], #-53	; 0xffffffcb
    6a04:	ed000029 	stc	0, cr0, [r0, #-164]	; 0xffffff5c
    6a08:	1c000013 	stcne	0, cr0, [r0], {19}
    6a0c:	35015001 	strcc	r5, [r1, #-1]
    6a10:	04150000 	ldreq	r0, [r5], #-0
    6a14:	00000fb9 			; <UNDEFINED> instruction: 0x00000fb9
    6a18:	001ebe18 	andseq	fp, lr, r8, lsl lr
    6a1c:	4cbe0100 	ldfmis	f0, [lr]
    6a20:	94000000 	strls	r0, [r0], #-0
    6a24:	48000029 	stmdami	r0, {r0, r3, r5}
    6a28:	01000000 	mrseq	r0, (UNDEF: 0)
    6a2c:	0012829c 	mulseq	r2, ip, r2
    6a30:	07e11900 	strbeq	r1, [r1, r0, lsl #18]!
    6a34:	be010000 	cdplt	0, 0, cr0, cr1, cr0, {0}
    6a38:	00001253 	andeq	r1, r0, r3, asr r2
    6a3c:	00001804 	andeq	r1, r0, r4, lsl #16
    6a40:	08ad1800 	stmiaeq	sp!, {fp, ip}
    6a44:	d8010000 	stmdale	r1, {}	; <UNPREDICTABLE>
    6a48:	0000004c 	andeq	r0, r0, ip, asr #32
    6a4c:	000029dc 	ldrdeq	r2, [r0], -ip
    6a50:	0000006c 	andeq	r0, r0, ip, rrx
    6a54:	12ab9c01 	adcne	r9, fp, #256	; 0x100
    6a58:	f3190000 	vhadd.u16	d0, d9, d0
    6a5c:	0100001e 	tsteq	r0, lr, lsl r0
    6a60:	0012abd8 			; <UNDEFINED> instruction: 0x0012abd8
    6a64:	00183800 	andseq	r3, r8, r0, lsl #16
    6a68:	04150000 	ldreq	r0, [r5], #-0
    6a6c:	00001057 	andeq	r1, r0, r7, asr r0
    6a70:	001ee718 	andseq	lr, lr, r8, lsl r7
    6a74:	4cfb0100 	ldfmie	f0, [fp]
    6a78:	48000000 	stmdami	r0, {}	; <UNPREDICTABLE>
    6a7c:	5000002a 	andpl	r0, r0, sl, lsr #32
    6a80:	01000000 	mrseq	r0, (UNDEF: 0)
    6a84:	0012da9c 	mulseq	r2, ip, sl
    6a88:	1ef31900 	cdpne	9, 15, cr1, cr3, cr0, {0}
    6a8c:	fb010000 	blx	46a96 <__bss_end+0x4391a>
    6a90:	000012ab 	andeq	r1, r0, fp, lsr #5
    6a94:	00001864 	andeq	r1, r0, r4, ror #16
    6a98:	06181e00 	ldreq	r1, [r8], -r0, lsl #28
    6a9c:	1b010000 	blne	46aa4 <__bss_end+0x43928>
    6aa0:	00004c01 	andeq	r4, r0, r1, lsl #24
    6aa4:	002a9800 	eoreq	r9, sl, r0, lsl #16
    6aa8:	00009800 	andeq	r9, r0, r0, lsl #16
    6aac:	059c0100 	ldreq	r0, [ip, #256]	; 0x100
    6ab0:	1f000013 	svcne	0x00000013
    6ab4:	00000a49 	andeq	r0, r0, r9, asr #20
    6ab8:	05011b01 	streq	r1, [r1, #-2817]	; 0xfffff4ff
    6abc:	82000013 	andhi	r0, r0, #19
    6ac0:	00000018 	andeq	r0, r0, r8, lsl r0
    6ac4:	0fde0415 	svceq	0x00de0415
    6ac8:	6e1e0000 	cdpvs	0, 1, cr0, cr14, cr0, {0}
    6acc:	0100001e 	tsteq	r0, lr, lsl r0
    6ad0:	004c0162 	subeq	r0, ip, r2, ror #2
    6ad4:	2b300000 	blcs	c06adc <__bss_end+0xc03960>
    6ad8:	00600000 	rsbeq	r0, r0, r0
    6adc:	9c010000 	stcls	0, cr0, [r1], {-0}
    6ae0:	00001336 	andeq	r1, r0, r6, lsr r3
    6ae4:	000a491f 	andeq	r4, sl, pc, lsl r9
    6ae8:	01620100 	cmneq	r2, r0, lsl #2
    6aec:	00001305 	andeq	r1, r0, r5, lsl #6
    6af0:	000018ae 	andeq	r1, r0, lr, lsr #17
    6af4:	13311e00 	teqne	r1, #0, 28
    6af8:	c2010000 	andgt	r0, r1, #0
    6afc:	00005e01 	andeq	r5, r0, r1, lsl #28
    6b00:	002b9000 	eoreq	r9, fp, r0
    6b04:	00007c00 	andeq	r7, r0, r0, lsl #24
    6b08:	ba9c0100 	blt	fe706f10 <__bss_end+0xfe703d94>
    6b0c:	20000013 	andcs	r0, r0, r3, lsl r0
    6b10:	0000074a 	andeq	r0, r0, sl, asr #14
    6b14:	5e01c401 	cdppl	4, 0, cr12, cr1, cr1, {0}
    6b18:	cc000000 	stcgt	0, cr0, [r0], {-0}
    6b1c:	20000018 	andcs	r0, r0, r8, lsl r0
    6b20:	0000073a 	andeq	r0, r0, sl, lsr r7
    6b24:	5e01c501 	cfsh32pl	mvfx12, mvfx1, #1
    6b28:	03000000 	movweq	r0, #0
    6b2c:	20000019 	andcs	r0, r0, r9, lsl r0
    6b30:	00000742 	andeq	r0, r0, r2, asr #14
    6b34:	5e01c601 	cfmadd32pl	mvax0, mvfx12, mvfx1, mvfx1
    6b38:	3f000000 	svccc	0x00000000
    6b3c:	20000019 	andcs	r0, r0, r9, lsl r0
    6b40:	0000075a 	andeq	r0, r0, sl, asr r7
    6b44:	5e01c701 	cdppl	7, 0, cr12, cr1, cr1, {0}
    6b48:	76000000 	strvc	r0, [r0], -r0
    6b4c:	20000019 	andcs	r0, r0, r9, lsl r0
    6b50:	00001efe 	strdeq	r1, [r0], -lr
    6b54:	5e01c801 	cdppl	8, 0, cr12, cr1, cr1, {0}
    6b58:	ad000000 	stcge	0, cr0, [r0, #-0]
    6b5c:	20000019 	andcs	r0, r0, r9, lsl r0
    6b60:	0000133d 	andeq	r1, r0, sp, lsr r3
    6b64:	5e01c901 	cdppl	9, 0, cr12, cr1, cr1, {0}
    6b68:	ff000000 			; <UNDEFINED> instruction: 0xff000000
    6b6c:	21000019 	tstcs	r0, r9, lsl r0
    6b70:	00002c04 	andeq	r2, r0, r4, lsl #24
    6b74:	000013f8 	strdeq	r1, [r0], -r8
    6b78:	0e292200 	cdpeq	2, 2, cr2, cr9, cr0, {0}
    6b7c:	0f010000 	svceq	0x00010000
    6b80:	00000fb3 			; <UNDEFINED> instruction: 0x00000fb3
    6b84:	2f840305 	svccs	0x00840305
    6b88:	ab220000 	blge	886b90 <__bss_end+0x883a14>
    6b8c:	0100001e 	tsteq	r0, lr, lsl r0
    6b90:	00016940 	andeq	r6, r1, r0, asr #18
    6b94:	8c030500 	cfstr32hi	mvfx0, [r3], {-0}
    6b98:	2200002f 	andcs	r0, r0, #47	; 0x2f
    6b9c:	00001f21 	andeq	r1, r0, r1, lsr #30
    6ba0:	06884101 	streq	r4, [r8], r1, lsl #2
    6ba4:	03050000 	movweq	r0, #20480	; 0x5000
    6ba8:	00002f88 	andeq	r2, r0, r8, lsl #31
    6bac:	000f6023 	andeq	r6, pc, r3, lsr #32
    6bb0:	000f6000 	andeq	r6, pc, r0
    6bb4:	231b0500 	tstcs	fp, #0, 10
    6bb8:	00001346 	andeq	r1, r0, r6, asr #6
    6bbc:	00001346 	andeq	r1, r0, r6, asr #6
    6bc0:	Address 0x0000000000006bc0 is out of bounds.


Disassembly of section .debug_abbrev:

00000000 <.debug_abbrev>:
       0:	25011101 	strcs	r1, [r1, #-257]	; 0xfffffeff
       4:	030b130e 	movweq	r1, #45838	; 0xb30e
       8:	100e1b0e 	andne	r1, lr, lr, lsl #22
       c:	02000017 	andeq	r0, r0, #23
      10:	0b0b0024 	bleq	2c00a8 <__bss_end+0x2bcf2c>
      14:	0e030b3e 	vmoveq.16	d3[0], r0
      18:	24030000 	strcs	r0, [r3], #-0
      1c:	3e0b0b00 	vmlacc.f64	d0, d11, d0
      20:	0008030b 	andeq	r0, r8, fp, lsl #6
      24:	01040400 	tsteq	r4, r0, lsl #8
      28:	0b0b0e03 	bleq	2c383c <__bss_end+0x2c06c0>
      2c:	0b3a1349 	bleq	e84d58 <__bss_end+0xe81bdc>
      30:	13010b3b 	movwne	r0, #6971	; 0x1b3b
      34:	28050000 	stmdacs	r5, {}	; <UNPREDICTABLE>
      38:	1c0e0300 	stcne	3, cr0, [lr], {-0}
      3c:	0600000b 	streq	r0, [r0], -fp
      40:	0e030113 	mcreq	1, 0, r0, cr3, cr3, {0}
      44:	0b3a0b0b 	bleq	e82c78 <__bss_end+0xe7fafc>
      48:	13010b3b 	movwne	r0, #6971	; 0x1b3b
      4c:	0d070000 	stceq	0, cr0, [r7, #-0]
      50:	3a0e0300 	bcc	380c58 <__bss_end+0x37dadc>
      54:	490b3b0b 	stmdbmi	fp, {r0, r1, r3, r8, r9, fp, ip, sp}
      58:	000b3813 	andeq	r3, fp, r3, lsl r8
      5c:	01010800 	tsteq	r1, r0, lsl #16
      60:	13011349 	movwne	r1, #4937	; 0x1349
      64:	21090000 	mrscs	r0, (UNDEF: 9)
      68:	2f134900 	svccs	0x00134900
      6c:	0a00000b 	beq	a0 <config_61+0x4>
      70:	0e030016 	mcreq	0, 0, r0, cr3, cr6, {0}
      74:	0b3b0b3a 	bleq	ec2d64 <__bss_end+0xebfbe8>
      78:	00001349 	andeq	r1, r0, r9, asr #6
      7c:	0300340b 	movweq	r3, #1035	; 0x40b
      80:	3b0b3a0e 	blcc	2ce8c0 <__bss_end+0x2cb744>
      84:	3f13490b 	svccc	0x0013490b
      88:	00180219 	andseq	r0, r8, r9, lsl r2
      8c:	00260c00 	eoreq	r0, r6, r0, lsl #24
      90:	00001349 	andeq	r1, r0, r9, asr #6
      94:	00110100 	andseq	r0, r1, r0, lsl #2
      98:	01110610 	tsteq	r1, r0, lsl r6
      9c:	08030112 	stmdaeq	r3, {r1, r4, r8}
      a0:	0825081b 	stmdaeq	r5!, {r0, r1, r3, r4, fp}
      a4:	00000513 	andeq	r0, r0, r3, lsl r5
      a8:	01110100 	tsteq	r1, r0, lsl #2
      ac:	0b130e25 	bleq	4c3948 <__bss_end+0x4c07cc>
      b0:	0e1b0e03 	cdpeq	14, 1, cr0, cr11, cr3, {0}
      b4:	06120111 			; <UNDEFINED> instruction: 0x06120111
      b8:	00001710 	andeq	r1, r0, r0, lsl r7
      bc:	0b002402 	bleq	90cc <__bss_end+0x5f50>
      c0:	030b3e0b 	movweq	r3, #48651	; 0xbe0b
      c4:	0300000e 	movweq	r0, #14
      c8:	0b0b0024 	bleq	2c0160 <__bss_end+0x2bcfe4>
      cc:	08030b3e 	stmdaeq	r3, {r1, r2, r3, r4, r5, r8, r9, fp}
      d0:	0f040000 	svceq	0x00040000
      d4:	490b0b00 	stmdbmi	fp, {r8, r9, fp}
      d8:	05000013 	streq	r0, [r0, #-19]	; 0xffffffed
      dc:	0b0b000f 	bleq	2c0120 <__bss_end+0x2bcfa4>
      e0:	2e060000 	cdpcs	0, 0, cr0, cr6, cr0, {0}
      e4:	03193f01 	tsteq	r9, #1, 30
      e8:	3b0b3a0e 	blcc	2ce928 <__bss_end+0x2cb7ac>
      ec:	1119270b 	tstne	r9, fp, lsl #14
      f0:	40061201 	andmi	r1, r6, r1, lsl #4
      f4:	19429718 	stmdbne	r2, {r3, r4, r8, r9, sl, ip, pc}^
      f8:	05070000 	streq	r0, [r7, #-0]
      fc:	3a0e0300 	bcc	380d04 <__bss_end+0x37db88>
     100:	490b3b0b 	stmdbmi	fp, {r0, r1, r3, r8, r9, fp, ip, sp}
     104:	00170213 	andseq	r0, r7, r3, lsl r2
     108:	00050800 	andeq	r0, r5, r0, lsl #16
     10c:	0b3a0803 	bleq	e82120 <__bss_end+0xe7efa4>
     110:	13490b3b 	movtne	r0, #39739	; 0x9b3b
     114:	00001702 	andeq	r1, r0, r2, lsl #14
     118:	03003409 	movweq	r3, #1033	; 0x409
     11c:	3b0b3a0e 	blcc	2ce95c <__bss_end+0x2cb7e0>
     120:	0213490b 	andseq	r4, r3, #180224	; 0x2c000
     124:	00000017 	andeq	r0, r0, r7, lsl r0
     128:	25011101 	strcs	r1, [r1, #-257]	; 0xfffffeff
     12c:	030b130e 	movweq	r1, #45838	; 0xb30e
     130:	100e1b0e 	andne	r1, lr, lr, lsl #22
     134:	02000017 	andeq	r0, r0, #23
     138:	0b0b0024 	bleq	2c01d0 <__bss_end+0x2bd054>
     13c:	0e030b3e 	vmoveq.16	d3[0], r0
     140:	24030000 	strcs	r0, [r3], #-0
     144:	3e0b0b00 	vmlacc.f64	d0, d11, d0
     148:	0008030b 	andeq	r0, r8, fp, lsl #6
     14c:	11010000 	mrsne	r0, (UNDEF: 1)
     150:	11061000 	mrsne	r1, (UNDEF: 6)
     154:	03011201 	movweq	r1, #4609	; 0x1201
     158:	25081b08 	strcs	r1, [r8, #-2824]	; 0xfffff4f8
     15c:	00051308 	andeq	r1, r5, r8, lsl #6
     160:	11010000 	mrsne	r0, (UNDEF: 1)
     164:	130e2501 	movwne	r2, #58625	; 0xe501
     168:	1b0e030b 	blne	380d9c <__bss_end+0x37dc20>
     16c:	0017100e 	andseq	r1, r7, lr
     170:	00240200 	eoreq	r0, r4, r0, lsl #4
     174:	0b3e0b0b 	bleq	f82da8 <__bss_end+0xf7fc2c>
     178:	00000e03 	andeq	r0, r0, r3, lsl #28
     17c:	0b002403 	bleq	9190 <__bss_end+0x6014>
     180:	030b3e0b 	movweq	r3, #48651	; 0xbe0b
     184:	00000008 	andeq	r0, r0, r8
     188:	25011101 	strcs	r1, [r1, #-257]	; 0xfffffeff
     18c:	030b130e 	movweq	r1, #45838	; 0xb30e
     190:	100e1b0e 	andne	r1, lr, lr, lsl #22
     194:	02000017 	andeq	r0, r0, #23
     198:	0b0b0024 	bleq	2c0230 <__bss_end+0x2bd0b4>
     19c:	0e030b3e 	vmoveq.16	d3[0], r0
     1a0:	24030000 	strcs	r0, [r3], #-0
     1a4:	3e0b0b00 	vmlacc.f64	d0, d11, d0
     1a8:	0008030b 	andeq	r0, r8, fp, lsl #6
     1ac:	11010000 	mrsne	r0, (UNDEF: 1)
     1b0:	130e2501 	movwne	r2, #58625	; 0xe501
     1b4:	1b0e030b 	blne	380de8 <__bss_end+0x37dc6c>
     1b8:	0017100e 	andseq	r1, r7, lr
     1bc:	00240200 	eoreq	r0, r4, r0, lsl #4
     1c0:	0b3e0b0b 	bleq	f82df4 <__bss_end+0xf7fc78>
     1c4:	00000e03 	andeq	r0, r0, r3, lsl #28
     1c8:	0b002403 	bleq	91dc <__bss_end+0x6060>
     1cc:	030b3e0b 	movweq	r3, #48651	; 0xbe0b
     1d0:	00000008 	andeq	r0, r0, r8
     1d4:	25011101 	strcs	r1, [r1, #-257]	; 0xfffffeff
     1d8:	030b130e 	movweq	r1, #45838	; 0xb30e
     1dc:	110e1b0e 	tstne	lr, lr, lsl #22
     1e0:	10061201 	andne	r1, r6, r1, lsl #4
     1e4:	02000017 	andeq	r0, r0, #23
     1e8:	0b0b0024 	bleq	2c0280 <__bss_end+0x2bd104>
     1ec:	0e030b3e 	vmoveq.16	d3[0], r0
     1f0:	16030000 	strne	r0, [r3], -r0
     1f4:	3a0e0300 	bcc	380dfc <__bss_end+0x37dc80>
     1f8:	490b3b0b 	stmdbmi	fp, {r0, r1, r3, r8, r9, fp, ip, sp}
     1fc:	04000013 	streq	r0, [r0], #-19	; 0xffffffed
     200:	0b0b0024 	bleq	2c0298 <__bss_end+0x2bd11c>
     204:	08030b3e 	stmdaeq	r3, {r1, r2, r3, r4, r5, r8, r9, fp}
     208:	13050000 	movwne	r0, #20480	; 0x5000
     20c:	3a0b0b01 	bcc	2c2e18 <__bss_end+0x2bfc9c>
     210:	010b3b0b 	tsteq	fp, fp, lsl #22
     214:	06000013 			; <UNDEFINED> instruction: 0x06000013
     218:	0e03000d 	cdpeq	0, 0, cr0, cr3, cr13, {0}
     21c:	0b3b0b3a 	bleq	ec2f0c <__bss_end+0xebfd90>
     220:	0b0b1349 	bleq	2c4f4c <__bss_end+0x2c1dd0>
     224:	0b0c0b0d 	bleq	302e60 <__bss_end+0x2ffce4>
     228:	00000b38 	andeq	r0, r0, r8, lsr fp
     22c:	0b011707 	bleq	45e50 <__bss_end+0x42cd4>
     230:	3b0b3a0b 	blcc	2cea64 <__bss_end+0x2cb8e8>
     234:	0013010b 	andseq	r0, r3, fp, lsl #2
     238:	000d0800 	andeq	r0, sp, r0, lsl #16
     23c:	0b3a0e03 	bleq	e83a50 <__bss_end+0xe808d4>
     240:	13490b3b 	movtne	r0, #39739	; 0x9b3b
     244:	13090000 	movwne	r0, #36864	; 0x9000
     248:	0b0e0301 	bleq	380e54 <__bss_end+0x37dcd8>
     24c:	3b0b3a0b 	blcc	2cea80 <__bss_end+0x2cb904>
     250:	0013010b 	andseq	r0, r3, fp, lsl #2
     254:	01130a00 	tsteq	r3, r0, lsl #20
     258:	050b0e03 	streq	r0, [fp, #-3587]	; 0xfffff1fd
     25c:	0b3b0b3a 	bleq	ec2f4c <__bss_end+0xebfdd0>
     260:	00001301 	andeq	r1, r0, r1, lsl #6
     264:	03000d0b 	movweq	r0, #3339	; 0xd0b
     268:	3b0b3a0e 	blcc	2ceaa8 <__bss_end+0x2cb92c>
     26c:	3813490b 	ldmdacc	r3, {r0, r1, r3, r8, fp, lr}
     270:	0c00000b 	stceq	0, cr0, [r0], {11}
     274:	0803000d 	stmdaeq	r3, {r0, r2, r3}
     278:	0b3b0b3a 	bleq	ec2f68 <__bss_end+0xebfdec>
     27c:	0b381349 	bleq	e04fa8 <__bss_end+0xe01e2c>
     280:	0d0d0000 	stceq	0, cr0, [sp, #-0]
     284:	3a0e0300 	bcc	380e8c <__bss_end+0x37dd10>
     288:	49053b0b 	stmdbmi	r5, {r0, r1, r3, r8, r9, fp, ip, sp}
     28c:	000b3813 	andeq	r3, fp, r3, lsl r8
     290:	000d0e00 	andeq	r0, sp, r0, lsl #28
     294:	0b3a0803 	bleq	e822a8 <__bss_end+0xe7f12c>
     298:	1349053b 	movtne	r0, #38203	; 0x953b
     29c:	00000b38 	andeq	r0, r0, r8, lsr fp
     2a0:	03000d0f 	movweq	r0, #3343	; 0xd0f
     2a4:	3b0b3a0e 	blcc	2ceae4 <__bss_end+0x2cb968>
     2a8:	38134905 	ldmdacc	r3, {r0, r2, r8, fp, lr}
     2ac:	10000005 	andne	r0, r0, r5
     2b0:	0803000d 	stmdaeq	r3, {r0, r2, r3}
     2b4:	053b0b3a 	ldreq	r0, [fp, #-2874]!	; 0xfffff4c6
     2b8:	05381349 	ldreq	r1, [r8, #-841]!	; 0xfffffcb7
     2bc:	35110000 	ldrcc	r0, [r1, #-0]
     2c0:	00134900 	andseq	r4, r3, r0, lsl #18
     2c4:	01011200 	mrseq	r1, R9_usr
     2c8:	13011349 	movwne	r1, #4937	; 0x1349
     2cc:	21130000 	tstcs	r3, r0
     2d0:	2f134900 	svccs	0x00134900
     2d4:	1400000b 	strne	r0, [r0], #-11
     2d8:	0e030016 	mcreq	0, 0, r0, cr3, cr6, {0}
     2dc:	053b0b3a 	ldreq	r0, [fp, #-2874]!	; 0xfffff4c6
     2e0:	00001349 	andeq	r1, r0, r9, asr #6
     2e4:	0b000f15 	bleq	3f40 <__bss_end+0xdc4>
     2e8:	0013490b 	andseq	r4, r3, fp, lsl #18
     2ec:	01041600 	tsteq	r4, r0, lsl #12
     2f0:	0b0b0e03 	bleq	2c3b04 <__bss_end+0x2c0988>
     2f4:	0b3a1349 	bleq	e85020 <__bss_end+0xe81ea4>
     2f8:	13010b3b 	movwne	r0, #6971	; 0x1b3b
     2fc:	28170000 	ldmdacs	r7, {}	; <UNPREDICTABLE>
     300:	1c0e0300 	stcne	3, cr0, [lr], {-0}
     304:	1800000b 	stmdane	r0, {r0, r1, r3}
     308:	0b0b0104 	bleq	2c0720 <__bss_end+0x2bd5a4>
     30c:	0b3a1349 	bleq	e85038 <__bss_end+0xe81ebc>
     310:	13010b3b 	movwne	r0, #6971	; 0x1b3b
     314:	28190000 	ldmdacs	r9, {}	; <UNPREDICTABLE>
     318:	1c0e0300 	stcne	3, cr0, [lr], {-0}
     31c:	1a000005 	bne	338 <set_pll+0xb8>
     320:	0b0b000f 	bleq	2c0364 <__bss_end+0x2bd1e8>
     324:	151b0000 	ldrne	r0, [fp, #-0]
     328:	49192700 	ldmdbmi	r9, {r8, r9, sl, sp}
     32c:	1c000013 	stcne	0, cr0, [r0], {19}
     330:	193f012e 	ldmdbne	pc!, {r1, r2, r3, r5, r8}	; <UNPREDICTABLE>
     334:	0b3a0e03 	bleq	e83b48 <__bss_end+0xe809cc>
     338:	19270b3b 	stmdbne	r7!, {r0, r1, r3, r4, r5, r8, r9, fp}
     33c:	01111349 	tsteq	r1, r9, asr #6
     340:	18400612 	stmdane	r0, {r1, r4, r9, sl}^
     344:	01194297 			; <UNDEFINED> instruction: 0x01194297
     348:	1d000013 	stcne	0, cr0, [r0, #-76]	; 0xffffffb4
     34c:	01018289 	smlabbeq	r1, r9, r2, r8
     350:	13310111 	teqne	r1, #1073741828	; 0x40000004
     354:	00001301 	andeq	r1, r0, r1, lsl #6
     358:	01828a1e 	orreq	r8, r2, lr, lsl sl
     35c:	91180200 	tstls	r8, r0, lsl #4
     360:	00001842 	andeq	r1, r0, r2, asr #16
     364:	0182891f 	orreq	r8, r2, pc, lsl r9
     368:	31011100 	mrscc	r1, (UNDEF: 17)
     36c:	20000013 	andcs	r0, r0, r3, lsl r0
     370:	01018289 	smlabbeq	r1, r9, r2, r8
     374:	13310111 	teqne	r1, #1073741828	; 0x40000004
     378:	2e210000 	cdpcs	0, 2, cr0, cr1, cr0, {0}
     37c:	03193f01 	tsteq	r9, #1, 30
     380:	3b0b3a0e 	blcc	2cebc0 <__bss_end+0x2cba44>
     384:	1119270b 	tstne	r9, fp, lsl #14
     388:	40061201 	andmi	r1, r6, r1, lsl #4
     38c:	19429718 	stmdbne	r2, {r3, r4, r8, r9, sl, ip, pc}^
     390:	00001301 	andeq	r1, r0, r1, lsl #6
     394:	03003422 	movweq	r3, #1058	; 0x422
     398:	3b0b3a0e 	blcc	2cebd8 <__bss_end+0x2cba5c>
     39c:	0213490b 	andseq	r4, r3, #180224	; 0x2c000
     3a0:	23000017 	movwcs	r0, #23
     3a4:	0e030034 	mcreq	0, 0, r0, cr3, cr4, {1}
     3a8:	0b3b0b3a 	bleq	ec3098 <__bss_end+0xebff1c>
     3ac:	0b1c1349 	bleq	7050d8 <__bss_end+0x701f5c>
     3b0:	89240000 	stmdbhi	r4!, {}	; <UNPREDICTABLE>
     3b4:	11010182 	smlabbne	r1, r2, r1, r0
     3b8:	19429501 	stmdbne	r2, {r0, r8, sl, ip, pc}^
     3bc:	13011331 	movwne	r1, #4913	; 0x1331
     3c0:	34250000 	strtcc	r0, [r5], #-0
     3c4:	3a0e0300 	bcc	380fcc <__bss_end+0x37de50>
     3c8:	490b3b0b 	stmdbmi	fp, {r0, r1, r3, r8, r9, fp, ip, sp}
     3cc:	26000013 			; <UNDEFINED> instruction: 0x26000013
     3d0:	0e030034 	mcreq	0, 0, r0, cr3, cr4, {1}
     3d4:	0b3b0b3a 	bleq	ec30c4 <__bss_end+0xebff48>
     3d8:	18021349 	stmdane	r2, {r0, r3, r6, r8, r9, ip}
     3dc:	34270000 	strtcc	r0, [r7], #-0
     3e0:	3a0e0300 	bcc	380fe8 <__bss_end+0x37de6c>
     3e4:	490b3b0b 	stmdbmi	fp, {r0, r1, r3, r8, r9, fp, ip, sp}
     3e8:	02193f13 	andseq	r3, r9, #19, 30	; 0x4c
     3ec:	28000018 	stmdacs	r0, {r3, r4}
     3f0:	0e030034 	mcreq	0, 0, r0, cr3, cr4, {1}
     3f4:	0b3b0b3a 	bleq	ec30e4 <__bss_end+0xebff68>
     3f8:	193f1349 	ldmdbne	pc!, {r0, r3, r6, r8, r9, ip}	; <UNPREDICTABLE>
     3fc:	0000193c 	andeq	r1, r0, ip, lsr r9
     400:	3f002e29 	svccc	0x00002e29
     404:	6e193c19 	mrcvs	12, 0, r3, cr9, cr9, {0}
     408:	3a0e030e 	bcc	381048 <__bss_end+0x37decc>
     40c:	000b3b0b 	andeq	r3, fp, fp, lsl #22
     410:	11010000 	mrsne	r0, (UNDEF: 1)
     414:	130e2501 	movwne	r2, #58625	; 0xe501
     418:	1b0e030b 	blne	38104c <__bss_end+0x37ded0>
     41c:	1201110e 	andne	r1, r1, #-2147483645	; 0x80000003
     420:	00171006 	andseq	r1, r7, r6
     424:	00240200 	eoreq	r0, r4, r0, lsl #4
     428:	0b3e0b0b 	bleq	f8305c <__bss_end+0xf7fee0>
     42c:	00000e03 	andeq	r0, r0, r3, lsl #28
     430:	0b002403 	bleq	9444 <__bss_end+0x62c8>
     434:	030b3e0b 	movweq	r3, #48651	; 0xbe0b
     438:	04000008 	streq	r0, [r0], #-8
     43c:	0e030016 	mcreq	0, 0, r0, cr3, cr6, {0}
     440:	0b3b0b3a 	bleq	ec3130 <__bss_end+0xebffb4>
     444:	00001349 	andeq	r1, r0, r9, asr #6
     448:	49003505 	stmdbmi	r0, {r0, r2, r8, sl, ip, sp}
     44c:	06000013 			; <UNDEFINED> instruction: 0x06000013
     450:	0e030104 	adfeqs	f0, f3, f4
     454:	13490b0b 	movtne	r0, #39691	; 0x9b0b
     458:	0b3b0b3a 	bleq	ec3148 <__bss_end+0xebffcc>
     45c:	00001301 	andeq	r1, r0, r1, lsl #6
     460:	03002807 	movweq	r2, #2055	; 0x807
     464:	000b1c0e 	andeq	r1, fp, lr, lsl #24
     468:	012e0800 			; <UNDEFINED> instruction: 0x012e0800
     46c:	0e03193f 	mcreq	9, 0, r1, cr3, cr15, {1}
     470:	0b3b0b3a 	bleq	ec3160 <__bss_end+0xebffe4>
     474:	01111927 	tsteq	r1, r7, lsr #18
     478:	18400612 	stmdane	r0, {r1, r4, r9, sl}^
     47c:	01194297 			; <UNDEFINED> instruction: 0x01194297
     480:	09000013 	stmdbeq	r0, {r0, r1, r4}
     484:	0e030034 	mcreq	0, 0, r0, cr3, cr4, {1}
     488:	0b3b0b3a 	bleq	ec3178 <__bss_end+0xebfffc>
     48c:	18021349 	stmdane	r2, {r0, r3, r6, r8, r9, ip}
     490:	340a0000 	strcc	r0, [sl], #-0
     494:	3a080300 	bcc	20109c <__bss_end+0x1fdf20>
     498:	490b3b0b 	stmdbmi	fp, {r0, r1, r3, r8, r9, fp, ip, sp}
     49c:	00170213 	andseq	r0, r7, r3, lsl r2
     4a0:	002e0b00 	eoreq	r0, lr, r0, lsl #22
     4a4:	0e03193f 	mcreq	9, 0, r1, cr3, cr15, {1}
     4a8:	0b3b0b3a 	bleq	ec3198 <__bss_end+0xec001c>
     4ac:	0b201927 	bleq	806950 <__bss_end+0x8037d4>
     4b0:	2e0c0000 	cdpcs	0, 0, cr0, cr12, cr0, {0}
     4b4:	11133100 	tstne	r3, r0, lsl #2
     4b8:	40061201 	andmi	r1, r6, r1, lsl #4
     4bc:	19429718 	stmdbne	r2, {r3, r4, r8, r9, sl, ip, pc}^
     4c0:	050d0000 	streq	r0, [sp, #-0]
     4c4:	3a080300 	bcc	2010cc <__bss_end+0x1fdf50>
     4c8:	490b3b0b 	stmdbmi	fp, {r0, r1, r3, r8, r9, fp, ip, sp}
     4cc:	00180213 	andseq	r0, r8, r3, lsl r2
     4d0:	002e0e00 	eoreq	r0, lr, r0, lsl #28
     4d4:	0e03193f 	mcreq	9, 0, r1, cr3, cr15, {1}
     4d8:	0b3b0b3a 	bleq	ec31c8 <__bss_end+0xec004c>
     4dc:	13491927 	movtne	r1, #39207	; 0x9927
     4e0:	06120111 			; <UNDEFINED> instruction: 0x06120111
     4e4:	42971840 	addsmi	r1, r7, #64, 16	; 0x400000
     4e8:	0f000019 	svceq	0x00000019
     4ec:	01018289 	smlabbeq	r1, r9, r2, r8
     4f0:	13310111 	teqne	r1, #1073741828	; 0x40000004
     4f4:	8a100000 	bhi	4004fc <__bss_end+0x3fd380>
     4f8:	02000182 	andeq	r0, r0, #-2147483616	; 0x80000020
     4fc:	18429118 	stmdane	r2, {r3, r4, r8, ip, pc}^
     500:	2e110000 	cdpcs	0, 1, cr0, cr1, cr0, {0}
     504:	03193f00 	tsteq	r9, #0, 30
     508:	3b0b3a0e 	blcc	2ced48 <__bss_end+0x2cbbcc>
     50c:	11192705 	tstne	r9, r5, lsl #14
     510:	40061201 	andmi	r1, r6, r1, lsl #4
     514:	19429718 	stmdbne	r2, {r3, r4, r8, r9, sl, ip, pc}^
     518:	2e120000 	cdpcs	0, 1, cr0, cr2, cr0, {0}
     51c:	03193f01 	tsteq	r9, #1, 30
     520:	3b0b3a0e 	blcc	2ced60 <__bss_end+0x2cbbe4>
     524:	11192705 	tstne	r9, r5, lsl #14
     528:	40061201 	andmi	r1, r6, r1, lsl #4
     52c:	19429718 	stmdbne	r2, {r3, r4, r8, r9, sl, ip, pc}^
     530:	00001301 	andeq	r1, r0, r1, lsl #6
     534:	03003413 	movweq	r3, #1043	; 0x413
     538:	3b0b3a0e 	blcc	2ced78 <__bss_end+0x2cbbfc>
     53c:	02134905 	andseq	r4, r3, #81920	; 0x14000
     540:	14000018 	strne	r0, [r0], #-24	; 0xffffffe8
     544:	08030005 	stmdaeq	r3, {r0, r2}
     548:	053b0b3a 	ldreq	r0, [fp, #-2874]!	; 0xfffff4c6
     54c:	17021349 	strne	r1, [r2, -r9, asr #6]
     550:	34150000 	ldrcc	r0, [r5], #-0
     554:	3a0e0300 	bcc	38115c <__bss_end+0x37dfe0>
     558:	490b3b0b 	stmdbmi	fp, {r0, r1, r3, r8, r9, fp, ip, sp}
     55c:	02193f13 	andseq	r3, r9, #19, 30	; 0x4c
     560:	16000018 			; <UNDEFINED> instruction: 0x16000018
     564:	193f002e 	ldmdbne	pc!, {r1, r2, r3, r5}	; <UNPREDICTABLE>
     568:	0e6e193c 	mcreq	9, 3, r1, cr14, cr12, {1}
     56c:	0b3a0e03 	bleq	e83d80 <__bss_end+0xe80c04>
     570:	00000b3b 	andeq	r0, r0, fp, lsr fp
     574:	01110100 	tsteq	r1, r0, lsl #2
     578:	0b130e25 	bleq	4c3e14 <__bss_end+0x4c0c98>
     57c:	0e1b0e03 	cdpeq	14, 1, cr0, cr11, cr3, {0}
     580:	06120111 			; <UNDEFINED> instruction: 0x06120111
     584:	00001710 	andeq	r1, r0, r0, lsl r7
     588:	0b002402 	bleq	9598 <__bss_end+0x641c>
     58c:	030b3e0b 	movweq	r3, #48651	; 0xbe0b
     590:	0300000e 	movweq	r0, #14
     594:	0e030016 	mcreq	0, 0, r0, cr3, cr6, {0}
     598:	0b3b0b3a 	bleq	ec3288 <__bss_end+0xec010c>
     59c:	00001349 	andeq	r1, r0, r9, asr #6
     5a0:	0b002404 	bleq	95b8 <__bss_end+0x643c>
     5a4:	030b3e0b 	movweq	r3, #48651	; 0xbe0b
     5a8:	05000008 	streq	r0, [r0, #-8]
     5ac:	0e030104 	adfeqs	f0, f3, f4
     5b0:	13490b0b 	movtne	r0, #39691	; 0x9b0b
     5b4:	0b3b0b3a 	bleq	ec32a4 <__bss_end+0xec0128>
     5b8:	00001301 	andeq	r1, r0, r1, lsl #6
     5bc:	03002806 	movweq	r2, #2054	; 0x806
     5c0:	000b1c0e 	andeq	r1, fp, lr, lsl #24
     5c4:	012e0700 			; <UNDEFINED> instruction: 0x012e0700
     5c8:	0e03193f 	mcreq	9, 0, r1, cr3, cr15, {1}
     5cc:	0b3b0b3a 	bleq	ec32bc <__bss_end+0xec0140>
     5d0:	13491927 	movtne	r1, #39207	; 0x9927
     5d4:	13010b20 	movwne	r0, #6944	; 0x1b20
     5d8:	34080000 	strcc	r0, [r8], #-0
     5dc:	3a0e0300 	bcc	3811e4 <__bss_end+0x37e068>
     5e0:	490b3b0b 	stmdbmi	fp, {r0, r1, r3, r8, r9, fp, ip, sp}
     5e4:	09000013 	stmdbeq	r0, {r0, r1, r4}
     5e8:	193f012e 	ldmdbne	pc!, {r1, r2, r3, r5, r8}	; <UNPREDICTABLE>
     5ec:	0b3a0e03 	bleq	e83e00 <__bss_end+0xe80c84>
     5f0:	19270b3b 	stmdbne	r7!, {r0, r1, r3, r4, r5, r8, r9, fp}
     5f4:	13010b20 	movwne	r0, #6944	; 0x1b20
     5f8:	050a0000 	streq	r0, [sl, #-0]
     5fc:	3a0e0300 	bcc	381204 <__bss_end+0x37e088>
     600:	490b3b0b 	stmdbmi	fp, {r0, r1, r3, r8, r9, fp, ip, sp}
     604:	0b000013 	bleq	658 <delay_us+0x40>
     608:	0e03012e 	adfeqsp	f0, f3, #0.5
     60c:	0b3b0b3a 	bleq	ec32fc <__bss_end+0xec0180>
     610:	13491927 	movtne	r1, #39207	; 0x9927
     614:	13010b20 	movwne	r0, #6944	; 0x1b20
     618:	2e0c0000 	cdpcs	0, 0, cr0, cr12, cr0, {0}
     61c:	11133101 	tstne	r3, r1, lsl #2
     620:	40061201 	andmi	r1, r6, r1, lsl #4
     624:	19429718 	stmdbne	r2, {r3, r4, r8, r9, sl, ip, pc}^
     628:	00001301 	andeq	r1, r0, r1, lsl #6
     62c:	3100050d 	tstcc	r0, sp, lsl #10
     630:	00180213 	andseq	r0, r8, r3, lsl r2
     634:	00340e00 	eorseq	r0, r4, r0, lsl #28
     638:	17021331 	smladxne	r2, r1, r3, r1
     63c:	2e0f0000 	cdpcs	0, 0, cr0, cr15, cr0, {0}
     640:	03193f00 	tsteq	r9, #0, 30
     644:	3b0b3a0e 	blcc	2cee84 <__bss_end+0x2cbd08>
     648:	1119270b 	tstne	r9, fp, lsl #14
     64c:	40061201 	andmi	r1, r6, r1, lsl #4
     650:	19429718 	stmdbne	r2, {r3, r4, r8, r9, sl, ip, pc}^
     654:	34100000 	ldrcc	r0, [r0], #-0
     658:	02133100 	andseq	r3, r3, #0, 2
     65c:	11000018 	tstne	r0, r8, lsl r0
     660:	193f012e 	ldmdbne	pc!, {r1, r2, r3, r5, r8}	; <UNPREDICTABLE>
     664:	0b3a0e03 	bleq	e83e78 <__bss_end+0xe80cfc>
     668:	19270b3b 	stmdbne	r7!, {r0, r1, r3, r4, r5, r8, r9, fp}
     66c:	06120111 			; <UNDEFINED> instruction: 0x06120111
     670:	42971840 	addsmi	r1, r7, #64, 16	; 0x400000
     674:	00130119 	andseq	r0, r3, r9, lsl r1
     678:	00341200 	eorseq	r1, r4, r0, lsl #4
     67c:	0b3a0e03 	bleq	e83e90 <__bss_end+0xe80d14>
     680:	13490b3b 	movtne	r0, #39739	; 0x9b3b
     684:	00001702 	andeq	r1, r0, r2, lsl #14
     688:	03003413 	movweq	r3, #1043	; 0x413
     68c:	3b0b3a08 	blcc	2ceeb4 <__bss_end+0x2cbd38>
     690:	0213490b 	andseq	r4, r3, #180224	; 0x2c000
     694:	14000017 	strne	r0, [r0], #-23	; 0xffffffe9
     698:	1331011d 	teqne	r1, #1073741831	; 0x40000007
     69c:	06120111 			; <UNDEFINED> instruction: 0x06120111
     6a0:	0b590b58 	bleq	1643408 <__bss_end+0x164028c>
     6a4:	00001301 	andeq	r1, r0, r1, lsl #6
     6a8:	11010b15 	tstne	r1, r5, lsl fp
     6ac:	00061201 	andeq	r1, r6, r1, lsl #4
     6b0:	82891600 	addhi	r1, r9, #0, 12
     6b4:	01110001 	tsteq	r1, r1
     6b8:	00001331 	andeq	r1, r0, r1, lsr r3
     6bc:	03000517 	movweq	r0, #1303	; 0x517
     6c0:	3b0b3a08 	blcc	2ceee8 <__bss_end+0x2cbd6c>
     6c4:	0213490b 	andseq	r4, r3, #180224	; 0x2c000
     6c8:	18000017 	stmdane	r0, {r0, r1, r2, r4}
     6cc:	0803000a 	stmdaeq	r3, {r1, r3}
     6d0:	0b3b0b3a 	bleq	ec33c0 <__bss_end+0xec0244>
     6d4:	00000111 	andeq	r0, r0, r1, lsl r1
     6d8:	31003419 	tstcc	r0, r9, lsl r4
     6dc:	1a000013 	bne	730 <set_event_counter+0x24>
     6e0:	13310005 	teqne	r1, #5
     6e4:	00001702 	andeq	r1, r0, r2, lsl #14
     6e8:	0182891b 	orreq	r8, r2, fp, lsl r9
     6ec:	31011101 	tstcc	r1, r1, lsl #2
     6f0:	1c000013 	stcne	0, cr0, [r0], {19}
     6f4:	0001828a 	andeq	r8, r1, sl, lsl #5
     6f8:	42911802 	addsmi	r1, r1, #131072	; 0x20000
     6fc:	1d000018 	stcne	0, cr0, [r0, #-96]	; 0xffffffa0
     700:	01018289 	smlabbeq	r1, r9, r2, r8
     704:	13310111 	teqne	r1, #1073741828	; 0x40000004
     708:	00001301 	andeq	r1, r0, r1, lsl #6
     70c:	0182891e 	orreq	r8, r2, lr, lsl r9
     710:	95011100 	strls	r1, [r1, #-256]	; 0xffffff00
     714:	13311942 	teqne	r1, #1081344	; 0x108000
     718:	051f0000 	ldreq	r0, [pc, #-0]	; 720 <set_event_counter+0x14>
     71c:	3a0e0300 	bcc	381324 <__bss_end+0x37e1a8>
     720:	490b3b0b 	stmdbmi	fp, {r0, r1, r3, r8, r9, fp, ip, sp}
     724:	00180213 	andseq	r0, r8, r3, lsl r2
     728:	012e2000 			; <UNDEFINED> instruction: 0x012e2000
     72c:	0e03193f 	mcreq	9, 0, r1, cr3, cr15, {1}
     730:	053b0b3a 	ldreq	r0, [fp, #-2874]!	; 0xfffff4c6
     734:	13491927 	movtne	r1, #39207	; 0x9927
     738:	06120111 			; <UNDEFINED> instruction: 0x06120111
     73c:	42971840 	addsmi	r1, r7, #64, 16	; 0x400000
     740:	00130119 	andseq	r0, r3, r9, lsl r1
     744:	00052100 	andeq	r2, r5, r0, lsl #2
     748:	0b3a0e03 	bleq	e83f5c <__bss_end+0xe80de0>
     74c:	1349053b 	movtne	r0, #38203	; 0x953b
     750:	00001702 	andeq	r1, r0, r2, lsl #14
     754:	03003422 	movweq	r3, #1058	; 0x422
     758:	3b0b3a0e 	blcc	2cef98 <__bss_end+0x2cbe1c>
     75c:	02134905 	andseq	r4, r3, #81920	; 0x14000
     760:	23000017 	movwcs	r0, #23
     764:	0e030034 	mcreq	0, 0, r0, cr3, cr4, {1}
     768:	0b3b0b3a 	bleq	ec3458 <__bss_end+0xec02dc>
     76c:	18021349 	stmdane	r2, {r0, r3, r6, r8, r9, ip}
     770:	2e240000 	cdpcs	0, 2, cr0, cr4, cr0, {0}
     774:	3c193f00 	ldccc	15, cr3, [r9], {-0}
     778:	030e6e19 	movweq	r6, #60953	; 0xee19
     77c:	3b0b3a0e 	blcc	2cefbc <__bss_end+0x2cbe40>
     780:	0000000b 	andeq	r0, r0, fp
     784:	25011101 	strcs	r1, [r1, #-257]	; 0xfffffeff
     788:	030b130e 	movweq	r1, #45838	; 0xb30e
     78c:	110e1b0e 	tstne	lr, lr, lsl #22
     790:	10061201 	andne	r1, r6, r1, lsl #4
     794:	02000017 	andeq	r0, r0, #23
     798:	0b0b0024 	bleq	2c0830 <__bss_end+0x2bd6b4>
     79c:	0e030b3e 	vmoveq.16	d3[0], r0
     7a0:	24030000 	strcs	r0, [r3], #-0
     7a4:	3e0b0b00 	vmlacc.f64	d0, d11, d0
     7a8:	0008030b 	andeq	r0, r8, fp, lsl #6
     7ac:	00160400 	andseq	r0, r6, r0, lsl #8
     7b0:	0b3a0e03 	bleq	e83fc4 <__bss_end+0xe80e48>
     7b4:	13490b3b 	movtne	r0, #39739	; 0x9b3b
     7b8:	13050000 	movwne	r0, #20480	; 0x5000
     7bc:	0b0e0301 	bleq	3813c8 <__bss_end+0x37e24c>
     7c0:	3b0b3a0b 	blcc	2ceff4 <__bss_end+0x2cbe78>
     7c4:	0013010b 	andseq	r0, r3, fp, lsl #2
     7c8:	000d0600 	andeq	r0, sp, r0, lsl #12
     7cc:	0b3a0e03 	bleq	e83fe0 <__bss_end+0xe80e64>
     7d0:	13490b3b 	movtne	r0, #39739	; 0x9b3b
     7d4:	00000b38 	andeq	r0, r0, r8, lsr fp
     7d8:	03000d07 	movweq	r0, #3335	; 0xd07
     7dc:	3b0b3a08 	blcc	2cf004 <__bss_end+0x2cbe88>
     7e0:	3813490b 	ldmdacc	r3, {r0, r1, r3, r8, fp, lr}
     7e4:	0800000b 	stmdaeq	r0, {r0, r1, r3}
     7e8:	193f012e 	ldmdbne	pc!, {r1, r2, r3, r5, r8}	; <UNPREDICTABLE>
     7ec:	0b3a0e03 	bleq	e84000 <__bss_end+0xe80e84>
     7f0:	19270b3b 	stmdbne	r7!, {r0, r1, r3, r4, r5, r8, r9, fp}
     7f4:	06120111 			; <UNDEFINED> instruction: 0x06120111
     7f8:	42971840 	addsmi	r1, r7, #64, 16	; 0x400000
     7fc:	00130119 	andseq	r0, r3, r9, lsl r1
     800:	00050900 	andeq	r0, r5, r0, lsl #18
     804:	0b3a0e03 	bleq	e84018 <__bss_end+0xe80e9c>
     808:	13490b3b 	movtne	r0, #39739	; 0x9b3b
     80c:	00001802 	andeq	r1, r0, r2, lsl #16
     810:	0b000f0a 	bleq	4440 <__bss_end+0x12c4>
     814:	0013490b 	andseq	r4, r3, fp, lsl #18
     818:	012e0b00 			; <UNDEFINED> instruction: 0x012e0b00
     81c:	0e03193f 	mcreq	9, 0, r1, cr3, cr15, {1}
     820:	0b3b0b3a 	bleq	ec3510 <__bss_end+0xec0394>
     824:	01111927 	tsteq	r1, r7, lsr #18
     828:	18400612 	stmdane	r0, {r1, r4, r9, sl}^
     82c:	00194297 	mulseq	r9, r7, r2
     830:	11010000 	mrsne	r0, (UNDEF: 1)
     834:	11061000 	mrsne	r1, (UNDEF: 6)
     838:	03011201 	movweq	r1, #4609	; 0x1201
     83c:	25081b08 	strcs	r1, [r8, #-2824]	; 0xfffff4f8
     840:	00051308 	andeq	r1, r5, r8, lsl #6
     844:	11010000 	mrsne	r0, (UNDEF: 1)
     848:	130e2501 	movwne	r2, #58625	; 0xe501
     84c:	1b0e030b 	blne	381480 <__bss_end+0x37e304>
     850:	1201110e 	andne	r1, r1, #-2147483645	; 0x80000003
     854:	00171006 	andseq	r1, r7, r6
     858:	00240200 	eoreq	r0, r4, r0, lsl #4
     85c:	0b3e0b0b 	bleq	f83490 <__bss_end+0xf80314>
     860:	00000e03 	andeq	r0, r0, r3, lsl #28
     864:	0b002403 	bleq	9878 <__bss_end+0x66fc>
     868:	030b3e0b 	movweq	r3, #48651	; 0xbe0b
     86c:	04000008 	streq	r0, [r0], #-8
     870:	0e030016 	mcreq	0, 0, r0, cr3, cr6, {0}
     874:	0b3b0b3a 	bleq	ec3564 <__bss_end+0xec03e8>
     878:	00001349 	andeq	r1, r0, r9, asr #6
     87c:	03011305 	movweq	r1, #4869	; 0x1305
     880:	3a0b0b0e 	bcc	2c34c0 <__bss_end+0x2c0344>
     884:	010b3b0b 	tsteq	fp, fp, lsl #22
     888:	06000013 			; <UNDEFINED> instruction: 0x06000013
     88c:	0e03000d 	cdpeq	0, 0, cr0, cr3, cr13, {0}
     890:	0b3b0b3a 	bleq	ec3580 <__bss_end+0xec0404>
     894:	0b381349 	bleq	e055c0 <__bss_end+0xe02444>
     898:	0d070000 	stceq	0, cr0, [r7, #-0]
     89c:	3a080300 	bcc	2014a4 <__bss_end+0x1fe328>
     8a0:	490b3b0b 	stmdbmi	fp, {r0, r1, r3, r8, r9, fp, ip, sp}
     8a4:	000b3813 	andeq	r3, fp, r3, lsl r8
     8a8:	01040800 	tsteq	r4, r0, lsl #16
     8ac:	0b0b0e03 	bleq	2c40c0 <__bss_end+0x2c0f44>
     8b0:	0b3a1349 	bleq	e855dc <__bss_end+0xe82460>
     8b4:	13010b3b 	movwne	r0, #6971	; 0x1b3b
     8b8:	28090000 	stmdacs	r9, {}	; <UNPREDICTABLE>
     8bc:	1c0e0300 	stcne	3, cr0, [lr], {-0}
     8c0:	0a00000b 	beq	8f4 <inv_loop2>
     8c4:	193f012e 	ldmdbne	pc!, {r1, r2, r3, r5, r8}	; <UNPREDICTABLE>
     8c8:	0b3a0e03 	bleq	e840dc <__bss_end+0xe80f60>
     8cc:	19270b3b 	stmdbne	r7!, {r0, r1, r3, r4, r5, r8, r9, fp}
     8d0:	06120111 			; <UNDEFINED> instruction: 0x06120111
     8d4:	42971840 	addsmi	r1, r7, #64, 16	; 0x400000
     8d8:	00130119 	andseq	r0, r3, r9, lsl r1
     8dc:	00050b00 	andeq	r0, r5, r0, lsl #22
     8e0:	0b3a0e03 	bleq	e840f4 <__bss_end+0xe80f78>
     8e4:	13490b3b 	movtne	r0, #39739	; 0x9b3b
     8e8:	00001802 	andeq	r1, r0, r2, lsl #16
     8ec:	0b000f0c 	bleq	4524 <__bss_end+0x13a8>
     8f0:	0013490b 	andseq	r4, r3, fp, lsl #18
     8f4:	012e0d00 			; <UNDEFINED> instruction: 0x012e0d00
     8f8:	0e03193f 	mcreq	9, 0, r1, cr3, cr15, {1}
     8fc:	053b0b3a 	ldreq	r0, [fp, #-2874]!	; 0xfffff4c6
     900:	01111927 	tsteq	r1, r7, lsr #18
     904:	18400612 	stmdane	r0, {r1, r4, r9, sl}^
     908:	01194297 			; <UNDEFINED> instruction: 0x01194297
     90c:	0e000013 	mcreq	0, 0, r0, cr0, cr3, {0}
     910:	0e030005 	cdpeq	0, 0, cr0, cr3, cr5, {0}
     914:	053b0b3a 	ldreq	r0, [fp, #-2874]!	; 0xfffff4c6
     918:	18021349 	stmdane	r2, {r0, r3, r6, r8, r9, ip}
     91c:	340f0000 	strcc	r0, [pc], #-0	; 924 <inv_finished+0x4>
     920:	3a080300 	bcc	201528 <__bss_end+0x1fe3ac>
     924:	49053b0b 	stmdbmi	r5, {r0, r1, r3, r8, r9, fp, ip, sp}
     928:	00170213 	andseq	r0, r7, r3, lsl r2
     92c:	00341000 	eorseq	r1, r4, r0
     930:	0b3a0e03 	bleq	e84144 <__bss_end+0xe80fc8>
     934:	1349053b 	movtne	r0, #38203	; 0x953b
     938:	00001802 	andeq	r1, r0, r2, lsl #16
     93c:	01828911 	orreq	r8, r2, r1, lsl r9
     940:	95011101 	strls	r1, [r1, #-257]	; 0xfffffeff
     944:	13311942 	teqne	r1, #1081344	; 0x108000
     948:	8a120000 	bhi	480950 <__bss_end+0x47d7d4>
     94c:	02000182 	andeq	r0, r0, #-2147483616	; 0x80000020
     950:	18429118 	stmdane	r2, {r3, r4, r8, ip, pc}^
     954:	2e130000 	cdpcs	0, 1, cr0, cr3, cr0, {0}
     958:	03193f00 	tsteq	r9, #0, 30
     95c:	3b0b3a0e 	blcc	2cf19c <__bss_end+0x2cc020>
     960:	11192705 	tstne	r9, r5, lsl #14
     964:	40061201 	andmi	r1, r6, r1, lsl #4
     968:	19429718 	stmdbne	r2, {r3, r4, r8, r9, sl, ip, pc}^
     96c:	34140000 	ldrcc	r0, [r4], #-0
     970:	3a0e0300 	bcc	381578 <__bss_end+0x37e3fc>
     974:	490b3b0b 	stmdbmi	fp, {r0, r1, r3, r8, r9, fp, ip, sp}
     978:	00180213 	andseq	r0, r8, r3, lsl r2
     97c:	00341500 	eorseq	r1, r4, r0, lsl #10
     980:	0b3a0e03 	bleq	e84194 <__bss_end+0xe81018>
     984:	13490b3b 	movtne	r0, #39739	; 0x9b3b
     988:	00000a1c 	andeq	r0, r0, ip, lsl sl
     98c:	49002616 	stmdbmi	r0, {r1, r2, r4, r9, sl, sp}
     990:	17000013 	smladne	r0, r3, r0, r0
     994:	13490101 	movtne	r0, #37121	; 0x9101
     998:	00001301 	andeq	r1, r0, r1, lsl #6
     99c:	49002118 	stmdbmi	r0, {r3, r4, r8, sp}
     9a0:	000b2f13 	andeq	r2, fp, r3, lsl pc
     9a4:	00341900 	eorseq	r1, r4, r0, lsl #18
     9a8:	0b3a0e03 	bleq	e841bc <__bss_end+0xe81040>
     9ac:	13490b3b 	movtne	r0, #39739	; 0x9b3b
     9b0:	1802193f 	stmdane	r2, {r0, r1, r2, r3, r4, r5, r8, fp, ip}
     9b4:	01000000 	mrseq	r0, (UNDEF: 0)
     9b8:	0e250111 	mcreq	1, 1, r0, cr5, cr1, {0}
     9bc:	0e030b13 	vmoveq.32	d3[0], r0
     9c0:	01110e1b 	tsteq	r1, fp, lsl lr
     9c4:	17100612 			; <UNDEFINED> instruction: 0x17100612
     9c8:	24020000 	strcs	r0, [r2], #-0
     9cc:	3e0b0b00 	vmlacc.f64	d0, d11, d0
     9d0:	000e030b 	andeq	r0, lr, fp, lsl #6
     9d4:	00160300 	andseq	r0, r6, r0, lsl #6
     9d8:	0b3a0e03 	bleq	e841ec <__bss_end+0xe81070>
     9dc:	13490b3b 	movtne	r0, #39739	; 0x9b3b
     9e0:	24040000 	strcs	r0, [r4], #-0
     9e4:	3e0b0b00 	vmlacc.f64	d0, d11, d0
     9e8:	0008030b 	andeq	r0, r8, fp, lsl #6
     9ec:	01130500 	tsteq	r3, r0, lsl #10
     9f0:	0b3a0b0b 	bleq	e83624 <__bss_end+0xe804a8>
     9f4:	13010b3b 	movwne	r0, #6971	; 0x1b3b
     9f8:	0d060000 	stceq	0, cr0, [r6, #-0]
     9fc:	3a0e0300 	bcc	381604 <__bss_end+0x37e488>
     a00:	490b3b0b 	stmdbmi	fp, {r0, r1, r3, r8, r9, fp, ip, sp}
     a04:	0d0b0b13 	vstreq	d0, [fp, #-76]	; 0xffffffb4
     a08:	380b0c0b 	stmdacc	fp, {r0, r1, r3, sl, fp}
     a0c:	0700000b 	streq	r0, [r0, -fp]
     a10:	0b0b0117 	bleq	2c0e74 <__bss_end+0x2bdcf8>
     a14:	0b3b0b3a 	bleq	ec3704 <__bss_end+0xec0588>
     a18:	00001301 	andeq	r1, r0, r1, lsl #6
     a1c:	03000d08 	movweq	r0, #3336	; 0xd08
     a20:	3b0b3a0e 	blcc	2cf260 <__bss_end+0x2cc0e4>
     a24:	0013490b 	andseq	r4, r3, fp, lsl #18
     a28:	01130900 	tsteq	r3, r0, lsl #18
     a2c:	0b0b0e03 	bleq	2c4240 <__bss_end+0x2c10c4>
     a30:	0b3b0b3a 	bleq	ec3720 <__bss_end+0xec05a4>
     a34:	00001301 	andeq	r1, r0, r1, lsl #6
     a38:	0301130a 	movweq	r1, #4874	; 0x130a
     a3c:	3a050b0e 	bcc	14367c <__bss_end+0x140500>
     a40:	010b3b0b 	tsteq	fp, fp, lsl #22
     a44:	0b000013 	bleq	a98 <enable_cache+0x18>
     a48:	0e03000d 	cdpeq	0, 0, cr0, cr3, cr13, {0}
     a4c:	0b3b0b3a 	bleq	ec373c <__bss_end+0xec05c0>
     a50:	0b381349 	bleq	e0577c <__bss_end+0xe02600>
     a54:	0d0c0000 	stceq	0, cr0, [ip, #-0]
     a58:	3a080300 	bcc	201660 <__bss_end+0x1fe4e4>
     a5c:	490b3b0b 	stmdbmi	fp, {r0, r1, r3, r8, r9, fp, ip, sp}
     a60:	000b3813 	andeq	r3, fp, r3, lsl r8
     a64:	000d0d00 	andeq	r0, sp, r0, lsl #26
     a68:	0b3a0e03 	bleq	e8427c <__bss_end+0xe81100>
     a6c:	1349053b 	movtne	r0, #38203	; 0x953b
     a70:	00000b38 	andeq	r0, r0, r8, lsr fp
     a74:	03000d0e 	movweq	r0, #3342	; 0xd0e
     a78:	3b0b3a08 	blcc	2cf2a0 <__bss_end+0x2cc124>
     a7c:	38134905 	ldmdacc	r3, {r0, r2, r8, fp, lr}
     a80:	0f00000b 	svceq	0x0000000b
     a84:	0e03000d 	cdpeq	0, 0, cr0, cr3, cr13, {0}
     a88:	053b0b3a 	ldreq	r0, [fp, #-2874]!	; 0xfffff4c6
     a8c:	05381349 	ldreq	r1, [r8, #-841]!	; 0xfffffcb7
     a90:	0d100000 	ldceq	0, cr0, [r0, #-0]
     a94:	3a080300 	bcc	20169c <__bss_end+0x1fe520>
     a98:	49053b0b 	stmdbmi	r5, {r0, r1, r3, r8, r9, fp, ip, sp}
     a9c:	00053813 	andeq	r3, r5, r3, lsl r8
     aa0:	00351100 	eorseq	r1, r5, r0, lsl #2
     aa4:	00001349 	andeq	r1, r0, r9, asr #6
     aa8:	49010112 	stmdbmi	r1, {r1, r4, r8}
     aac:	00130113 	andseq	r0, r3, r3, lsl r1
     ab0:	00211300 	eoreq	r1, r1, r0, lsl #6
     ab4:	0b2f1349 	bleq	bc57e0 <__bss_end+0xbc2664>
     ab8:	16140000 	ldrne	r0, [r4], -r0
     abc:	3a0e0300 	bcc	3816c4 <__bss_end+0x37e548>
     ac0:	49053b0b 	stmdbmi	r5, {r0, r1, r3, r8, r9, fp, ip, sp}
     ac4:	15000013 	strne	r0, [r0, #-19]	; 0xffffffed
     ac8:	0b0b000f 	bleq	2c0b0c <__bss_end+0x2bd990>
     acc:	00001349 	andeq	r1, r0, r9, asr #6
     ad0:	03010416 	movweq	r0, #5142	; 0x1416
     ad4:	490b0b0e 	stmdbmi	fp, {r1, r2, r3, r8, r9, fp}
     ad8:	3b0b3a13 	blcc	2cf32c <__bss_end+0x2cc1b0>
     adc:	0013010b 	andseq	r0, r3, fp, lsl #2
     ae0:	00281700 	eoreq	r1, r8, r0, lsl #14
     ae4:	0b1c0e03 	bleq	7042f8 <__bss_end+0x70117c>
     ae8:	2e180000 	cdpcs	0, 1, cr0, cr8, cr0, {0}
     aec:	3a0e0301 	bcc	3816f8 <__bss_end+0x37e57c>
     af0:	27053b0b 	strcs	r3, [r5, -fp, lsl #22]
     af4:	010b2019 	tsteq	fp, r9, lsl r0
     af8:	19000013 	stmdbne	r0, {r0, r1, r4}
     afc:	0e030005 	cdpeq	0, 0, cr0, cr3, cr5, {0}
     b00:	053b0b3a 	ldreq	r0, [fp, #-2874]!	; 0xfffff4c6
     b04:	00001349 	andeq	r1, r0, r9, asr #6
     b08:	0300341a 	movweq	r3, #1050	; 0x41a
     b0c:	3b0b3a0e 	blcc	2cf34c <__bss_end+0x2cc1d0>
     b10:	00134905 	andseq	r4, r3, r5, lsl #18
     b14:	00341b00 	eorseq	r1, r4, r0, lsl #22
     b18:	0b3a0803 	bleq	e82b2c <__bss_end+0xe7f9b0>
     b1c:	1349053b 	movtne	r0, #38203	; 0x953b
     b20:	2e1c0000 	cdpcs	0, 1, cr0, cr12, cr0, {0}
     b24:	3a0e0301 	bcc	381730 <__bss_end+0x37e5b4>
     b28:	270b3b0b 	strcs	r3, [fp, -fp, lsl #22]
     b2c:	20134919 	andscs	r4, r3, r9, lsl r9
     b30:	0013010b 	andseq	r0, r3, fp, lsl #2
     b34:	00051d00 	andeq	r1, r5, r0, lsl #26
     b38:	0b3a0e03 	bleq	e8434c <__bss_end+0xe811d0>
     b3c:	13490b3b 	movtne	r0, #39739	; 0x9b3b
     b40:	341e0000 	ldrcc	r0, [lr], #-0
     b44:	3a0e0300 	bcc	38174c <__bss_end+0x37e5d0>
     b48:	490b3b0b 	stmdbmi	fp, {r0, r1, r3, r8, r9, fp, ip, sp}
     b4c:	1f000013 	svcne	0x00000013
     b50:	08030034 	stmdaeq	r3, {r2, r4, r5}
     b54:	0b3b0b3a 	bleq	ec3844 <__bss_end+0xec06c8>
     b58:	00001349 	andeq	r1, r0, r9, asr #6
     b5c:	03000520 	movweq	r0, #1312	; 0x520
     b60:	3b0b3a08 	blcc	2cf388 <__bss_end+0x2cc20c>
     b64:	00134905 	andseq	r4, r3, r5, lsl #18
     b68:	012e2100 			; <UNDEFINED> instruction: 0x012e2100
     b6c:	0b3a0e03 	bleq	e84380 <__bss_end+0xe81204>
     b70:	1927053b 	stmdbne	r7!, {r0, r1, r3, r4, r5, r8, sl}
     b74:	0b201349 	bleq	8058a0 <__bss_end+0x802724>
     b78:	00001301 	andeq	r1, r0, r1, lsl #6
     b7c:	3f002e22 	svccc	0x00002e22
     b80:	3a0e0319 	bcc	3817ec <__bss_end+0x37e670>
     b84:	27053b0b 	strcs	r3, [r5, -fp, lsl #22]
     b88:	000b2019 	andeq	r2, fp, r9, lsl r0
     b8c:	012e2300 			; <UNDEFINED> instruction: 0x012e2300
     b90:	01111331 	tsteq	r1, r1, lsr r3
     b94:	18400612 	stmdane	r0, {r1, r4, r9, sl}^
     b98:	01194296 			; <UNDEFINED> instruction: 0x01194296
     b9c:	24000013 	strcs	r0, [r0], #-19	; 0xffffffed
     ba0:	13310005 	teqne	r1, #5
     ba4:	00001702 	andeq	r1, r0, r2, lsl #14
     ba8:	31003425 	tstcc	r0, r5, lsr #8
     bac:	00170213 	andseq	r0, r7, r3, lsl r2
     bb0:	00342600 	eorseq	r2, r4, r0, lsl #12
     bb4:	0b1c1331 	bleq	705880 <__bss_end+0x702704>
     bb8:	0b270000 	bleq	9c0bc0 <__bss_end+0x9bda44>
     bbc:	01175501 	tsteq	r7, r1, lsl #10
     bc0:	28000013 	stmdacs	r0, {r0, r1, r4}
     bc4:	13310005 	teqne	r1, #5
     bc8:	00001802 	andeq	r1, r0, r2, lsl #16
     bcc:	55010b29 	strpl	r0, [r1, #-2857]	; 0xfffff4d7
     bd0:	2a000017 	bcs	c34 <mem_preload_tlb+0x104>
     bd4:	13310034 	teqne	r1, #52	; 0x34
     bd8:	342b0000 	strtcc	r0, [fp], #-0
     bdc:	1c133100 	ldfnes	f3, [r3], {-0}
     be0:	2c00000d 	stccs	0, cr0, [r0], {13}
     be4:	00018289 	andeq	r8, r1, r9, lsl #5
     be8:	13310111 	teqne	r1, #1073741828	; 0x40000004
     bec:	892d0000 	pushhi	{}	; <UNPREDICTABLE>
     bf0:	11010182 	smlabbne	r1, r2, r1, r0
     bf4:	00133101 	andseq	r3, r3, r1, lsl #2
     bf8:	828a2e00 	addhi	r2, sl, #0, 28
     bfc:	18020001 	stmdane	r2, {r0}
     c00:	00184291 	mulseq	r8, r1, r2
     c04:	012e2f00 			; <UNDEFINED> instruction: 0x012e2f00
     c08:	0e03193f 	mcreq	9, 0, r1, cr3, cr15, {1}
     c0c:	053b0b3a 	ldreq	r0, [fp, #-2874]!	; 0xfffff4c6
     c10:	01111927 	tsteq	r1, r7, lsr #18
     c14:	18400612 	stmdane	r0, {r1, r4, r9, sl}^
     c18:	01194297 			; <UNDEFINED> instruction: 0x01194297
     c1c:	30000013 	andcc	r0, r0, r3, lsl r0
     c20:	1331001d 	teqne	r1, #29
     c24:	17550152 			; <UNDEFINED> instruction: 0x17550152
     c28:	05590b58 	ldrbeq	r0, [r9, #-2904]	; 0xfffff4a8
     c2c:	05310000 	ldreq	r0, [r1, #-0]!
     c30:	3a0e0300 	bcc	381838 <__bss_end+0x37e6bc>
     c34:	49053b0b 	stmdbmi	r5, {r0, r1, r3, r8, r9, fp, ip, sp}
     c38:	00170213 	andseq	r0, r7, r3, lsl r2
     c3c:	00343200 	eorseq	r3, r4, r0, lsl #4
     c40:	0b3a0803 	bleq	e82c54 <__bss_end+0xe7fad8>
     c44:	1349053b 	movtne	r0, #38203	; 0x953b
     c48:	00001702 	andeq	r1, r0, r2, lsl #14
     c4c:	03003433 	movweq	r3, #1075	; 0x433
     c50:	3b0b3a0e 	blcc	2cf490 <__bss_end+0x2cc314>
     c54:	02134905 	andseq	r4, r3, #81920	; 0x14000
     c58:	34000017 	strcc	r0, [r0], #-23	; 0xffffffe9
     c5c:	1331011d 	teqne	r1, #1073741831	; 0x40000007
     c60:	17550152 			; <UNDEFINED> instruction: 0x17550152
     c64:	05590b58 	ldrbeq	r0, [r9, #-2904]	; 0xfffff4a8
     c68:	00001301 	andeq	r1, r0, r1, lsl #6
     c6c:	31000535 	tstcc	r0, r5, lsr r5
     c70:	000b1c13 	andeq	r1, fp, r3, lsl ip
     c74:	00343600 	eorseq	r3, r4, r0, lsl #12
     c78:	061c1331 			; <UNDEFINED> instruction: 0x061c1331
     c7c:	2e370000 	cdpcs	0, 3, cr0, cr7, cr0, {0}
     c80:	03193f01 	tsteq	r9, #1, 30
     c84:	3b0b3a0e 	blcc	2cf4c4 <__bss_end+0x2cc348>
     c88:	49192705 	ldmdbmi	r9, {r0, r2, r8, r9, sl, sp}
     c8c:	12011113 	andne	r1, r1, #-1073741820	; 0xc0000004
     c90:	97184006 	ldrls	r4, [r8, -r6]
     c94:	13011942 	movwne	r1, #6466	; 0x1942
     c98:	05380000 	ldreq	r0, [r8, #-0]!
     c9c:	00133100 	andseq	r3, r3, r0, lsl #2
     ca0:	011d3900 	tsteq	sp, r0, lsl #18
     ca4:	01111331 	tsteq	r1, r1, lsr r3
     ca8:	0b580612 	bleq	16024f8 <__bss_end+0x15ff37c>
     cac:	00000559 	andeq	r0, r0, r9, asr r5
     cb0:	4900263a 	stmdbmi	r0, {r1, r3, r4, r5, r9, sl, sp}
     cb4:	3b000013 	blcc	d08 <jump_to_resume0_nommu+0x8>
     cb8:	08030005 	stmdaeq	r3, {r0, r2}
     cbc:	053b0b3a 	ldreq	r0, [fp, #-2874]!	; 0xfffff4c6
     cc0:	17021349 	strne	r1, [r2, -r9, asr #6]
     cc4:	053c0000 	ldreq	r0, [ip, #-0]!
     cc8:	3a080300 	bcc	2018d0 <__bss_end+0x1fe754>
     ccc:	49053b0b 	stmdbmi	r5, {r0, r1, r3, r8, r9, fp, ip, sp}
     cd0:	00180213 	andseq	r0, r8, r3, lsl r2
     cd4:	011d3d00 	tsteq	sp, r0, lsl #26
     cd8:	01521331 	cmpeq	r2, r1, lsr r3
     cdc:	0b581755 	bleq	1606a38 <__bss_end+0x16038bc>
     ce0:	00000559 	andeq	r0, r0, r9, asr r5
     ce4:	31002e3e 	tstcc	r0, lr, lsr lr
     ce8:	12011113 	andne	r1, r1, #-1073741820	; 0xc0000004
     cec:	97184006 	ldrls	r4, [r8, -r6]
     cf0:	00001942 	andeq	r1, r0, r2, asr #18
     cf4:	31001d3f 	tstcc	r0, pc, lsr sp
     cf8:	12011113 	andne	r1, r1, #-1073741820	; 0xc0000004
     cfc:	590b5806 	stmdbpl	fp, {r1, r2, fp, ip, lr}
     d00:	40000005 	andmi	r0, r0, r5
     d04:	0e030034 	mcreq	0, 0, r0, cr3, cr4, {1}
     d08:	0b3b0b3a 	bleq	ec39f8 <__bss_end+0xec087c>
     d0c:	18021349 	stmdane	r2, {r0, r3, r6, r8, r9, ip}
     d10:	2e410000 	cdpcs	0, 4, cr0, cr1, cr0, {0}
     d14:	3c193f00 	ldccc	15, cr3, [r9], {-0}
     d18:	030e6e19 	movweq	r6, #60953	; 0xee19
     d1c:	3b0b3a0e 	blcc	2cf55c <__bss_end+0x2cc3e0>
     d20:	0000000b 	andeq	r0, r0, fp
     d24:	25011101 	strcs	r1, [r1, #-257]	; 0xfffffeff
     d28:	030b130e 	movweq	r1, #45838	; 0xb30e
     d2c:	110e1b0e 	tstne	lr, lr, lsl #22
     d30:	10061201 	andne	r1, r6, r1, lsl #4
     d34:	02000017 	andeq	r0, r0, #23
     d38:	0b0b0024 	bleq	2c0dd0 <__bss_end+0x2bdc54>
     d3c:	0e030b3e 	vmoveq.16	d3[0], r0
     d40:	16030000 	strne	r0, [r3], -r0
     d44:	3a0e0300 	bcc	38194c <__bss_end+0x37e7d0>
     d48:	490b3b0b 	stmdbmi	fp, {r0, r1, r3, r8, r9, fp, ip, sp}
     d4c:	04000013 	streq	r0, [r0], #-19	; 0xffffffed
     d50:	0b0b0024 	bleq	2c0de8 <__bss_end+0x2bdc6c>
     d54:	08030b3e 	stmdaeq	r3, {r1, r2, r3, r4, r5, r8, r9, fp}
     d58:	04050000 	streq	r0, [r5], #-0
     d5c:	0b0e0301 	bleq	381968 <__bss_end+0x37e7ec>
     d60:	3a13490b 	bcc	4d3194 <__bss_end+0x4d0018>
     d64:	010b3b0b 	tsteq	fp, fp, lsl #22
     d68:	06000013 			; <UNDEFINED> instruction: 0x06000013
     d6c:	0e030028 	cdpeq	0, 0, cr0, cr3, cr8, {1}
     d70:	00000b1c 	andeq	r0, r0, ip, lsl fp
     d74:	0b000f07 	bleq	4998 <__bss_end+0x181c>
     d78:	0800000b 	stmdaeq	r0, {r0, r1, r3}
     d7c:	0e030113 	mcreq	1, 0, r0, cr3, cr3, {0}
     d80:	0b3a0b0b 	bleq	e839b4 <__bss_end+0xe80838>
     d84:	13010b3b 	movwne	r0, #6971	; 0x1b3b
     d88:	0d090000 	stceq	0, cr0, [r9, #-0]
     d8c:	490e0300 	stmdbmi	lr, {r8, r9}
     d90:	340b3813 	strcc	r3, [fp], #-2067	; 0xfffff7ed
     d94:	0a000019 	beq	e00 <__save_processor_state+0x50>
     d98:	0e03012e 	adfeqsp	f0, f3, #0.5
     d9c:	0b3b0b3a 	bleq	ec3a8c <__bss_end+0xec0910>
     da0:	13491927 	movtne	r1, #39207	; 0x9927
     da4:	13010b20 	movwne	r0, #6944	; 0x1b20
     da8:	050b0000 	streq	r0, [fp, #-0]
     dac:	3a0e0300 	bcc	3819b4 <__bss_end+0x37e838>
     db0:	490b3b0b 	stmdbmi	fp, {r0, r1, r3, r8, r9, fp, ip, sp}
     db4:	0c000013 	stceq	0, cr0, [r0], {19}
     db8:	08030005 	stmdaeq	r3, {r0, r2}
     dbc:	0b3b0b3a 	bleq	ec3aac <__bss_end+0xec0930>
     dc0:	00001349 	andeq	r1, r0, r9, asr #6
     dc4:	0300340d 	movweq	r3, #1037	; 0x40d
     dc8:	3b0b3a08 	blcc	2cf5f0 <__bss_end+0x2cc474>
     dcc:	0013490b 	andseq	r4, r3, fp, lsl #18
     dd0:	000f0e00 	andeq	r0, pc, r0, lsl #28
     dd4:	13490b0b 	movtne	r0, #39691	; 0x9b0b
     dd8:	260f0000 	strcs	r0, [pc], -r0
     ddc:	00134900 	andseq	r4, r3, r0, lsl #18
     de0:	00341000 	eorseq	r1, r4, r0
     de4:	0b3a0e03 	bleq	e845f8 <__bss_end+0xe8147c>
     de8:	13490b3b 	movtne	r0, #39739	; 0x9b3b
     dec:	01110000 	tsteq	r1, r0
     df0:	01134901 	tsteq	r3, r1, lsl #18
     df4:	12000013 	andne	r0, r0, #19
     df8:	13490021 	movtne	r0, #36897	; 0x9021
     dfc:	00000b2f 	andeq	r0, r0, pc, lsr #22
     e00:	03012e13 	movweq	r2, #7699	; 0x1e13
     e04:	3b0b3a0e 	blcc	2cf644 <__bss_end+0x2cc4c8>
     e08:	4919270b 	ldmdbmi	r9, {r0, r1, r3, r8, r9, sl, sp}
     e0c:	12011113 	andne	r1, r1, #-1073741820	; 0xc0000004
     e10:	96184006 	ldrls	r4, [r8], -r6
     e14:	13011942 	movwne	r1, #6466	; 0x1942
     e18:	05140000 	ldreq	r0, [r4, #-0]
     e1c:	3a0e0300 	bcc	381a24 <__bss_end+0x37e8a8>
     e20:	490b3b0b 	stmdbmi	fp, {r0, r1, r3, r8, r9, fp, ip, sp}
     e24:	00170213 	andseq	r0, r7, r3, lsl r2
     e28:	00341500 	eorseq	r1, r4, r0, lsl #10
     e2c:	0b3a0e03 	bleq	e84640 <__bss_end+0xe814c4>
     e30:	13490b3b 	movtne	r0, #39739	; 0x9b3b
     e34:	00001802 	andeq	r1, r0, r2, lsl #16
     e38:	03003416 	movweq	r3, #1046	; 0x416
     e3c:	3b0b3a08 	blcc	2cf664 <__bss_end+0x2cc4e8>
     e40:	0213490b 	andseq	r4, r3, #180224	; 0x2c000
     e44:	17000017 	smladne	r0, r7, r0, r0
     e48:	0e03012e 	adfeqsp	f0, f3, #0.5
     e4c:	053b0b3a 	ldreq	r0, [fp, #-2874]!	; 0xfffff4c6
     e50:	13491927 	movtne	r1, #39207	; 0x9927
     e54:	06120111 			; <UNDEFINED> instruction: 0x06120111
     e58:	42971840 	addsmi	r1, r7, #64, 16	; 0x400000
     e5c:	00130119 	andseq	r0, r3, r9, lsl r1
     e60:	00051800 	andeq	r1, r5, r0, lsl #16
     e64:	0b3a0e03 	bleq	e84678 <__bss_end+0xe814fc>
     e68:	1349053b 	movtne	r0, #38203	; 0x953b
     e6c:	00001702 	andeq	r1, r0, r2, lsl #14
     e70:	03000519 	movweq	r0, #1305	; 0x519
     e74:	3b0b3a08 	blcc	2cf69c <__bss_end+0x2cc520>
     e78:	02134905 	andseq	r4, r3, #81920	; 0x14000
     e7c:	1a000017 	bne	ee0 <__save_processor_state+0x130>
     e80:	0e030034 	mcreq	0, 0, r0, cr3, cr4, {1}
     e84:	053b0b3a 	ldreq	r0, [fp, #-2874]!	; 0xfffff4c6
     e88:	18021349 	stmdane	r2, {r0, r3, r6, r8, r9, ip}
     e8c:	1d1b0000 	ldcne	0, cr0, [fp, #-0]
     e90:	52133101 	andspl	r3, r3, #1073741824	; 0x40000000
     e94:	58175501 	ldmdapl	r7, {r0, r8, sl, ip, lr}
     e98:	0005590b 	andeq	r5, r5, fp, lsl #18
     e9c:	00051c00 	andeq	r1, r5, r0, lsl #24
     ea0:	17021331 	smladxne	r2, r1, r3, r1
     ea4:	0b1d0000 	bleq	740eac <__bss_end+0x73dd30>
     ea8:	00175501 	andseq	r5, r7, r1, lsl #10
     eac:	00341e00 	eorseq	r1, r4, r0, lsl #28
     eb0:	17021331 	smladxne	r2, r1, r3, r1
     eb4:	2e1f0000 	cdpcs	0, 1, cr0, cr15, cr0, {0}
     eb8:	11133101 	tstne	r3, r1, lsl #2
     ebc:	40061201 	andmi	r1, r6, r1, lsl #4
     ec0:	19429718 	stmdbne	r2, {r3, r4, r8, r9, sl, ip, pc}^
     ec4:	00001301 	andeq	r1, r0, r1, lsl #6
     ec8:	31003420 	tstcc	r0, r0, lsr #8
     ecc:	00180213 	andseq	r0, r8, r3, lsl r2
     ed0:	00052100 	andeq	r2, r5, r0, lsl #2
     ed4:	0b1c1331 	bleq	705ba0 <__bss_end+0x702a24>
     ed8:	2e220000 	cdpcs	0, 2, cr0, cr2, cr0, {0}
     edc:	03193f01 	tsteq	r9, #1, 30
     ee0:	3b0b3a0e 	blcc	2cf720 <__bss_end+0x2cc5a4>
     ee4:	49192705 	ldmdbmi	r9, {r0, r2, r8, r9, sl, sp}
     ee8:	12011113 	andne	r1, r1, #-1073741820	; 0xc0000004
     eec:	97184006 	ldrls	r4, [r8, -r6]
     ef0:	13011942 	movwne	r1, #6466	; 0x1942
     ef4:	18230000 	stmdane	r3!, {}	; <UNPREDICTABLE>
     ef8:	24000000 	strcs	r0, [r0], #-0
     efc:	0e030034 	mcreq	0, 0, r0, cr3, cr4, {1}
     f00:	053b0b3a 	ldreq	r0, [fp, #-2874]!	; 0xfffff4c6
     f04:	17021349 	strne	r1, [r2, -r9, asr #6]
     f08:	34250000 	strtcc	r0, [r5], #-0
     f0c:	3a080300 	bcc	201b14 <__bss_end+0x1fe998>
     f10:	49053b0b 	stmdbmi	r5, {r0, r1, r3, r8, r9, fp, ip, sp}
     f14:	00170213 	andseq	r0, r7, r3, lsl r2
     f18:	011d2600 	tsteq	sp, r0, lsl #12
     f1c:	01521331 	cmpeq	r2, r1, lsr r3
     f20:	0b581755 	bleq	1606c7c <__bss_end+0x1603b00>
     f24:	13010559 	movwne	r0, #5465	; 0x1559
     f28:	1d270000 	stcne	0, cr0, [r7, #-0]
     f2c:	11133101 	tstne	r3, r1, lsl #2
     f30:	58061201 	stmdapl	r6, {r0, r9, ip}
     f34:	0105590b 	tsteq	r5, fp, lsl #18
     f38:	28000013 	stmdacs	r0, {r0, r1, r4}
     f3c:	13310005 	teqne	r1, #5
     f40:	0b290000 	bleq	a40f48 <__bss_end+0xa3ddcc>
     f44:	12011101 	andne	r1, r1, #1073741824	; 0x40000000
     f48:	2a000006 	bcs	f68 <__save_processor_state+0x1b8>
     f4c:	13310034 	teqne	r1, #52	; 0x34
     f50:	892b0000 	stmdbhi	fp!, {}	; <UNPREDICTABLE>
     f54:	11010182 	smlabbne	r1, r2, r1, r0
     f58:	01133101 	tsteq	r3, r1, lsl #2
     f5c:	2c000013 	stccs	0, cr0, [r0], {19}
     f60:	0001828a 	andeq	r8, r1, sl, lsl #5
     f64:	42911802 	addsmi	r1, r1, #131072	; 0x20000
     f68:	2d000018 	stccs	0, cr0, [r0, #-96]	; 0xffffffa0
     f6c:	01018289 	smlabbeq	r1, r9, r2, r8
     f70:	13310111 	teqne	r1, #1073741828	; 0x40000004
     f74:	2e2e0000 	cdpcs	0, 2, cr0, cr14, cr0, {0}
     f78:	3c193f00 	ldccc	15, cr3, [r9], {-0}
     f7c:	030e6e19 	movweq	r6, #60953	; 0xee19
     f80:	3b0b3a0e 	blcc	2cf7c0 <__bss_end+0x2cc644>
     f84:	0000000b 	andeq	r0, r0, fp
     f88:	10001101 	andne	r1, r0, r1, lsl #2
     f8c:	12011106 	andne	r1, r1, #-2147483647	; 0x80000001
     f90:	1b080301 	blne	201b9c <__bss_end+0x1fea20>
     f94:	13082508 	movwne	r2, #34056	; 0x8508
     f98:	00000005 	andeq	r0, r0, r5
     f9c:	25011101 	strcs	r1, [r1, #-257]	; 0xfffffeff
     fa0:	030b130e 	movweq	r1, #45838	; 0xb30e
     fa4:	110e1b0e 	tstne	lr, lr, lsl #22
     fa8:	10061201 	andne	r1, r6, r1, lsl #4
     fac:	02000017 	andeq	r0, r0, #23
     fb0:	0b0b0024 	bleq	2c1048 <__bss_end+0x2bdecc>
     fb4:	0e030b3e 	vmoveq.16	d3[0], r0
     fb8:	16030000 	strne	r0, [r3], -r0
     fbc:	3a0e0300 	bcc	381bc4 <__bss_end+0x37ea48>
     fc0:	490b3b0b 	stmdbmi	fp, {r0, r1, r3, r8, r9, fp, ip, sp}
     fc4:	04000013 	streq	r0, [r0], #-19	; 0xffffffed
     fc8:	0b0b0024 	bleq	2c1060 <__bss_end+0x2bdee4>
     fcc:	08030b3e 	stmdaeq	r3, {r1, r2, r3, r4, r5, r8, r9, fp}
     fd0:	2e050000 	cdpcs	0, 0, cr0, cr5, cr0, {0}
     fd4:	03193f01 	tsteq	r9, #1, 30
     fd8:	3b0b3a0e 	blcc	2cf818 <__bss_end+0x2cc69c>
     fdc:	1119270b 	tstne	r9, fp, lsl #14
     fe0:	40061201 	andmi	r1, r6, r1, lsl #4
     fe4:	19429718 	stmdbne	r2, {r3, r4, r8, r9, sl, ip, pc}^
     fe8:	00001301 	andeq	r1, r0, r1, lsl #6
     fec:	01828906 	orreq	r8, r2, r6, lsl #18
     ff0:	95011101 	strls	r1, [r1, #-257]	; 0xfffffeff
     ff4:	13311942 	teqne	r1, #1081344	; 0x108000
     ff8:	8a070000 	bhi	1c1000 <__bss_end+0x1bde84>
     ffc:	02000182 	andeq	r0, r0, #-2147483616	; 0x80000020
    1000:	18429118 	stmdane	r2, {r3, r4, r8, ip, pc}^
    1004:	2e080000 	cdpcs	0, 0, cr0, cr8, cr0, {0}
    1008:	03193f01 	tsteq	r9, #1, 30
    100c:	3b0b3a0e 	blcc	2cf84c <__bss_end+0x2cc6d0>
    1010:	4919270b 	ldmdbmi	r9, {r0, r1, r3, r8, r9, sl, sp}
    1014:	12011113 	andne	r1, r1, #-1073741820	; 0xc0000004
    1018:	97184006 	ldrls	r4, [r8, -r6]
    101c:	13011942 	movwne	r1, #6466	; 0x1942
    1020:	05090000 	streq	r0, [r9, #-0]
    1024:	3a0e0300 	bcc	381c2c <__bss_end+0x37eab0>
    1028:	490b3b0b 	stmdbmi	fp, {r0, r1, r3, r8, r9, fp, ip, sp}
    102c:	00170213 	andseq	r0, r7, r3, lsl r2
    1030:	00340a00 	eorseq	r0, r4, r0, lsl #20
    1034:	0b3a0e03 	bleq	e84848 <__bss_end+0xe816cc>
    1038:	13490b3b 	movtne	r0, #39739	; 0x9b3b
    103c:	00001702 	andeq	r1, r0, r2, lsl #14
    1040:	3f002e0b 	svccc	0x00002e0b
    1044:	6e193c19 	mrcvs	12, 0, r3, cr9, cr9, {0}
    1048:	3a0e030e 	bcc	381c88 <__bss_end+0x37eb0c>
    104c:	000b3b0b 	andeq	r3, fp, fp, lsl #22
    1050:	11010000 	mrsne	r0, (UNDEF: 1)
    1054:	130e2501 	movwne	r2, #58625	; 0xe501
    1058:	1b0e030b 	blne	381c8c <__bss_end+0x37eb10>
    105c:	1201110e 	andne	r1, r1, #-2147483645	; 0x80000003
    1060:	00171006 	andseq	r1, r7, r6
    1064:	00240200 	eoreq	r0, r4, r0, lsl #4
    1068:	0b3e0b0b 	bleq	f83c9c <__bss_end+0xf80b20>
    106c:	00000e03 	andeq	r0, r0, r3, lsl #28
    1070:	03001603 	movweq	r1, #1539	; 0x603
    1074:	3b0b3a0e 	blcc	2cf8b4 <__bss_end+0x2cc738>
    1078:	0013490b 	andseq	r4, r3, fp, lsl #18
    107c:	00240400 	eoreq	r0, r4, r0, lsl #8
    1080:	0b3e0b0b 	bleq	f83cb4 <__bss_end+0xf80b38>
    1084:	00000803 	andeq	r0, r0, r3, lsl #16
    1088:	49003505 	stmdbmi	r0, {r0, r2, r8, sl, ip, sp}
    108c:	06000013 			; <UNDEFINED> instruction: 0x06000013
    1090:	0e030104 	adfeqs	f0, f3, f4
    1094:	13490b0b 	movtne	r0, #39691	; 0x9b0b
    1098:	0b3b0b3a 	bleq	ec3d88 <__bss_end+0xec0c0c>
    109c:	00001301 	andeq	r1, r0, r1, lsl #6
    10a0:	03002807 	movweq	r2, #2055	; 0x807
    10a4:	000b1c0e 	andeq	r1, fp, lr, lsl #24
    10a8:	000f0800 	andeq	r0, pc, r0, lsl #16
    10ac:	00000b0b 	andeq	r0, r0, fp, lsl #22
    10b0:	3f012e09 	svccc	0x00012e09
    10b4:	3a0e0319 	bcc	381d20 <__bss_end+0x37eba4>
    10b8:	270b3b0b 	strcs	r3, [fp, -fp, lsl #22]
    10bc:	11134919 	tstne	r3, r9, lsl r9
    10c0:	40061201 	andmi	r1, r6, r1, lsl #4
    10c4:	19429718 	stmdbne	r2, {r3, r4, r8, r9, sl, ip, pc}^
    10c8:	00001301 	andeq	r1, r0, r1, lsl #6
    10cc:	0300340a 	movweq	r3, #1034	; 0x40a
    10d0:	3b0b3a08 	blcc	2cf8f8 <__bss_end+0x2cc77c>
    10d4:	0213490b 	andseq	r4, r3, #180224	; 0x2c000
    10d8:	0b000017 	bleq	113c <__save_processor_state+0x38c>
    10dc:	01018289 	smlabbeq	r1, r9, r2, r8
    10e0:	13310111 	teqne	r1, #1073741828	; 0x40000004
    10e4:	8a0c0000 	bhi	3010ec <__bss_end+0x2fdf70>
    10e8:	02000182 	andeq	r0, r0, #-2147483616	; 0x80000020
    10ec:	18429118 	stmdane	r2, {r3, r4, r8, ip, pc}^
    10f0:	340d0000 	strcc	r0, [sp], #-0
    10f4:	3a0e0300 	bcc	381cfc <__bss_end+0x37eb80>
    10f8:	490b3b0b 	stmdbmi	fp, {r0, r1, r3, r8, r9, fp, ip, sp}
    10fc:	00180213 	andseq	r0, r8, r3, lsl r2
    1100:	00050e00 	andeq	r0, r5, r0, lsl #28
    1104:	0b3a0803 	bleq	e83118 <__bss_end+0xe7ff9c>
    1108:	13490b3b 	movtne	r0, #39739	; 0x9b3b
    110c:	00001702 	andeq	r1, r0, r2, lsl #14
    1110:	0300340f 	movweq	r3, #1039	; 0x40f
    1114:	3b0b3a0e 	blcc	2cf954 <__bss_end+0x2cc7d8>
    1118:	0213490b 	andseq	r4, r3, #180224	; 0x2c000
    111c:	10000017 	andne	r0, r0, r7, lsl r0
    1120:	0e030034 	mcreq	0, 0, r0, cr3, cr4, {1}
    1124:	0b3b0b3a 	bleq	ec3e14 <__bss_end+0xec0c98>
    1128:	00001349 	andeq	r1, r0, r9, asr #6
    112c:	3f002e11 	svccc	0x00002e11
    1130:	6e193c19 	mrcvs	12, 0, r3, cr9, cr9, {0}
    1134:	3a0e030e 	bcc	381d74 <__bss_end+0x37ebf8>
    1138:	000b3b0b 	andeq	r3, fp, fp, lsl #22
    113c:	11010000 	mrsne	r0, (UNDEF: 1)
    1140:	130e2501 	movwne	r2, #58625	; 0xe501
    1144:	1b0e030b 	blne	381d78 <__bss_end+0x37ebfc>
    1148:	1201110e 	andne	r1, r1, #-2147483645	; 0x80000003
    114c:	00171006 	andseq	r1, r7, r6
    1150:	00240200 	eoreq	r0, r4, r0, lsl #4
    1154:	0b3e0b0b 	bleq	f83d88 <__bss_end+0xf80c0c>
    1158:	00000e03 	andeq	r0, r0, r3, lsl #28
    115c:	03001603 	movweq	r1, #1539	; 0x603
    1160:	3b0b3a0e 	blcc	2cf9a0 <__bss_end+0x2cc824>
    1164:	0013490b 	andseq	r4, r3, fp, lsl #18
    1168:	00240400 	eoreq	r0, r4, r0, lsl #8
    116c:	0b3e0b0b 	bleq	f83da0 <__bss_end+0xf80c24>
    1170:	00000803 	andeq	r0, r0, r3, lsl #16
    1174:	03011305 	movweq	r1, #4869	; 0x1305
    1178:	3a050b0e 	bcc	143db8 <__bss_end+0x140c3c>
    117c:	010b3b0b 	tsteq	fp, fp, lsl #22
    1180:	06000013 			; <UNDEFINED> instruction: 0x06000013
    1184:	0e03000d 	cdpeq	0, 0, cr0, cr3, cr13, {0}
    1188:	0b3b0b3a 	bleq	ec3e78 <__bss_end+0xec0cfc>
    118c:	0b381349 	bleq	e05eb8 <__bss_end+0xe02d3c>
    1190:	01070000 	mrseq	r0, (UNDEF: 7)
    1194:	01134901 	tsteq	r3, r1, lsl #18
    1198:	08000013 	stmdaeq	r0, {r0, r1, r4}
    119c:	13490021 	movtne	r0, #36897	; 0x9021
    11a0:	00000b2f 	andeq	r0, r0, pc, lsr #22
    11a4:	3f012e09 	svccc	0x00012e09
    11a8:	3a0e0319 	bcc	381e14 <__bss_end+0x37ec98>
    11ac:	270b3b0b 	strcs	r3, [fp, -fp, lsl #22]
    11b0:	11134919 	tstne	r3, r9, lsl r9
    11b4:	40061201 	andmi	r1, r6, r1, lsl #4
    11b8:	19429718 	stmdbne	r2, {r3, r4, r8, r9, sl, ip, pc}^
    11bc:	00001301 	andeq	r1, r0, r1, lsl #6
    11c0:	0300050a 	movweq	r0, #1290	; 0x50a
    11c4:	3b0b3a0e 	blcc	2cfa04 <__bss_end+0x2cc888>
    11c8:	0213490b 	andseq	r4, r3, #180224	; 0x2c000
    11cc:	0b000017 	bleq	1230 <__restore_processor_state+0x7c>
    11d0:	08030034 	stmdaeq	r3, {r2, r4, r5}
    11d4:	0b3b0b3a 	bleq	ec3ec4 <__bss_end+0xec0d48>
    11d8:	17021349 	strne	r1, [r2, -r9, asr #6]
    11dc:	0f0c0000 	svceq	0x000c0000
    11e0:	490b0b00 	stmdbmi	fp, {r8, r9, fp}
    11e4:	0d000013 	stceq	0, cr0, [r0, #-76]	; 0xffffffb4
    11e8:	193f012e 	ldmdbne	pc!, {r1, r2, r3, r5, r8}	; <UNPREDICTABLE>
    11ec:	0b3a0e03 	bleq	e84a00 <__bss_end+0xe81884>
    11f0:	19270b3b 	stmdbne	r7!, {r0, r1, r3, r4, r5, r8, r9, fp}
    11f4:	01111349 	tsteq	r1, r9, asr #6
    11f8:	18400612 	stmdane	r0, {r1, r4, r9, sl}^
    11fc:	00194297 	mulseq	r9, r7, r2
    1200:	11010000 	mrsne	r0, (UNDEF: 1)
    1204:	130e2501 	movwne	r2, #58625	; 0xe501
    1208:	1b0e030b 	blne	381e3c <__bss_end+0x37ecc0>
    120c:	1201110e 	andne	r1, r1, #-2147483645	; 0x80000003
    1210:	00171006 	andseq	r1, r7, r6
    1214:	00240200 	eoreq	r0, r4, r0, lsl #4
    1218:	0b3e0b0b 	bleq	f83e4c <__bss_end+0xf80cd0>
    121c:	00000e03 	andeq	r0, r0, r3, lsl #28
    1220:	03001603 	movweq	r1, #1539	; 0x603
    1224:	3b0b3a0e 	blcc	2cfa64 <__bss_end+0x2cc8e8>
    1228:	0013490b 	andseq	r4, r3, fp, lsl #18
    122c:	00240400 	eoreq	r0, r4, r0, lsl #8
    1230:	0b3e0b0b 	bleq	f83e64 <__bss_end+0xf80ce8>
    1234:	00000803 	andeq	r0, r0, r3, lsl #16
    1238:	49003505 	stmdbmi	r0, {r0, r2, r8, sl, ip, sp}
    123c:	06000013 			; <UNDEFINED> instruction: 0x06000013
    1240:	13490101 	movtne	r0, #37121	; 0x9101
    1244:	00001301 	andeq	r1, r0, r1, lsl #6
    1248:	49002107 	stmdbmi	r0, {r0, r1, r2, r8, sp}
    124c:	000b2f13 	andeq	r2, fp, r3, lsl pc
    1250:	01130800 	tsteq	r3, r0, lsl #16
    1254:	0b0b0e03 	bleq	2c4a68 <__bss_end+0x2c18ec>
    1258:	0b3b0b3a 	bleq	ec3f48 <__bss_end+0xec0dcc>
    125c:	00001301 	andeq	r1, r0, r1, lsl #6
    1260:	03000d09 	movweq	r0, #3337	; 0xd09
    1264:	3b0b3a0e 	blcc	2cfaa4 <__bss_end+0x2cc928>
    1268:	3813490b 	ldmdacc	r3, {r0, r1, r3, r8, fp, lr}
    126c:	0a00000b 	beq	12a0 <__restore_processor_state+0xec>
    1270:	0e030104 	adfeqs	f0, f3, f4
    1274:	13490b0b 	movtne	r0, #39691	; 0x9b0b
    1278:	0b3b0b3a 	bleq	ec3f68 <__bss_end+0xec0dec>
    127c:	00001301 	andeq	r1, r0, r1, lsl #6
    1280:	0300280b 	movweq	r2, #2059	; 0x80b
    1284:	000b1c0e 	andeq	r1, fp, lr, lsl #24
    1288:	012e0c00 			; <UNDEFINED> instruction: 0x012e0c00
    128c:	0e03193f 	mcreq	9, 0, r1, cr3, cr15, {1}
    1290:	0b3b0b3a 	bleq	ec3f80 <__bss_end+0xec0e04>
    1294:	13491927 	movtne	r1, #39207	; 0x9927
    1298:	06120111 			; <UNDEFINED> instruction: 0x06120111
    129c:	42971840 	addsmi	r1, r7, #64, 16	; 0x400000
    12a0:	00130119 	andseq	r0, r3, r9, lsl r1
    12a4:	00050d00 	andeq	r0, r5, r0, lsl #26
    12a8:	0b3a0e03 	bleq	e84abc <__bss_end+0xe81940>
    12ac:	13490b3b 	movtne	r0, #39739	; 0x9b3b
    12b0:	00001702 	andeq	r1, r0, r2, lsl #14
    12b4:	0b000f0e 	bleq	4ef4 <__bss_end+0x1d78>
    12b8:	0013490b 	andseq	r4, r3, fp, lsl #18
    12bc:	002e0f00 	eoreq	r0, lr, r0, lsl #30
    12c0:	0e03193f 	mcreq	9, 0, r1, cr3, cr15, {1}
    12c4:	0b3b0b3a 	bleq	ec3fb4 <__bss_end+0xec0e38>
    12c8:	13491927 	movtne	r1, #39207	; 0x9927
    12cc:	06120111 			; <UNDEFINED> instruction: 0x06120111
    12d0:	42971840 	addsmi	r1, r7, #64, 16	; 0x400000
    12d4:	10000019 	andne	r0, r0, r9, lsl r0
    12d8:	193f002e 	ldmdbne	pc!, {r1, r2, r3, r5}	; <UNPREDICTABLE>
    12dc:	0b3a0e03 	bleq	e84af0 <__bss_end+0xe81974>
    12e0:	19270b3b 	stmdbne	r7!, {r0, r1, r3, r4, r5, r8, r9, fp}
    12e4:	06120111 			; <UNDEFINED> instruction: 0x06120111
    12e8:	42971840 	addsmi	r1, r7, #64, 16	; 0x400000
    12ec:	11000019 	tstne	r0, r9, lsl r0
    12f0:	0e030034 	mcreq	0, 0, r0, cr3, cr4, {1}
    12f4:	0b3b0b3a 	bleq	ec3fe4 <__bss_end+0xec0e68>
    12f8:	18021349 	stmdane	r2, {r0, r3, r6, r8, r9, ip}
    12fc:	01000000 	mrseq	r0, (UNDEF: 0)
    1300:	0e250111 	mcreq	1, 1, r0, cr5, cr1, {0}
    1304:	0e030b13 	vmoveq.32	d3[0], r0
    1308:	17100e1b 			; <UNDEFINED> instruction: 0x17100e1b
    130c:	24020000 	strcs	r0, [r2], #-0
    1310:	3e0b0b00 	vmlacc.f64	d0, d11, d0
    1314:	000e030b 	andeq	r0, lr, fp, lsl #6
    1318:	00240300 	eoreq	r0, r4, r0, lsl #6
    131c:	0b3e0b0b 	bleq	f83f50 <__bss_end+0xf80dd4>
    1320:	00000803 	andeq	r0, r0, r3, lsl #16
    1324:	01110100 	tsteq	r1, r0, lsl #2
    1328:	0b130e25 	bleq	4c4bc4 <__bss_end+0x4c1a48>
    132c:	0e1b0e03 	cdpeq	14, 1, cr0, cr11, cr3, {0}
    1330:	00001710 	andeq	r1, r0, r0, lsl r7
    1334:	0b002402 	bleq	a344 <__bss_end+0x71c8>
    1338:	030b3e0b 	movweq	r3, #48651	; 0xbe0b
    133c:	0300000e 	movweq	r0, #14
    1340:	0b0b0024 	bleq	2c13d8 <__bss_end+0x2be25c>
    1344:	08030b3e 	stmdaeq	r3, {r1, r2, r3, r4, r5, r8, r9, fp}
    1348:	01000000 	mrseq	r0, (UNDEF: 0)
    134c:	0e250111 	mcreq	1, 1, r0, cr5, cr1, {0}
    1350:	0e030b13 	vmoveq.32	d3[0], r0
    1354:	01110e1b 	tsteq	r1, fp, lsl lr
    1358:	17100612 			; <UNDEFINED> instruction: 0x17100612
    135c:	24020000 	strcs	r0, [r2], #-0
    1360:	3e0b0b00 	vmlacc.f64	d0, d11, d0
    1364:	000e030b 	andeq	r0, lr, fp, lsl #6
    1368:	00160300 	andseq	r0, r6, r0, lsl #6
    136c:	0b3a0e03 	bleq	e84b80 <__bss_end+0xe81a04>
    1370:	13490b3b 	movtne	r0, #39739	; 0x9b3b
    1374:	24040000 	strcs	r0, [r4], #-0
    1378:	3e0b0b00 	vmlacc.f64	d0, d11, d0
    137c:	0008030b 	andeq	r0, r8, fp, lsl #6
    1380:	01130500 	tsteq	r3, r0, lsl #10
    1384:	0b3a0b0b 	bleq	e83fb8 <__bss_end+0xe80e3c>
    1388:	13010b3b 	movwne	r0, #6971	; 0x1b3b
    138c:	0d060000 	stceq	0, cr0, [r6, #-0]
    1390:	3a0e0300 	bcc	381f98 <__bss_end+0x37ee1c>
    1394:	490b3b0b 	stmdbmi	fp, {r0, r1, r3, r8, r9, fp, ip, sp}
    1398:	0d0b0b13 	vstreq	d0, [fp, #-76]	; 0xffffffb4
    139c:	380b0c0b 	stmdacc	fp, {r0, r1, r3, sl, fp}
    13a0:	0700000b 	streq	r0, [r0, -fp]
    13a4:	0b0b0117 	bleq	2c1808 <__bss_end+0x2be68c>
    13a8:	0b3b0b3a 	bleq	ec4098 <__bss_end+0xec0f1c>
    13ac:	00001301 	andeq	r1, r0, r1, lsl #6
    13b0:	03000d08 	movweq	r0, #3336	; 0xd08
    13b4:	3b0b3a0e 	blcc	2cfbf4 <__bss_end+0x2cca78>
    13b8:	0013490b 	andseq	r4, r3, fp, lsl #18
    13bc:	01130900 	tsteq	r3, r0, lsl #18
    13c0:	0b0b0e03 	bleq	2c4bd4 <__bss_end+0x2c1a58>
    13c4:	0b3b0b3a 	bleq	ec40b4 <__bss_end+0xec0f38>
    13c8:	00001301 	andeq	r1, r0, r1, lsl #6
    13cc:	0301130a 	movweq	r1, #4874	; 0x130a
    13d0:	3a050b0e 	bcc	144010 <__bss_end+0x140e94>
    13d4:	010b3b0b 	tsteq	fp, fp, lsl #22
    13d8:	0b000013 	bleq	142c <__restore_processor_state+0x278>
    13dc:	0e03000d 	cdpeq	0, 0, cr0, cr3, cr13, {0}
    13e0:	0b3b0b3a 	bleq	ec40d0 <__bss_end+0xec0f54>
    13e4:	0b381349 	bleq	e06110 <__bss_end+0xe02f94>
    13e8:	0d0c0000 	stceq	0, cr0, [ip, #-0]
    13ec:	3a080300 	bcc	201ff4 <__bss_end+0x1fee78>
    13f0:	490b3b0b 	stmdbmi	fp, {r0, r1, r3, r8, r9, fp, ip, sp}
    13f4:	000b3813 	andeq	r3, fp, r3, lsl r8
    13f8:	000d0d00 	andeq	r0, sp, r0, lsl #26
    13fc:	0b3a0e03 	bleq	e84c10 <__bss_end+0xe81a94>
    1400:	1349053b 	movtne	r0, #38203	; 0x953b
    1404:	00000b38 	andeq	r0, r0, r8, lsr fp
    1408:	03000d0e 	movweq	r0, #3342	; 0xd0e
    140c:	3b0b3a08 	blcc	2cfc34 <__bss_end+0x2ccab8>
    1410:	38134905 	ldmdacc	r3, {r0, r2, r8, fp, lr}
    1414:	0f00000b 	svceq	0x0000000b
    1418:	0e03000d 	cdpeq	0, 0, cr0, cr3, cr13, {0}
    141c:	053b0b3a 	ldreq	r0, [fp, #-2874]!	; 0xfffff4c6
    1420:	05381349 	ldreq	r1, [r8, #-841]!	; 0xfffffcb7
    1424:	0d100000 	ldceq	0, cr0, [r0, #-0]
    1428:	3a080300 	bcc	202030 <__bss_end+0x1feeb4>
    142c:	49053b0b 	stmdbmi	r5, {r0, r1, r3, r8, r9, fp, ip, sp}
    1430:	00053813 	andeq	r3, r5, r3, lsl r8
    1434:	00351100 	eorseq	r1, r5, r0, lsl #2
    1438:	00001349 	andeq	r1, r0, r9, asr #6
    143c:	49010112 	stmdbmi	r1, {r1, r4, r8}
    1440:	00130113 	andseq	r0, r3, r3, lsl r1
    1444:	00211300 	eoreq	r1, r1, r0, lsl #6
    1448:	0b2f1349 	bleq	bc6174 <__bss_end+0xbc2ff8>
    144c:	16140000 	ldrne	r0, [r4], -r0
    1450:	3a0e0300 	bcc	382058 <__bss_end+0x37eedc>
    1454:	49053b0b 	stmdbmi	r5, {r0, r1, r3, r8, r9, fp, ip, sp}
    1458:	15000013 	strne	r0, [r0, #-19]	; 0xffffffed
    145c:	0b0b000f 	bleq	2c14a0 <__bss_end+0x2be324>
    1460:	00001349 	andeq	r1, r0, r9, asr #6
    1464:	03010416 	movweq	r0, #5142	; 0x1416
    1468:	490b0b0e 	stmdbmi	fp, {r1, r2, r3, r8, r9, fp}
    146c:	3b0b3a13 	blcc	2cfcc0 <__bss_end+0x2ccb44>
    1470:	0013010b 	andseq	r0, r3, fp, lsl #2
    1474:	00281700 	eoreq	r1, r8, r0, lsl #14
    1478:	0b1c0e03 	bleq	704c8c <__bss_end+0x701b10>
    147c:	2e180000 	cdpcs	0, 1, cr0, cr8, cr0, {0}
    1480:	03193f01 	tsteq	r9, #1, 30
    1484:	3b0b3a0e 	blcc	2cfcc4 <__bss_end+0x2ccb48>
    1488:	4919270b 	ldmdbmi	r9, {r0, r1, r3, r8, r9, sl, sp}
    148c:	12011113 	andne	r1, r1, #-1073741820	; 0xc0000004
    1490:	97184006 	ldrls	r4, [r8, -r6]
    1494:	13011942 	movwne	r1, #6466	; 0x1942
    1498:	05190000 	ldreq	r0, [r9, #-0]
    149c:	3a0e0300 	bcc	3820a4 <__bss_end+0x37ef28>
    14a0:	490b3b0b 	stmdbmi	fp, {r0, r1, r3, r8, r9, fp, ip, sp}
    14a4:	00170213 	andseq	r0, r7, r3, lsl r2
    14a8:	002e1a00 	eoreq	r1, lr, r0, lsl #20
    14ac:	0e03193f 	mcreq	9, 0, r1, cr3, cr15, {1}
    14b0:	0b3b0b3a 	bleq	ec41a0 <__bss_end+0xec1024>
    14b4:	13491927 	movtne	r1, #39207	; 0x9927
    14b8:	06120111 			; <UNDEFINED> instruction: 0x06120111
    14bc:	42971840 	addsmi	r1, r7, #64, 16	; 0x400000
    14c0:	1b000019 	blne	152c <restore_processor_state>
    14c4:	01018289 	smlabbeq	r1, r9, r2, r8
    14c8:	13310111 	teqne	r1, #1073741828	; 0x40000004
    14cc:	00001301 	andeq	r1, r0, r1, lsl #6
    14d0:	01828a1c 	orreq	r8, r2, ip, lsl sl
    14d4:	91180200 	tstls	r8, r0, lsl #4
    14d8:	00001842 	andeq	r1, r0, r2, asr #16
    14dc:	0182891d 	orreq	r8, r2, sp, lsl r9
    14e0:	31011101 	tstcc	r1, r1, lsl #2
    14e4:	1e000013 	mcrne	0, 0, r0, cr0, cr3, {0}
    14e8:	193f012e 	ldmdbne	pc!, {r1, r2, r3, r5, r8}	; <UNPREDICTABLE>
    14ec:	0b3a0e03 	bleq	e84d00 <__bss_end+0xe81b84>
    14f0:	1927053b 	stmdbne	r7!, {r0, r1, r3, r4, r5, r8, sl}
    14f4:	01111349 	tsteq	r1, r9, asr #6
    14f8:	18400612 	stmdane	r0, {r1, r4, r9, sl}^
    14fc:	01194297 			; <UNDEFINED> instruction: 0x01194297
    1500:	1f000013 	svcne	0x00000013
    1504:	0e030005 	cdpeq	0, 0, cr0, cr3, cr5, {0}
    1508:	053b0b3a 	ldreq	r0, [fp, #-2874]!	; 0xfffff4c6
    150c:	17021349 	strne	r1, [r2, -r9, asr #6]
    1510:	34200000 	strtcc	r0, [r0], #-0
    1514:	3a0e0300 	bcc	38211c <__bss_end+0x37efa0>
    1518:	49053b0b 	stmdbmi	r5, {r0, r1, r3, r8, r9, fp, ip, sp}
    151c:	00170213 	andseq	r0, r7, r3, lsl r2
    1520:	82892100 	addhi	r2, r9, #0, 2
    1524:	01110001 	tsteq	r1, r1
    1528:	31194295 			; <UNDEFINED> instruction: 0x31194295
    152c:	22000013 	andcs	r0, r0, #19
    1530:	0e030034 	mcreq	0, 0, r0, cr3, cr4, {1}
    1534:	0b3b0b3a 	bleq	ec4224 <__bss_end+0xec10a8>
    1538:	18021349 	stmdane	r2, {r0, r3, r6, r8, r9, ip}
    153c:	2e230000 	cdpcs	0, 2, cr0, cr3, cr0, {0}
    1540:	3c193f00 	ldccc	15, cr3, [r9], {-0}
    1544:	030e6e19 	movweq	r6, #60953	; 0xee19
    1548:	3b0b3a0e 	blcc	2cfd88 <__bss_end+0x2ccc0c>
    154c:	0000000b 	andeq	r0, r0, fp

Disassembly of section .debug_aranges:

00000000 <.debug_aranges>:
   0:	00000014 	andeq	r0, r0, r4, lsl r0
   4:	00000002 	andeq	r0, r0, r2
   8:	00040000 	andeq	r0, r4, r0
	...
  18:	0000001c 	andeq	r0, r0, ip, lsl r0
  1c:	01c00002 	biceq	r0, r0, r2
  20:	00040000 	andeq	r0, r4, r0
  24:	00000000 	andeq	r0, r0, r0
  28:	00000030 	andeq	r0, r0, r0, lsr r0
  2c:	000000b0 	strheq	r0, [r0], -r0	; <UNPREDICTABLE>
	...
  38:	0000001c 	andeq	r0, r0, ip, lsl r0
  3c:	024d0002 	subeq	r0, sp, #2
  40:	00040000 	andeq	r0, r4, r0
  44:	00000000 	andeq	r0, r0, r0
  48:	000000e0 	andeq	r0, r0, r0, ror #1
  4c:	0000002c 	andeq	r0, r0, ip, lsr #32
	...
  58:	00000014 	andeq	r0, r0, r4, lsl r0
  5c:	03230002 			; <UNDEFINED> instruction: 0x03230002
  60:	00040000 	andeq	r0, r4, r0
	...
  70:	0000001c 	andeq	r0, r0, ip, lsl r0
  74:	038e0002 	orreq	r0, lr, #2
  78:	00040000 	andeq	r0, r4, r0
  7c:	00000000 	andeq	r0, r0, r0
  80:	0000010c 	andeq	r0, r0, ip, lsl #2
  84:	00000028 	andeq	r0, r0, r8, lsr #32
	...
  90:	00000014 	andeq	r0, r0, r4, lsl r0
  94:	04180002 	ldreq	r0, [r8], #-2
  98:	00040000 	andeq	r0, r4, r0
	...
  a8:	00000014 	andeq	r0, r0, r4, lsl r0
  ac:	04830002 	streq	r0, [r3], #2
  b0:	00040000 	andeq	r0, r4, r0
	...
  c0:	00000014 	andeq	r0, r0, r4, lsl r0
  c4:	04ee0002 	strbteq	r0, [lr], #2
  c8:	00040000 	andeq	r0, r4, r0
	...
  d8:	0000001c 	andeq	r0, r0, ip, lsl r0
  dc:	05590002 	ldrbeq	r0, [r9, #-2]
  e0:	00040000 	andeq	r0, r4, r0
  e4:	00000000 	andeq	r0, r0, r0
  e8:	00000134 	andeq	r0, r0, r4, lsr r1
  ec:	000002b8 			; <UNDEFINED> instruction: 0x000002b8
	...
  f8:	0000001c 	andeq	r0, r0, ip, lsl r0
  fc:	1d0e0002 	stcne	0, cr0, [lr, #-8]
 100:	00040000 	andeq	r0, r4, r0
 104:	00000000 	andeq	r0, r0, r0
 108:	000003ec 	andeq	r0, r0, ip, ror #7
 10c:	00000178 	andeq	r0, r0, r8, ror r1
	...
 118:	0000001c 	andeq	r0, r0, ip, lsl r0
 11c:	20060002 	andcs	r0, r6, r2
 120:	00040000 	andeq	r0, r4, r0
 124:	00000000 	andeq	r0, r0, r0
 128:	00000564 	andeq	r0, r0, r4, ror #10
 12c:	00000200 	andeq	r0, r0, r0, lsl #4
	...
 138:	0000001c 	andeq	r0, r0, ip, lsl r0
 13c:	25270002 	strcs	r0, [r7, #-2]!
 140:	00040000 	andeq	r0, r4, r0
 144:	00000000 	andeq	r0, r0, r0
 148:	00000780 	andeq	r0, r0, r0, lsl #15
 14c:	000000e0 	andeq	r0, r0, r0, ror #1
	...
 158:	0000001c 	andeq	r0, r0, ip, lsl r0
 15c:	26880002 	strcs	r0, [r8], r2
 160:	00040000 	andeq	r0, r4, r0
 164:	00000000 	andeq	r0, r0, r0
 168:	00000860 	andeq	r0, r0, r0, ror #16
 16c:	00000550 	andeq	r0, r0, r0, asr r5
	...
 178:	0000001c 	andeq	r0, r0, ip, lsl r0
 17c:	27120002 	ldrcs	r0, [r2, -r2]
 180:	00040000 	andeq	r0, r4, r0
 184:	00000000 	andeq	r0, r0, r0
 188:	00000db0 			; <UNDEFINED> instruction: 0x00000db0
 18c:	000007ac 	andeq	r0, r0, ip, lsr #15
	...
 198:	0000001c 	andeq	r0, r0, ip, lsl r0
 19c:	2d280002 	stccs	0, cr0, [r8, #-8]!
 1a0:	00040000 	andeq	r0, r4, r0
 1a4:	00000000 	andeq	r0, r0, r0
 1a8:	0000155c 	andeq	r1, r0, ip, asr r5
 1ac:	000004c8 	andeq	r0, r0, r8, asr #9
	...
 1b8:	0000001c 	andeq	r0, r0, ip, lsl r0
 1bc:	43380002 	teqmi	r8, #2
 1c0:	00040000 	andeq	r0, r4, r0
 1c4:	00000000 	andeq	r0, r0, r0
 1c8:	00001a24 	andeq	r1, r0, r4, lsr #20
 1cc:	00000850 	andeq	r0, r0, r0, asr r8
	...
 1d8:	0000001c 	andeq	r0, r0, ip, lsl r0
 1dc:	4cd60002 	ldclmi	0, cr0, [r6], {2}
 1e0:	00040000 	andeq	r0, r4, r0
 1e4:	00000000 	andeq	r0, r0, r0
 1e8:	00002274 	andeq	r2, r0, r4, ror r2
 1ec:	000001dc 	ldrdeq	r0, [r0], -ip
	...
 1f8:	0000001c 	andeq	r0, r0, ip, lsl r0
 1fc:	4d5c0002 	ldclmi	0, cr0, [ip, #-8]
 200:	00040000 	andeq	r0, r4, r0
 204:	00000000 	andeq	r0, r0, r0
 208:	00002450 	andeq	r2, r0, r0, asr r4
 20c:	00000060 	andeq	r0, r0, r0, rrx
	...
 218:	0000001c 	andeq	r0, r0, ip, lsl r0
 21c:	4e7e0002 	cdpmi	0, 7, cr0, cr14, cr2, {0}
 220:	00040000 	andeq	r0, r4, r0
 224:	00000000 	andeq	r0, r0, r0
 228:	000024b0 			; <UNDEFINED> instruction: 0x000024b0
 22c:	00000180 	andeq	r0, r0, r0, lsl #3
	...
 238:	0000001c 	andeq	r0, r0, ip, lsl r0
 23c:	517d0002 	cmnpl	sp, r2
 240:	00040000 	andeq	r0, r4, r0
 244:	00000000 	andeq	r0, r0, r0
 248:	00002630 	andeq	r2, r0, r0, lsr r6
 24c:	00000058 	andeq	r0, r0, r8, asr r0
	...
 258:	0000001c 	andeq	r0, r0, ip, lsl r0
 25c:	529e0002 	addspl	r0, lr, #2
 260:	00040000 	andeq	r0, r4, r0
 264:	00000000 	andeq	r0, r0, r0
 268:	00002688 	andeq	r2, r0, r8, lsl #13
 26c:	000001e0 	andeq	r0, r0, r0, ror #3
	...
 278:	00000014 	andeq	r0, r0, r4, lsl r0
 27c:	56e90002 	strbtpl	r0, [r9], r2
 280:	00040000 	andeq	r0, r4, r0
	...
 290:	00000014 	andeq	r0, r0, r4, lsl r0
 294:	57540002 	ldrbpl	r0, [r4, -r2]
 298:	00040000 	andeq	r0, r4, r0
	...
 2a8:	0000001c 	andeq	r0, r0, ip, lsl r0
 2ac:	57bf0002 	ldrpl	r0, [pc, r2]!
 2b0:	00040000 	andeq	r0, r4, r0
 2b4:	00000000 	andeq	r0, r0, r0
 2b8:	00002868 	andeq	r2, r0, r8, ror #16
 2bc:	000003a4 	andeq	r0, r0, r4, lsr #7
	...

Disassembly of section .debug_line:

00000000 <.debug_line>:
       0:	000000b8 	strheq	r0, [r0], -r8
       4:	00b20002 	adcseq	r0, r2, r2
       8:	01020000 	mrseq	r0, (UNDEF: 2)
       c:	000d0efb 	strdeq	r0, [sp], -fp
      10:	01010101 	tsteq	r1, r1, lsl #2
      14:	01000000 	mrseq	r0, (UNDEF: 0)
      18:	61010000 	mrsvs	r0, (UNDEF: 1)
      1c:	2f686372 	svccs	0x00686372
      20:	2f6d7261 	svccs	0x006d7261
      24:	6863616d 	stmdavs	r3!, {r0, r2, r3, r5, r6, r8, sp, lr}^
      28:	6e75732d 	cdpvs	3, 7, cr7, cr5, cr13, {1}
      2c:	702f6978 	eorvc	r6, pc, r8, ror r9	; <UNPREDICTABLE>
      30:	74732f6d 	ldrbtvc	r2, [r3], #-3949	; 0xfffff093
      34:	62646e61 	rsbvs	r6, r4, #1552	; 0x610
      38:	75732f79 	ldrbvc	r2, [r3, #-3961]!	; 0xfffff087
      3c:	2f726570 	svccs	0x00726570
      40:	75736572 	ldrbvc	r6, [r3, #-1394]!	; 0xfffffa8e
      44:	2e2f656d 	cfsh64cs	mvdx6, mvdx15, #61
      48:	002e2e2f 	eoreq	r2, lr, pc, lsr #28
      4c:	6c636e69 	stclvs	14, cr6, [r3], #-420	; 0xfffffe5c
      50:	2f656475 	svccs	0x00656475
      54:	756e696c 	strbvc	r6, [lr, #-2412]!	; 0xfffff694
      58:	6f702f78 	svcvs	0x00702f78
      5c:	00726577 	rsbseq	r6, r2, r7, ror r5
      60:	68637261 	stmdavs	r3!, {r0, r5, r6, r9, ip, sp, lr}^
      64:	6d72612f 	ldfvse	f6, [r2, #-188]!	; 0xffffff44
      68:	63616d2f 	cmnvs	r1, #3008	; 0xbc0
      6c:	75732d68 	ldrbvc	r2, [r3, #-3432]!	; 0xfffff298
      70:	2f69786e 	svccs	0x0069786e
      74:	732f6d70 			; <UNDEFINED> instruction: 0x732f6d70
      78:	646e6174 	strbtvs	r6, [lr], #-372	; 0xfffffe8c
      7c:	732f7962 			; <UNDEFINED> instruction: 0x732f7962
      80:	72657075 	rsbvc	r7, r5, #117	; 0x75
      84:	7365722f 	cmnvc	r5, #-268435454	; 0xf0000002
      88:	00656d75 	rsbeq	r6, r5, r5, ror sp
      8c:	70757300 	rsbsvc	r7, r5, r0, lsl #6
      90:	695f7265 	ldmdbvs	pc, {r0, r2, r5, r6, r9, ip, sp, lr}^	; <UNPREDICTABLE>
      94:	0100682e 	tsteq	r0, lr, lsr #16
      98:	78610000 	stmdavc	r1!, {}^	; <UNPREDICTABLE>
      9c:	65645f70 	strbvs	r5, [r4, #-3952]!	; 0xfffff090
      a0:	646e6570 	strbtvs	r6, [lr], #-1392	; 0xfffffa90
      a4:	0200682e 	andeq	r6, r0, #3014656	; 0x2e0000
      a8:	65720000 	ldrbvs	r0, [r2, #-0]!
      ac:	656d7573 	strbvs	r7, [sp, #-1395]!	; 0xfffffa8d
      b0:	6165685f 	cmnvs	r5, pc, asr r8
      b4:	00632e64 	rsbeq	r2, r3, r4, ror #28
      b8:	00000003 	andeq	r0, r0, r3
      bc:	00000091 	muleq	r0, r1, r0
      c0:	004c0002 	subeq	r0, ip, r2
      c4:	01020000 	mrseq	r0, (UNDEF: 2)
      c8:	000d0efb 	strdeq	r0, [sp], -fp
      cc:	01010101 	tsteq	r1, r1, lsl #2
      d0:	01000000 	mrseq	r0, (UNDEF: 0)
      d4:	61010000 	mrsvs	r0, (UNDEF: 1)
      d8:	2f686372 	svccs	0x00686372
      dc:	2f6d7261 	svccs	0x006d7261
      e0:	6863616d 	stmdavs	r3!, {r0, r2, r3, r5, r6, r8, sp, lr}^
      e4:	6e75732d 	cdpvs	3, 7, cr7, cr5, cr13, {1}
      e8:	702f6978 	eorvc	r6, pc, r8, ror r9	; <UNPREDICTABLE>
      ec:	74732f6d 	ldrbtvc	r2, [r3], #-3949	; 0xfffff093
      f0:	62646e61 	rsbvs	r6, r4, #1552	; 0x610
      f4:	75732f79 	ldrbvc	r2, [r3, #-3961]!	; 0xfffff087
      f8:	2f726570 	svccs	0x00726570
      fc:	75736572 	ldrbvc	r6, [r3, #-1394]!	; 0xfffffa8e
     100:	0000656d 	andeq	r6, r0, sp, ror #10
     104:	75736572 	ldrbvc	r6, [r3, #-1394]!	; 0xfffffa8e
     108:	2e31656d 	cdpcs	5, 3, cr6, cr1, cr13, {3}
     10c:	00010053 	andeq	r0, r1, r3, asr r0
     110:	05000000 	streq	r0, [r0, #-0]
     114:	00003002 	andeq	r3, r0, r2
     118:	00c30300 	sbceq	r0, r3, r0, lsl #6
     11c:	2f2f2f01 	svccs	0x002f2f01
     120:	2f332f2f 	svccs	0x00332f2f
     124:	302f2f2f 	eorcc	r2, pc, pc, lsr #30
     128:	2e21032f 	cdpcs	3, 2, cr0, cr1, cr15, {1}
     12c:	302f302f 	eorcc	r3, pc, pc, lsr #32
     130:	2f2f2f2f 	svccs	0x002f2f2f
     134:	2f2f2f32 	svccs	0x002f2f32
     138:	2f2f322f 	svccs	0x002f322f
     13c:	302f342f 	eorcc	r3, pc, pc, lsr #8
     140:	2f2f2f2f 	svccs	0x002f2f2f
     144:	03302f31 	teqeq	r0, #49, 30	; 0xc4
     148:	34362e54 	ldrtcc	r2, [r6], #-3668	; 0xfffff1ac
     14c:	01000202 	tsteq	r0, r2, lsl #4
     150:	00006f01 	andeq	r6, r0, r1, lsl #30
     154:	44000200 	strmi	r0, [r0], #-512	; 0xfffffe00
     158:	02000000 	andeq	r0, r0, #0
     15c:	0d0efb01 	vstreq	d15, [lr, #-4]
     160:	01010100 	mrseq	r0, (UNDEF: 17)
     164:	00000001 	andeq	r0, r0, r1
     168:	01000001 	tsteq	r0, r1
     16c:	68637261 	stmdavs	r3!, {r0, r5, r6, r9, ip, sp, lr}^
     170:	6d72612f 	ldfvse	f6, [r2, #-188]!	; 0xffffff44
     174:	63616d2f 	cmnvs	r1, #3008	; 0xbc0
     178:	75732d68 	ldrbvc	r2, [r3, #-3432]!	; 0xfffff298
     17c:	2f69786e 	svccs	0x0069786e
     180:	732f6d70 			; <UNDEFINED> instruction: 0x732f6d70
     184:	646e6174 	strbtvs	r6, [lr], #-372	; 0xfffffe8c
     188:	732f7962 			; <UNDEFINED> instruction: 0x732f7962
     18c:	72657075 	rsbvc	r7, r5, #117	; 0x75
     190:	6f630000 	svcvs	0x00630000
     194:	6e6f6d6d 	cdpvs	13, 6, cr6, cr15, cr13, {3}
     198:	0100632e 	tsteq	r0, lr, lsr #6
     19c:	00000000 	andeq	r0, r0, r0
     1a0:	00e00205 	rsceq	r0, r0, r5, lsl #4
     1a4:	23030000 	movwcs	r0, #12288	; 0x3000
     1a8:	004c1501 	subeq	r1, ip, r1, lsl #10
     1ac:	83020402 	movwhi	r0, #9218	; 0x2402
     1b0:	02040200 	andeq	r0, r4, #0, 4
     1b4:	0402002d 	streq	r0, [r2], #-45	; 0xffffffd3
     1b8:	02002f02 	andeq	r2, r0, #2, 30
     1bc:	022d0204 	eoreq	r0, sp, #4, 4	; 0x40000000
     1c0:	01010004 	tsteq	r1, r4
     1c4:	00000019 	andeq	r0, r0, r9, lsl r0
     1c8:	00130002 	andseq	r0, r3, r2
     1cc:	01020000 	mrseq	r0, (UNDEF: 2)
     1d0:	000d0efb 	strdeq	r0, [sp], -fp
     1d4:	01010101 	tsteq	r1, r1, lsl #2
     1d8:	01000000 	mrseq	r0, (UNDEF: 0)
     1dc:	00010000 	andeq	r0, r1, r0
     1e0:	00006700 	andeq	r6, r0, r0, lsl #14
     1e4:	49000200 	stmdbmi	r0, {r9}
     1e8:	02000000 	andeq	r0, r0, #0
     1ec:	0d0efb01 	vstreq	d15, [lr, #-4]
     1f0:	01010100 	mrseq	r0, (UNDEF: 17)
     1f4:	00000001 	andeq	r0, r0, r1
     1f8:	01000001 	tsteq	r0, r1
     1fc:	68637261 	stmdavs	r3!, {r0, r5, r6, r9, ip, sp, lr}^
     200:	6d72612f 	ldfvse	f6, [r2, #-188]!	; 0xffffff44
     204:	63616d2f 	cmnvs	r1, #3008	; 0xbc0
     208:	75732d68 	ldrbvc	r2, [r3, #-3432]!	; 0xfffff298
     20c:	2f69786e 	svccs	0x0069786e
     210:	732f6d70 			; <UNDEFINED> instruction: 0x732f6d70
     214:	646e6174 	strbtvs	r6, [lr], #-372	; 0xfffffe8c
     218:	732f7962 			; <UNDEFINED> instruction: 0x732f7962
     21c:	72657075 	rsbvc	r7, r5, #117	; 0x75
     220:	75730000 	ldrbvc	r0, [r3, #-0]!
     224:	5f726570 	svcpl	0x00726570
     228:	616c6564 	cmnvs	ip, r4, ror #10
     22c:	00532e79 	subseq	r2, r3, r9, ror lr
     230:	00000001 	andeq	r0, r0, r1
     234:	0c020500 	cfstr32eq	mvfx0, [r2], {-0}
     238:	03000001 	movweq	r0, #1
     23c:	2f2f010d 	svccs	0x002f010d
     240:	2f2f2f30 	svccs	0x002f2f30
     244:	022f302f 	eoreq	r3, pc, #47	; 0x2f
     248:	01010002 	tsteq	r1, r2
     24c:	00000019 	andeq	r0, r0, r9, lsl r0
     250:	00130002 	andseq	r0, r3, r2
     254:	01020000 	mrseq	r0, (UNDEF: 2)
     258:	000d0efb 	strdeq	r0, [sp], -fp
     25c:	01010101 	tsteq	r1, r1, lsl #2
     260:	01000000 	mrseq	r0, (UNDEF: 0)
     264:	00010000 	andeq	r0, r1, r0
     268:	00001900 	andeq	r1, r0, r0, lsl #18
     26c:	13000200 	movwne	r0, #512	; 0x200
     270:	02000000 	andeq	r0, r0, #0
     274:	0d0efb01 	vstreq	d15, [lr, #-4]
     278:	01010100 	mrseq	r0, (UNDEF: 17)
     27c:	00000001 	andeq	r0, r0, r1
     280:	01000001 	tsteq	r0, r1
     284:	00190000 	andseq	r0, r9, r0
     288:	00020000 	andeq	r0, r2, r0
     28c:	00000013 	andeq	r0, r0, r3, lsl r0
     290:	0efb0102 	cdpeq	1, 15, cr0, cr11, cr2, {0}
     294:	0101000d 	tsteq	r1, sp
     298:	00000101 	andeq	r0, r0, r1, lsl #2
     29c:	00000100 	andeq	r0, r0, r0, lsl #2
     2a0:	13000001 	movwne	r0, #1
     2a4:	02000002 	andeq	r0, r0, #2
     2a8:	00017100 	andeq	r7, r1, r0, lsl #2
     2ac:	fb010200 	blx	40ab6 <__bss_end+0x3d93a>
     2b0:	01000d0e 	tsteq	r0, lr, lsl #26
     2b4:	00010101 	andeq	r0, r1, r1, lsl #2
     2b8:	00010000 	andeq	r0, r1, r0
     2bc:	72610100 	rsbvc	r0, r1, #0, 2
     2c0:	612f6863 			; <UNDEFINED> instruction: 0x612f6863
     2c4:	6d2f6d72 	stcvs	13, cr6, [pc, #-456]!	; 104 <mem_memcpy+0x24>
     2c8:	2d686361 	stclcs	3, cr6, [r8, #-388]!	; 0xfffffe7c
     2cc:	786e7573 	stmdavc	lr!, {r0, r1, r4, r5, r6, r8, sl, ip, sp, lr}^
     2d0:	6d702f69 	ldclvs	15, cr2, [r0, #-420]!	; 0xfffffe5c
     2d4:	6174732f 	cmnvs	r4, pc, lsr #6
     2d8:	7962646e 	stmdbvc	r2!, {r1, r2, r3, r5, r6, sl, sp, lr}^
     2dc:	7075732f 	rsbsvc	r7, r5, pc, lsr #6
     2e0:	722f7265 	eorvc	r7, pc, #1342177286	; 0x50000006
     2e4:	6d757365 	ldclvs	3, cr7, [r5, #-404]!	; 0xfffffe6c
     2e8:	72610065 	rsbvc	r0, r1, #101	; 0x65
     2ec:	612f6863 			; <UNDEFINED> instruction: 0x612f6863
     2f0:	6d2f6d72 	stcvs	13, cr6, [pc, #-456]!	; 130 <loop2+0x18>
     2f4:	2d686361 	stclcs	3, cr6, [r8, #-388]!	; 0xfffffe7c
     2f8:	786e7573 	stmdavc	lr!, {r0, r1, r4, r5, r6, r8, sl, ip, sp, lr}^
     2fc:	6d702f69 	ldclvs	15, cr2, [r0, #-420]!	; 0xfffffe5c
     300:	6174732f 	cmnvs	r4, pc, lsr #6
     304:	7962646e 	stmdbvc	r2!, {r1, r2, r3, r5, r6, sl, sp, lr}^
     308:	7075732f 	rsbsvc	r7, r5, pc, lsr #6
     30c:	722f7265 	eorvc	r7, pc, #1342177286	; 0x50000006
     310:	6d757365 	ldclvs	3, cr7, [r5, #-404]!	; 0xfffffe6c
     314:	2f2e2f65 	svccs	0x002e2f65
     318:	2e2f2e2e 	cdpcs	14, 2, cr2, cr15, cr14, {1}
     31c:	2e2e2f2e 	cdpcs	15, 2, cr2, cr14, cr14, {1}
     320:	63726100 	cmnvs	r2, #0, 2
     324:	72612f68 	rsbvc	r2, r1, #104, 30	; 0x1a0
     328:	616d2f6d 	cmnvs	sp, sp, ror #30
     32c:	732d6863 			; <UNDEFINED> instruction: 0x732d6863
     330:	69786e75 	ldmdbvs	r8!, {r0, r2, r4, r5, r6, r9, sl, fp, sp, lr}^
     334:	2f6d702f 	svccs	0x006d702f
     338:	6e617473 	mcrvs	4, 3, r7, cr1, cr3, {3}
     33c:	2f796264 	svccs	0x00796264
     340:	65707573 	ldrbvs	r7, [r0, #-1395]!	; 0xfffffa8d
     344:	65722f72 	ldrbvs	r2, [r2, #-3954]!	; 0xfffff08e
     348:	656d7573 	strbvs	r7, [sp, #-1395]!	; 0xfffffa8d
     34c:	2e2f2e2f 	cdpcs	14, 2, cr2, cr15, cr15, {1}
     350:	6e69002e 	cdpvs	0, 6, cr0, cr9, cr14, {1}
     354:	64756c63 	ldrbtvs	r6, [r5], #-3171	; 0xfffff39d
     358:	696c2f65 	stmdbvs	ip!, {r0, r2, r5, r6, r8, r9, sl, fp, sp}^
     35c:	2f78756e 	svccs	0x0078756e
     360:	65776f70 	ldrbvs	r6, [r7, #-3952]!	; 0xfffff090
     364:	72000072 	andvc	r0, r0, #114	; 0x72
     368:	6d757365 	ldclvs	3, cr7, [r5, #-404]!	; 0xfffffe6c
     36c:	635f3165 	cmpvs	pc, #1073741849	; 0x40000019
     370:	7261705f 	rsbvc	r7, r1, #95	; 0x5f
     374:	00632e74 	rsbeq	r2, r3, r4, ror lr
     378:	70000001 	andvc	r0, r0, r1
     37c:	79745f6d 	ldmdbvc	r4!, {r0, r2, r3, r5, r6, r8, r9, sl, fp, ip, lr}^
     380:	2e736570 	mrccs	5, 3, r6, cr3, cr0, {3}
     384:	00020068 	andeq	r0, r2, r8, rrx
     388:	6d656d00 	stclvs	13, cr6, [r5, #-0]
     38c:	6d63635f 	stclvs	3, cr6, [r3, #-380]!	; 0xfffffe84
     390:	75732d75 	ldrbvc	r2, [r3, #-3445]!	; 0xfffff28b
     394:	7769386e 	strbvc	r3, [r9, -lr, ror #16]!
     398:	2e317035 	mrccs	0, 1, r7, cr1, cr5, {1}
     39c:	00020068 	andeq	r0, r2, r8, rrx
     3a0:	6d656d00 	stclvs	13, cr6, [r5, #-0]
     3a4:	6b6c635f 	blvs	1b19128 <__bss_end+0x1b15fac>
     3a8:	0200682e 	andeq	r6, r0, #3014656	; 0x2e0000
     3ac:	6d700000 	ldclvs	0, cr0, [r0, #-0]
     3b0:	0200682e 	andeq	r6, r0, #3014656	; 0x2e0000
     3b4:	6d700000 	ldclvs	0, cr0, [r0, #-0]
     3b8:	6265645f 	rsbvs	r6, r5, #1593835520	; 0x5f000000
     3bc:	682e6775 	stmdavs	lr!, {r0, r2, r4, r5, r6, r8, r9, sl, sp, lr}
     3c0:	00000200 	andeq	r0, r0, r0, lsl #4
     3c4:	5f6d656d 	svcpl	0x006d656d
     3c8:	2e757063 	cdpcs	0, 7, cr7, cr5, cr3, {3}
     3cc:	00020068 	andeq	r0, r2, r8, rrx
     3d0:	6d656d00 	stclvs	13, cr6, [r5, #-0]
     3d4:	6d69745f 	cfstrdvs	mvd7, [r9, #-380]!	; 0xfffffe84
     3d8:	2e676e69 	cdpcs	14, 6, cr6, cr7, cr9, {3}
     3dc:	00020068 	andeq	r0, r2, r8, rrx
     3e0:	6d656d00 	stclvs	13, cr6, [r5, #-0]
     3e4:	7265735f 	rsbvc	r7, r5, #2080374785	; 0x7c000001
     3e8:	2e6c6169 	powcsez	f6, f4, #1.0
     3ec:	00020068 	andeq	r0, r2, r8, rrx
     3f0:	6d656d00 	stclvs	13, cr6, [r5, #-0]
     3f4:	6972705f 	ldmdbvs	r2!, {r0, r1, r2, r3, r4, r6, ip, sp, lr}^
     3f8:	2e6b746e 	cdpcs	4, 6, cr7, cr11, cr14, {3}
     3fc:	00020068 	andeq	r0, r2, r8, rrx
     400:	6d6f6300 	stclvs	3, cr6, [pc, #-0]	; 408 <busy_waiting+0x1c>
     404:	2e6e6f6d 	cdpcs	15, 6, cr6, cr14, cr13, {3}
     408:	00030068 	andeq	r0, r3, r8, rrx
     40c:	70786100 	rsbsvc	r6, r8, r0, lsl #2
     410:	7065645f 	rsbvc	r6, r5, pc, asr r4
     414:	2e646e65 	cdpcs	14, 6, cr6, cr4, cr5, {3}
     418:	00040068 	andeq	r0, r4, r8, rrx
     41c:	05000000 	streq	r0, [r0, #-0]
     420:	00013402 	andeq	r3, r1, r2, lsl #8
     424:	013e0300 	teqeq	lr, r0, lsl #6
     428:	4a100330 	bmi	4010f0 <__bss_end+0x3fdf74>
     42c:	032e7103 			; <UNDEFINED> instruction: 0x032e7103
     430:	03342e09 	teqeq	r4, #9, 28	; 0x90
     434:	4b312e7a 	blmi	c4be24 <__bss_end+0xc48ca8>
     438:	6b4c2f4b 	blvs	130c16c <__bss_end+0x1308ff0>
     43c:	032e1503 			; <UNDEFINED> instruction: 0x032e1503
     440:	4b322e6b 	blmi	c8bdf4 <__bss_end+0xc88c78>
     444:	4a0a0350 	bmi	28118c <__bss_end+0x27e010>
     448:	362e7703 	strtcc	r7, [lr], -r3, lsl #14
     44c:	660c034b 	strvs	r0, [ip], -fp, asr #6
     450:	5703694b 	strpl	r6, [r3, -fp, asr #18]
     454:	821a034a 	andshi	r0, sl, #671088641	; 0x28000001
     458:	83839f67 	orrhi	r9, r3, #412	; 0x19c
     45c:	f42f2d4b 			; <UNDEFINED> instruction: 0xf42f2d4b
     460:	3c081403 	cfstrscc	mvf1, [r8], {3}
     464:	302e1303 	eorcc	r1, lr, r3, lsl #6
     468:	01040200 	mrseq	r0, R12_usr
     46c:	0b036dd8 	bleq	dbbd4 <__bss_end+0xd8a58>
     470:	4a750366 	bmi	1d41210 <__bss_end+0x1d3e094>
     474:	2a513030 	bcs	144c53c <__bss_end+0x14493c0>
     478:	68322a32 	ldmdavs	r2!, {r1, r4, r5, r9, fp, sp}
     47c:	660a034e 	strvs	r0, [sl], -lr, asr #6
     480:	0351524b 	cmpeq	r1, #-1342177276	; 0xb0000004
     484:	03352e79 	teqeq	r5, #1936	; 0x790
     488:	2f672e2a 	svccs	0x00672e2a
     48c:	00f9034d 	rscseq	r0, r9, sp, asr #6
     490:	2b315166 	blcs	c54a30 <__bss_end+0xc518b4>
     494:	2e090369 	cdpcs	3, 0, cr0, cr9, cr9, {3}
     498:	2e2d032f 	cdpcs	3, 2, cr0, cr13, cr15, {1}
     49c:	032e5303 			; <UNDEFINED> instruction: 0x032e5303
     4a0:	4b2e7efa 	blmi	ba0090 <__bss_end+0xb9cf14>
     4a4:	032fa031 			; <UNDEFINED> instruction: 0x032fa031
     4a8:	034b4a74 	movteq	r4, #47732	; 0xba74
     4ac:	2f827fb6 	svccs	0x00827fb6
     4b0:	2c302c68 	ldccs	12, cr2, [r0], #-416	; 0xfffffe60
     4b4:	00060230 	andeq	r0, r6, r0, lsr r2
     4b8:	00ec0101 	rsceq	r0, ip, r1, lsl #2
     4bc:	00020000 	andeq	r0, r2, r0
     4c0:	00000095 	muleq	r0, r5, r0
     4c4:	0efb0102 	cdpeq	1, 15, cr0, cr11, cr2, {0}
     4c8:	0101000d 	tsteq	r1, sp
     4cc:	00000101 	andeq	r0, r0, r1, lsl #2
     4d0:	00000100 	andeq	r0, r0, r0, lsl #2
     4d4:	63726101 	cmnvs	r2, #1073741824	; 0x40000000
     4d8:	72612f68 	rsbvc	r2, r1, #104, 30	; 0x1a0
     4dc:	616d2f6d 	cmnvs	sp, sp, ror #30
     4e0:	732d6863 			; <UNDEFINED> instruction: 0x732d6863
     4e4:	69786e75 	ldmdbvs	r8!, {r0, r2, r4, r5, r6, r9, sl, fp, sp, lr}^
     4e8:	2f6d702f 	svccs	0x006d702f
     4ec:	6e617473 	mcrvs	4, 3, r7, cr1, cr3, {3}
     4f0:	2f796264 	svccs	0x00796264
     4f4:	69002e2e 	stmdbvs	r0, {r1, r2, r3, r5, r9, sl, fp, sp}
     4f8:	756c636e 	strbvc	r6, [ip, #-878]!	; 0xfffffc92
     4fc:	6c2f6564 	cfstr32vs	mvfx6, [pc], #-400	; 374 <set_pll+0xf4>
     500:	78756e69 	ldmdavc	r5!, {r0, r3, r5, r6, r9, sl, fp, sp, lr}^
     504:	776f702f 	strbvc	r7, [pc, -pc, lsr #32]!
     508:	00007265 	andeq	r7, r0, r5, ror #4
     50c:	645f6d70 	ldrbvs	r6, [pc], #-3440	; 514 <io_init_high+0x14>
     510:	67756265 	ldrbvs	r6, [r5, -r5, ror #4]!
     514:	0100632e 	tsteq	r0, lr, lsr #6
     518:	656d0000 	strbvs	r0, [sp, #-0]!
     51c:	72705f6d 	rsbsvc	r5, r0, #436	; 0x1b4
     520:	6b746e69 	blvs	1d1becc <__bss_end+0x1d18d50>
     524:	0100682e 	tsteq	r0, lr, lsr #16
     528:	656d0000 	strbvs	r0, [sp, #-0]!
     52c:	69745f6d 	ldmdbvs	r4!, {r0, r2, r3, r5, r6, r8, r9, sl, fp, ip, lr}^
     530:	676e696d 	strbvs	r6, [lr, -sp, ror #18]!
     534:	0100682e 	tsteq	r0, lr, lsr #16
     538:	6d700000 	ldclvs	0, cr0, [r0, #-0]
     53c:	7079745f 	rsbsvc	r7, r9, pc, asr r4
     540:	682e7365 	stmdavs	lr!, {r0, r2, r5, r6, r8, r9, ip, sp, lr}
     544:	00000100 	andeq	r0, r0, r0, lsl #2
     548:	5f707861 	svcpl	0x00707861
     54c:	65706564 	ldrbvs	r6, [r0, #-1380]!	; 0xfffffa9c
     550:	682e646e 	stmdavs	lr!, {r1, r2, r3, r5, r6, sl, sp, lr}
     554:	00000200 	andeq	r0, r0, r0, lsl #4
     558:	02050000 	andeq	r0, r5, #0
     55c:	000003ec 	andeq	r0, r0, ip, ror #7
     560:	30011603 	andcc	r1, r1, r3, lsl #12
     564:	01040200 	mrseq	r0, R12_usr
     568:	aa036a4b 	bge	dae9c <__bss_end+0xd7d20>
     56c:	fa16ba01 	blx	5aed78 <__bss_end+0x5abbfc>
     570:	492f0133 	stmdbmi	pc!, {r0, r1, r4, r5, r8}	; <UNPREDICTABLE>
     574:	302f4b2f 	eorcc	r4, pc, pc, lsr #22
     578:	3167134d 	cmncc	r7, sp, asr #6
     57c:	312b312e 			; <UNDEFINED> instruction: 0x312b312e
     580:	314fb92f 	cmpcc	pc, pc, lsr #18
     584:	4c2f2d2f 	stcmi	13, cr2, [pc], #-188	; 4d0 <save_cpux_mem_status_nommu+0x4>
     588:	2f2d2f4d 	svccs	0x002d2f4d
     58c:	4a09034c 	bmi	2412c4 <__bss_end+0x23e148>
     590:	6716c014 			; <UNDEFINED> instruction: 0x6716c014
     594:	6815502f 	ldmdavs	r5, {r0, r1, r2, r3, r5, ip, lr}
     598:	4a09032f 	bmi	24125c <__bss_end+0x23e0e0>
     59c:	32484c30 	subcc	r4, r8, #48, 24	; 0x3000
     5a0:	302f2f2c 	eorcc	r2, pc, ip, lsr #30
     5a4:	0004022f 	andeq	r0, r4, pc, lsr #4
     5a8:	013f0101 	teqeq	pc, r1, lsl #2
     5ac:	00020000 	andeq	r0, r2, r0
     5b0:	000000c7 	andeq	r0, r0, r7, asr #1
     5b4:	0efb0102 	cdpeq	1, 15, cr0, cr11, cr2, {0}
     5b8:	0101000d 	tsteq	r1, sp
     5bc:	00000101 	andeq	r0, r0, r1, lsl #2
     5c0:	00000100 	andeq	r0, r0, r0, lsl #2
     5c4:	63726101 	cmnvs	r2, #1073741824	; 0x40000000
     5c8:	72612f68 	rsbvc	r2, r1, #104, 30	; 0x1a0
     5cc:	616d2f6d 	cmnvs	sp, sp, ror #30
     5d0:	732d6863 			; <UNDEFINED> instruction: 0x732d6863
     5d4:	69786e75 	ldmdbvs	r8!, {r0, r2, r4, r5, r6, r9, sl, fp, sp, lr}^
     5d8:	2f6d702f 	svccs	0x006d702f
     5dc:	6e617473 	mcrvs	4, 3, r7, cr1, cr3, {3}
     5e0:	2f796264 	svccs	0x00796264
     5e4:	61002e2e 	tstvs	r0, lr, lsr #28
     5e8:	2f686372 	svccs	0x00686372
     5ec:	2f6d7261 	svccs	0x006d7261
     5f0:	6863616d 	stmdavs	r3!, {r0, r2, r3, r5, r6, r8, sp, lr}^
     5f4:	6e75732d 	cdpvs	3, 7, cr7, cr5, cr13, {1}
     5f8:	702f6978 	eorvc	r6, pc, r8, ror r9	; <UNPREDICTABLE>
     5fc:	74732f6d 	ldrbtvc	r2, [r3], #-3949	; 0xfffff093
     600:	62646e61 	rsbvs	r6, r4, #1552	; 0x610
     604:	2e2e2f79 	mcrcs	15, 1, r2, cr14, cr9, {3}
     608:	69002e2f 	stmdbvs	r0, {r0, r1, r2, r3, r5, r9, sl, fp, sp}
     60c:	756c636e 	strbvc	r6, [ip, #-878]!	; 0xfffffc92
     610:	6c2f6564 	cfstr32vs	mvfx6, [pc], #-400	; 488 <show_mem_status+0x10>
     614:	78756e69 	ldmdavc	r5!, {r0, r3, r5, r6, r9, sl, fp, sp, lr}^
     618:	776f702f 	strbvc	r7, [pc, -pc, lsr #32]!
     61c:	00007265 	andeq	r7, r0, r5, ror #4
     620:	5f6d656d 	svcpl	0x006d656d
     624:	696d6974 	stmdbvs	sp!, {r2, r4, r5, r6, r8, fp, sp, lr}^
     628:	632e676e 			; <UNDEFINED> instruction: 0x632e676e
     62c:	00000100 	andeq	r0, r0, r0, lsl #2
     630:	745f6d70 	ldrbvc	r6, [pc], #-3440	; 638 <delay_us+0x20>
     634:	73657079 	cmnvc	r5, #121	; 0x79
     638:	0100682e 	tsteq	r0, lr, lsr #16
     63c:	6d700000 	ldclvs	0, cr0, [r0, #-0]
     640:	6265645f 	rsbvs	r6, r5, #1593835520	; 0x5f000000
     644:	682e6775 	stmdavs	lr!, {r0, r2, r4, r5, r6, r8, r9, sl, sp, lr}
     648:	00000200 	andeq	r0, r0, r0, lsl #4
     64c:	5f707861 	svcpl	0x00707861
     650:	65706564 	ldrbvs	r6, [r0, #-1380]!	; 0xfffffa9c
     654:	682e646e 	stmdavs	lr!, {r1, r2, r3, r5, r6, sl, sp, lr}
     658:	00000300 	andeq	r0, r0, r0, lsl #6
     65c:	5f6d656d 	svcpl	0x006d656d
     660:	2e6b6c63 	cdpcs	12, 6, cr6, cr11, cr3, {3}
     664:	00020068 	andeq	r0, r2, r8, rrx
     668:	6d656d00 	stclvs	13, cr6, [r5, #-0]
     66c:	7669645f 			; <UNDEFINED> instruction: 0x7669645f
     670:	6362696c 	cmnvs	r2, #108, 18	; 0x1b0000
     674:	0200682e 	andeq	r6, r0, #3014656	; 0x2e0000
     678:	00000000 	andeq	r0, r0, r0
     67c:	05640205 	strbeq	r0, [r4, #-517]!	; 0xfffffdfb
     680:	17030000 	strne	r0, [r3, -r0]
     684:	2f691a01 	svccs	0x00691a01
     688:	2f4d4e33 	svccs	0x004d4e33
     68c:	8514502f 	ldrhi	r5, [r4, #-47]	; 0xffffffd1
     690:	6b85156b 	blvs	fe145c44 <__bss_end+0xfe142ac8>
     694:	15313015 	ldrne	r3, [r1, #-21]!	; 0xffffffeb
     698:	70036a32 	andvc	r6, r3, r2, lsr sl
     69c:	4a19032e 	bmi	64135c <__bss_end+0x63e1e0>
     6a0:	03366dbc 	teqeq	r6, #188, 26	; 0x2f00
     6a4:	2f2f9e32 	svccs	0x002f9e32
     6a8:	034a4d03 	movteq	r4, #44291	; 0xad03
     6ac:	32036655 	andcc	r6, r3, #89128960	; 0x5500000
     6b0:	032f852e 			; <UNDEFINED> instruction: 0x032f852e
     6b4:	4e667fa3 	cdpmi	15, 6, cr7, cr6, cr3, {5}
     6b8:	032f2f4d 			; <UNDEFINED> instruction: 0x032f2f4d
     6bc:	032e00d8 			; <UNDEFINED> instruction: 0x032e00d8
     6c0:	3a036646 	bcc	d9fe0 <__bss_end+0xd6e64>
     6c4:	822b032e 	eorhi	r0, fp, #-1207959552	; 0xb8000000
     6c8:	2f2e2d13 	svccs	0x002e2d13
     6cc:	4f492d30 	svcmi	0x00492d30
     6d0:	20032c4c 	andcs	r2, r3, ip, asr #24
     6d4:	2f691a2e 	svccs	0x00691a2e
     6d8:	504d4e33 	subpl	r4, sp, r3, lsr lr
     6dc:	30316c66 	eorscc	r6, r1, r6, ror #24
     6e0:	6c66512f 	stfvse	f5, [r6], #-188	; 0xffffff44
     6e4:	312f3031 			; <UNDEFINED> instruction: 0x312f3031
     6e8:	01000202 	tsteq	r0, r2, lsl #4
     6ec:	0000b801 	andeq	fp, r0, r1, lsl #16
     6f0:	7f000200 	svcvc	0x00000200
     6f4:	02000000 	andeq	r0, r0, #0
     6f8:	0d0efb01 	vstreq	d15, [lr, #-4]
     6fc:	01010100 	mrseq	r0, (UNDEF: 17)
     700:	00000001 	andeq	r0, r0, r1
     704:	01000001 	tsteq	r0, r1
     708:	68637261 	stmdavs	r3!, {r0, r5, r6, r9, ip, sp, lr}^
     70c:	6d72612f 	ldfvse	f6, [r2, #-188]!	; 0xffffff44
     710:	63616d2f 	cmnvs	r1, #3008	; 0xbc0
     714:	75732d68 	ldrbvc	r2, [r3, #-3432]!	; 0xfffff298
     718:	2f69786e 	svccs	0x0069786e
     71c:	732f6d70 			; <UNDEFINED> instruction: 0x732f6d70
     720:	646e6174 	strbtvs	r6, [lr], #-372	; 0xfffffe8c
     724:	2e2f7962 	cdpcs	9, 2, cr7, cr15, cr2, {3}
     728:	7261002e 	rsbvc	r0, r1, #46	; 0x2e
     72c:	612f6863 			; <UNDEFINED> instruction: 0x612f6863
     730:	6d2f6d72 	stcvs	13, cr6, [pc, #-456]!	; 570 <init_perfcounters+0xc>
     734:	2d686361 	stclcs	3, cr6, [r8, #-388]!	; 0xfffffe7c
     738:	786e7573 	stmdavc	lr!, {r0, r1, r4, r5, r6, r8, sl, ip, sp, lr}^
     73c:	6d702f69 	ldclvs	15, cr2, [r0, #-420]!	; 0xfffffe5c
     740:	6174732f 	cmnvs	r4, pc, lsr #6
     744:	7962646e 	stmdbvc	r2!, {r1, r2, r3, r5, r6, sl, sp, lr}^
     748:	2f2e2e2f 	svccs	0x002e2e2f
     74c:	6d00002e 	stcvs	0, cr0, [r0, #-184]	; 0xffffff48
     750:	6d5f6d65 	ldclvs	13, cr6, [pc, #-404]	; 5c4 <restore_perfcounter+0x10>
     754:	705f756d 	subsvc	r7, pc, sp, ror #10
     758:	00632e63 	rsbeq	r2, r3, r3, ror #28
     75c:	70000001 	andvc	r0, r0, r1
     760:	00682e6d 	rsbeq	r2, r8, sp, ror #28
     764:	70000002 	andvc	r0, r0, r2
     768:	79745f6d 	ldmdbvc	r4!, {r0, r2, r3, r5, r6, r8, r9, sl, fp, ip, lr}^
     76c:	2e736570 	mrccs	5, 3, r6, cr3, cr0, {3}
     770:	00010068 	andeq	r0, r1, r8, rrx
     774:	05000000 	streq	r0, [r0, #-0]
     778:	00078002 	andeq	r8, r7, r2
     77c:	01120300 	tsteq	r2, r0, lsl #6
     780:	4f4d4c14 	svcmi	0x004d4c14
     784:	6b4d4b4b 	blvs	13534b8 <__bss_end+0x135033c>
     788:	4e4c4c16 	mcrmi	12, 2, r4, cr12, cr6, {0}
     78c:	4c4e4b4b 	mcrrmi	11, 4, r4, lr, cr11
     790:	4e2f2f2f 	cdpmi	15, 2, cr2, cr15, cr15, {1}
     794:	4e4c4c16 	mcrmi	12, 2, r4, cr12, cr6, {0}
     798:	674b2f4b 	strbvs	r2, [fp, -fp, asr #30]
     79c:	32131313 	andscc	r1, r3, #1275068416	; 0x4c000000
     7a0:	2f2f2f4c 	svccs	0x002f2f4c
     7a4:	01000402 	tsteq	r0, r2, lsl #8
     7a8:	0001b001 	andeq	fp, r1, r1
     7ac:	49000200 	stmdbmi	r0, {r9}
     7b0:	02000000 	andeq	r0, r0, #0
     7b4:	0d0efb01 	vstreq	d15, [lr, #-4]
     7b8:	01010100 	mrseq	r0, (UNDEF: 17)
     7bc:	00000001 	andeq	r0, r0, r1
     7c0:	01000001 	tsteq	r0, r1
     7c4:	68637261 	stmdavs	r3!, {r0, r5, r6, r9, ip, sp, lr}^
     7c8:	6d72612f 	ldfvse	f6, [r2, #-188]!	; 0xffffff44
     7cc:	63616d2f 	cmnvs	r1, #3008	; 0xbc0
     7d0:	75732d68 	ldrbvc	r2, [r3, #-3432]!	; 0xfffff298
     7d4:	2f69786e 	svccs	0x0069786e
     7d8:	732f6d70 			; <UNDEFINED> instruction: 0x732f6d70
     7dc:	646e6174 	strbtvs	r6, [lr], #-372	; 0xfffffe8c
     7e0:	2e2f7962 	cdpcs	9, 2, cr7, cr15, cr2, {3}
     7e4:	6d00002e 	stcvs	0, cr0, [r0, #-184]	; 0xffffff48
     7e8:	6d5f6d65 	ldclvs	13, cr6, [pc, #-404]	; 65c <delay_us+0x44>
     7ec:	705f756d 	subsvc	r7, pc, sp, ror #10
     7f0:	73615f63 	cmnvc	r1, #396	; 0x18c
     7f4:	00532e6d 	subseq	r2, r3, sp, ror #28
     7f8:	00000001 	andeq	r0, r0, r1
     7fc:	60020500 	andvs	r0, r2, r0, lsl #10
     800:	03000008 	movweq	r0, #8
     804:	2f2f010a 	svccs	0x002f010a
     808:	332f2f33 			; <UNDEFINED> instruction: 0x332f2f33
     80c:	6b2f332f 	blvs	bcd4d0 <__bss_end+0xbca354>
     810:	1303302f 	movwne	r3, #12335	; 0x302f
     814:	2f2f2f4a 	svccs	0x002f2f4a
     818:	2f302f2f 	svccs	0x00302f2f
     81c:	2f2f2f2f 	svccs	0x002f2f2f
     820:	2f2f2f2f 	svccs	0x002f2f2f
     824:	2f2f2f2f 	svccs	0x002f2f2f
     828:	2f30302f 	svccs	0x0030302f
     82c:	2f2f2f2f 	svccs	0x002f2f2f
     830:	2f2f302f 	svccs	0x002f302f
     834:	2f2f3030 	svccs	0x002f3030
     838:	2f2f3330 	svccs	0x002f3330
     83c:	332f2f2f 			; <UNDEFINED> instruction: 0x332f2f2f
     840:	2f2f2f2f 	svccs	0x002f2f2f
     844:	2f302f2f 	svccs	0x00302f2f
     848:	2f2f2f2f 	svccs	0x002f2f2f
     84c:	2f2f2f2f 	svccs	0x002f2f2f
     850:	2f2f2f2f 	svccs	0x002f2f2f
     854:	2f30302f 	svccs	0x0030302f
     858:	2f2f2f2f 	svccs	0x002f2f2f
     85c:	2f2f302f 	svccs	0x002f302f
     860:	2f2f3030 	svccs	0x002f3030
     864:	2f342f2f 	svccs	0x00342f2f
     868:	2f2f2f2f 	svccs	0x002f2f2f
     86c:	332f2f2f 			; <UNDEFINED> instruction: 0x332f2f2f
     870:	2f2f2f2f 	svccs	0x002f2f2f
     874:	332f2f2f 			; <UNDEFINED> instruction: 0x332f2f2f
     878:	2f2f2f2f 	svccs	0x002f2f2f
     87c:	2f332f2f 	svccs	0x00332f2f
     880:	2f2f2f2f 	svccs	0x002f2f2f
     884:	2f2f342f 	svccs	0x002f342f
     888:	2f2f2f2f 	svccs	0x002f2f2f
     88c:	2f2f2f33 	svccs	0x002f2f33
     890:	2f2f2f2f 	svccs	0x002f2f2f
     894:	2f2f2f33 	svccs	0x002f2f33
     898:	032f2f2f 			; <UNDEFINED> instruction: 0x032f2f2f
     89c:	2f2f2e0a 	svccs	0x002f2e0a
     8a0:	342f2f2f 	strtcc	r2, [pc], #-3887	; 8a8 <invalidate_dcache+0x8>
     8a4:	2f2f2f2f 	svccs	0x002f2f2f
     8a8:	2f332f2f 	svccs	0x00332f2f
     8ac:	2f2f2f2f 	svccs	0x002f2f2f
     8b0:	2e09032f 	cdpcs	3, 0, cr0, cr9, cr15, {1}
     8b4:	3030302f 	eorscc	r3, r0, pc, lsr #32
     8b8:	2f2f2f2f 	svccs	0x002f2f2f
     8bc:	2f2f3033 	svccs	0x002f3033
     8c0:	2f2f2f2f 	svccs	0x002f2f2f
     8c4:	2f2f312f 	svccs	0x002f312f
     8c8:	2f2f2f2f 	svccs	0x002f2f2f
     8cc:	2f2f2f2f 	svccs	0x002f2f2f
     8d0:	2f2f2f2f 	svccs	0x002f2f2f
     8d4:	2f2f2f2f 	svccs	0x002f2f2f
     8d8:	2f2f2f2f 	svccs	0x002f2f2f
     8dc:	2f2f2f2f 	svccs	0x002f2f2f
     8e0:	2f2f2f2f 	svccs	0x002f2f2f
     8e4:	2f2f2f2f 	svccs	0x002f2f2f
     8e8:	2f2f2f2f 	svccs	0x002f2f2f
     8ec:	2f2f302f 	svccs	0x002f302f
     8f0:	2f2f2f2f 	svccs	0x002f2f2f
     8f4:	2f2f2f2f 	svccs	0x002f2f2f
     8f8:	312f2f2f 			; <UNDEFINED> instruction: 0x312f2f2f
     8fc:	032f302f 			; <UNDEFINED> instruction: 0x032f302f
     900:	2f2f2e0a 	svccs	0x002f2e0a
     904:	2f30c02f 	svccs	0x0030c02f
     908:	2f34302f 	svccs	0x0034302f
     90c:	30f82f2f 	rscscc	r2, r8, pc, lsr #30
     910:	03302f2f 	teqeq	r0, #47, 30	; 0xbc
     914:	2f2f2e0d 	svccs	0x002f2e0d
     918:	820c0330 	andhi	r0, ip, #48, 6	; 0xc0000000
     91c:	2f2f2f2f 	svccs	0x002f2f2f
     920:	2f502f2f 	svccs	0x00502f2f
     924:	302f2f6d 	eorcc	r2, pc, sp, ror #30
     928:	302f2f30 	eorcc	r2, pc, r0, lsr pc	; <UNPREDICTABLE>
     92c:	a403302f 	strge	r3, [r3], #-47	; 0xffffffd1
     930:	03352e7c 	teqeq	r5, #124, 28	; 0x7c0
     934:	03312e39 	teqeq	r1, #912	; 0x390
     938:	302e01e8 	eorcc	r0, lr, r8, ror #3
     93c:	30303230 	eorscc	r3, r0, r0, lsr r2
     940:	30303030 	eorscc	r3, r0, r0, lsr r0
     944:	30303030 	eorscc	r3, r0, r0, lsr r0
     948:	30303030 	eorscc	r3, r0, r0, lsr r0
     94c:	30303030 	eorscc	r3, r0, r0, lsr r0
     950:	30303130 	eorscc	r3, r0, r0, lsr r1
     954:	30303030 	eorscc	r3, r0, r0, lsr r0
     958:	01000202 	tsteq	r0, r2, lsl #4
     95c:	00013b01 	andeq	r3, r1, r1, lsl #22
     960:	a5000200 	strge	r0, [r0, #-512]	; 0xfffffe00
     964:	02000000 	andeq	r0, r0, #0
     968:	0d0efb01 	vstreq	d15, [lr, #-4]
     96c:	01010100 	mrseq	r0, (UNDEF: 17)
     970:	00000001 	andeq	r0, r0, r1
     974:	01000001 	tsteq	r0, r1
     978:	68637261 	stmdavs	r3!, {r0, r5, r6, r9, ip, sp, lr}^
     97c:	6d72612f 	ldfvse	f6, [r2, #-188]!	; 0xffffff44
     980:	63616d2f 	cmnvs	r1, #3008	; 0xbc0
     984:	75732d68 	ldrbvc	r2, [r3, #-3432]!	; 0xfffff298
     988:	2f69786e 	svccs	0x0069786e
     98c:	732f6d70 			; <UNDEFINED> instruction: 0x732f6d70
     990:	646e6174 	strbtvs	r6, [lr], #-372	; 0xfffffe8c
     994:	2e2f7962 	cdpcs	9, 2, cr7, cr15, cr2, {3}
     998:	7261002e 	rsbvc	r0, r1, #46	; 0x2e
     99c:	612f6863 			; <UNDEFINED> instruction: 0x612f6863
     9a0:	6d2f6d72 	stcvs	13, cr6, [pc, #-456]!	; 7e0 <restore_secure_mmu_state+0x24>
     9a4:	2d686361 	stclcs	3, cr6, [r8, #-388]!	; 0xfffffe7c
     9a8:	786e7573 	stmdavc	lr!, {r0, r1, r4, r5, r6, r8, sl, ip, sp, lr}^
     9ac:	6d702f69 	ldclvs	15, cr2, [r0, #-420]!	; 0xfffffe5c
     9b0:	6174732f 	cmnvs	r4, pc, lsr #6
     9b4:	7962646e 	stmdbvc	r2!, {r1, r2, r3, r5, r6, sl, sp, lr}^
     9b8:	2f2e2e2f 	svccs	0x002e2e2f
     9bc:	6e69002e 	cdpvs	0, 6, cr0, cr9, cr14, {1}
     9c0:	64756c63 	ldrbtvs	r6, [r5], #-3171	; 0xfffff39d
     9c4:	696c2f65 	stmdbvs	ip!, {r0, r2, r5, r6, r8, r9, sl, fp, sp}^
     9c8:	2f78756e 	svccs	0x0078756e
     9cc:	65776f70 	ldrbvs	r6, [r7, #-3952]!	; 0xfffff090
     9d0:	6d000072 	stcvs	0, cr0, [r0, #-456]	; 0xfffffe38
     9d4:	635f6d65 	cmpvs	pc, #6464	; 0x1940
     9d8:	632e7570 			; <UNDEFINED> instruction: 0x632e7570
     9dc:	00000100 	andeq	r0, r0, r0, lsl #2
     9e0:	5f6d656d 	svcpl	0x006d656d
     9e4:	2e757063 	cdpcs	0, 7, cr7, cr5, cr3, {3}
     9e8:	00020068 	andeq	r0, r2, r8, rrx
     9ec:	5f6d7000 	svcpl	0x006d7000
     9f0:	65707974 	ldrbvs	r7, [r0, #-2420]!	; 0xfffff68c
     9f4:	00682e73 	rsbeq	r2, r8, r3, ror lr
     9f8:	61000001 	tstvs	r0, r1
     9fc:	645f7078 	ldrbvs	r7, [pc], #-120	; a04 <flush_icache+0x1c>
     a00:	6e657065 	cdpvs	0, 6, cr7, cr5, cr5, {3}
     a04:	00682e64 	rsbeq	r2, r8, r4, ror #28
     a08:	00000003 	andeq	r0, r0, r3
     a0c:	b0020500 	andlt	r0, r2, r0, lsl #10
     a10:	0300000d 	movweq	r0, #13
     a14:	1601018a 	strne	r0, [r1], -sl, lsl #3
     a18:	f3f21003 	vswp	d17, d3
     a1c:	f6f3f3f8 			; <UNDEFINED> instruction: 0xf6f3f3f8
     a20:	f3f3f3f6 	vrsra.u64	<illegal reg q15.5>, q11, #13
     a24:	f6f6f3f6 			; <UNDEFINED> instruction: 0xf6f6f3f6
     a28:	03f3f3f3 	mvnseq	pc, #-872415229	; 0xcc000003
     a2c:	f3f3f20b 	vsubl.u<illegal width 64>	<illegal reg q15.5>, d3, d11
     a30:	f3f3f3f3 	vrsra.u64	<illegal reg q15.5>, <illegal reg q9.5>, #13
     a34:	f3f21403 	vraddhn.i<illegal width 128>	d17, q1, <illegal reg q1.5>
     a38:	03f21703 	mvnseq	r1, #786432	; 0xc0000
     a3c:	f3f3f209 	vsubl.u<illegal width 64>	<illegal reg q15.5>, d3, d9
     a40:	080d03f3 	stmdaeq	sp, {r0, r1, r4, r5, r6, r7, r8, r9}
     a44:	0e031420 	cfcpydeq	mvd1, mvd3
     a48:	2ff3f6f2 	svccs	0x00f3f6f2
     a4c:	2f2ff32f 	svccs	0x002ff32f
     a50:	f4322ff3 			; <UNDEFINED> instruction: 0xf4322ff3
     a54:	f3f3f3f5 	vrsra.u64	<illegal reg q15.5>, <illegal reg q10.5>, #13
     a58:	faf3f3f3 	blx	ffcfda2c <__bss_end+0xffcfa8b0>
     a5c:	f21703f3 	vcge.s16	q0, <illegal reg q11.5>, <illegal reg q9.5>
     a60:	f3f3f3f9 	vrsra.u64	<illegal reg q15.5>, <illegal reg q12.5>, #13
     a64:	14502ff9 	ldrbne	r2, [r0], #-4089	; 0xfffff007
     a68:	09032f68 	stmdbeq	r3, {r3, r5, r6, r8, r9, sl, fp, sp}
     a6c:	0b03154a 	bleq	c5f9c <__bss_end+0xc2e20>
     a70:	4e4b674a 	cdpmi	7, 4, cr6, cr11, cr10, {2}
     a74:	30302f30 	eorscc	r2, r0, r0, lsr pc
     a78:	302f2f2f 	eorcc	r2, pc, pc, lsr #30
     a7c:	2f31302f 	svccs	0x0031302f
     a80:	2e0d032f 	cdpcs	3, 0, cr0, cr13, cr15, {1}
     a84:	66170367 	ldrvs	r0, [r7], -r7, ror #6
     a88:	302f2f2f 	eorcc	r2, pc, pc, lsr #30
     a8c:	6b13512f 	blvs	4d4f50 <__bss_end+0x4d1dd4>
     a90:	a3136a13 	tstge	r3, #77824	; 0x13000
     a94:	022f3015 	eoreq	r3, pc, #21
     a98:	01010004 	tsteq	r1, r4
     a9c:	00000242 	andeq	r0, r0, r2, asr #4
     aa0:	00ac0002 	adceq	r0, ip, r2
     aa4:	01020000 	mrseq	r0, (UNDEF: 2)
     aa8:	000d0efb 	strdeq	r0, [sp], -fp
     aac:	01010101 	tsteq	r1, r1, lsl #2
     ab0:	01000000 	mrseq	r0, (UNDEF: 0)
     ab4:	61010000 	mrsvs	r0, (UNDEF: 1)
     ab8:	2f686372 	svccs	0x00686372
     abc:	2f6d7261 	svccs	0x006d7261
     ac0:	6863616d 	stmdavs	r3!, {r0, r2, r3, r5, r6, r8, sp, lr}^
     ac4:	6e75732d 	cdpvs	3, 7, cr7, cr5, cr13, {1}
     ac8:	702f6978 	eorvc	r6, pc, r8, ror r9	; <UNPREDICTABLE>
     acc:	74732f6d 	ldrbtvc	r2, [r3], #-3949	; 0xfffff093
     ad0:	62646e61 	rsbvs	r6, r4, #1552	; 0x610
     ad4:	2e2e2f79 	mcrcs	15, 1, r2, cr14, cr9, {3}
     ad8:	636e6900 	cmnvs	lr, #0, 18
     adc:	6564756c 	strbvs	r7, [r4, #-1388]!	; 0xfffffa94
     ae0:	6e696c2f 	cdpvs	12, 6, cr6, cr9, cr15, {1}
     ae4:	702f7875 	eorvc	r7, pc, r5, ror r8	; <UNPREDICTABLE>
     ae8:	7265776f 	rsbvc	r7, r5, #29097984	; 0x1bc0000
     aec:	656d0000 	strbvs	r0, [sp, #-0]!
     af0:	65735f6d 	ldrbvs	r5, [r3, #-3949]!	; 0xfffff093
     af4:	6c616972 	stclvs	9, cr6, [r1], #-456	; 0xfffffe38
     af8:	0100632e 	tsteq	r0, lr, lsr #6
     afc:	6d700000 	ldclvs	0, cr0, [r0, #-0]
     b00:	7079745f 	rsbsvc	r7, r9, pc, asr r4
     b04:	682e7365 	stmdavs	lr!, {r0, r2, r5, r6, r8, r9, ip, sp, lr}
     b08:	00000100 	andeq	r0, r0, r0, lsl #2
     b0c:	5f6d656d 	svcpl	0x006d656d
     b10:	756d6363 	strbvc	r6, [sp, #-867]!	; 0xfffffc9d
     b14:	6e75732d 	cdpvs	3, 7, cr7, cr5, cr13, {1}
     b18:	35776938 	ldrbcc	r6, [r7, #-2360]!	; 0xfffff6c8
     b1c:	682e3170 	stmdavs	lr!, {r4, r5, r6, r8, ip, sp}
     b20:	00000100 	andeq	r0, r0, r0, lsl #2
     b24:	5f6d656d 	svcpl	0x006d656d
     b28:	2e6b6c63 	cdpcs	12, 6, cr6, cr11, cr3, {3}
     b2c:	00010068 	andeq	r0, r1, r8, rrx
     b30:	6d656d00 	stclvs	13, cr6, [r5, #-0]
     b34:	6d69745f 	cfstrdvs	mvd7, [r9, #-380]!	; 0xfffffe84
     b38:	2e676e69 	cdpcs	14, 6, cr6, cr7, cr9, {3}
     b3c:	00010068 	andeq	r0, r1, r8, rrx
     b40:	70786100 	rsbsvc	r6, r8, r0, lsl #2
     b44:	7065645f 	rsbvc	r6, r5, pc, asr r4
     b48:	2e646e65 	cdpcs	14, 6, cr6, cr4, cr5, {3}
     b4c:	00020068 	andeq	r0, r2, r8, rrx
     b50:	05000000 	streq	r0, [r0, #-0]
     b54:	00155c02 	andseq	r5, r5, r2, lsl #24
     b58:	011c0300 	tsteq	ip, r0, lsl #6
     b5c:	2e0b032e 	cdpcs	3, 0, cr0, cr11, cr14, {1}
     b60:	1303862f 	movwne	r8, #13871	; 0x362f
     b64:	0330a566 	teqeq	r0, #427819008	; 0x19800000
     b68:	6c038214 	sfmvs	f0, 1, [r3], {20}
     b6c:	2e77032e 	cdpcs	3, 7, cr0, cr7, cr14, {1}
     b70:	302e0903 	eorcc	r0, lr, r3, lsl #18
     b74:	684a1203 	stmdavs	sl, {r0, r1, r9, ip}^
     b78:	364d2f67 	strbcc	r2, [sp], -r7, ror #30
     b7c:	4c2e7803 	stcmi	8, cr7, [lr], #-12
     b80:	01d2036c 	bicseq	r0, r2, ip, ror #6
     b84:	ee03142e 	cdp	4, 0, cr1, cr3, cr14, {1}
     b88:	92039e00 	andls	r9, r3, #0, 28
     b8c:	4c302e7f 	ldcmi	14, cr2, [r0], #-508	; 0xfffffe04
     b90:	4a00ea03 	bmi	3b3a4 <__bss_end+0x38228>
     b94:	4a7f9e03 	bmi	1fe83a8 <__bss_end+0x1fe522c>
     b98:	03016a03 	movweq	r6, #6659	; 0x1a03
     b9c:	64032e1c 	strvs	r2, [r3], #-3612	; 0xfffff1e4
     ba0:	4a16032e 	bmi	581860 <__bss_end+0x57e6e4>
     ba4:	682e6a03 	stmdavs	lr!, {r0, r1, r9, fp, sp, lr}
     ba8:	312e2403 			; <UNDEFINED> instruction: 0x312e2403
     bac:	2e570330 	mrccs	3, 2, r0, cr7, cr0, {1}
     bb0:	32661a03 	rsbcc	r1, r6, #12288	; 0x3000
     bb4:	302d2f49 	eorcc	r2, sp, r9, asr #30
     bb8:	00cf034b 	sbceq	r0, pc, fp, asr #6
     bbc:	7fb4034a 	svcvc	0x00b4034a
     bc0:	00cc032e 	sbceq	r0, ip, lr, lsr #6
     bc4:	7fae032e 	svcvc	0x00ae032e
     bc8:	4b2d4f2e 	blmi	b54888 <__bss_end+0xb5170c>
     bcc:	30312f2f 	eorscc	r2, r1, pc, lsr #30
     bd0:	2e00c603 	cfmadd32cs	mvax0, mvfx12, mvfx0, mvfx3
     bd4:	154a5603 	strbne	r5, [sl, #-1539]	; 0xfffff9fd
     bd8:	666503a2 	strbtvs	r0, [r5], -r2, lsr #7
     bdc:	034a1403 	movteq	r1, #41987	; 0xa403
     be0:	03312e6c 	teqeq	r1, #108, 28	; 0x6c0
     be4:	03502e1a 	cmpeq	r0, #416	; 0x1a0
     be8:	2f672e5d 	svccs	0x00672e5d
     bec:	032f2f2f 			; <UNDEFINED> instruction: 0x032f2f2f
     bf0:	0b032e16 	bleq	cc450 <__bss_end+0xc92d4>
     bf4:	4a5a0366 	bmi	1681994 <__bss_end+0x167e818>
     bf8:	2f2f2f67 	svccs	0x002f2f67
     bfc:	4a21032f 	bmi	8418c0 <__bss_end+0x83e744>
     c00:	2e71032f 	cdpcs	3, 7, cr0, cr1, cr15, {1}
     c04:	164a1203 	strbne	r1, [sl], -r3, lsl #4
     c08:	0402009f 	streq	r0, [r2], #-159	; 0xffffff61
     c0c:	5b034d01 	blpl	d4018 <__bss_end+0xd0e9c>
     c10:	2e1d034a 	cdpcs	3, 1, cr0, cr13, cr10, {2}
     c14:	032e6303 			; <UNDEFINED> instruction: 0x032e6303
     c18:	5b034a25 	blpl	d34b4 <__bss_end+0xd0338>
     c1c:	034c9f66 	movteq	r9, #53094	; 0xcf66
     c20:	02004a24 	andeq	r4, r0, #36, 20	; 0x24000
     c24:	00480204 	subeq	r0, r8, r4, lsl #4
     c28:	32020402 	andcc	r0, r2, #33554432	; 0x2000000
     c2c:	02040200 	andeq	r0, r4, #0, 4
     c30:	069e062a 	ldreq	r0, [lr], sl, lsr #12
     c34:	a3144e34 	tstge	r4, #52, 28	; 0x340
     c38:	ff03a214 			; <UNDEFINED> instruction: 0xff03a214
     c3c:	8903017e 	stmdbhi	r3, {r1, r2, r3, r4, r5, r6, r8}
     c40:	f7032e01 			; <UNDEFINED> instruction: 0xf7032e01
     c44:	81032e7e 	tsthi	r3, lr, ror lr
     c48:	ff034a01 			; <UNDEFINED> instruction: 0xff034a01
     c4c:	93032e7e 	movwls	r2, #15998	; 0x3e7e
     c50:	ed034a01 	vstr	s8, [r3, #-4]
     c54:	96032e7e 			; <UNDEFINED> instruction: 0x96032e7e
     c58:	ef032e01 	svc	0x00032e01
     c5c:	03842e7e 	orreq	r2, r4, #2016	; 0x7e0
     c60:	31820182 	orrcc	r0, r2, r2, lsl #3
     c64:	2f2d4b4b 	svccs	0x002d4b4b
     c68:	032b312f 			; <UNDEFINED> instruction: 0x032b312f
     c6c:	74032e09 	strvc	r2, [r3], #-3593	; 0xfffff1f7
     c70:	4b2d4f2e 	blmi	b54930 <__bss_end+0xb517b4>
     c74:	30312f2f 	eorscc	r2, r1, pc, lsr #30
     c78:	032e5e03 			; <UNDEFINED> instruction: 0x032e5e03
     c7c:	154a00cc 	strbne	r0, [sl, #-204]	; 0xffffff34
     c80:	665903a2 	ldrbvs	r0, [r9], -r2, lsr #7
     c84:	034a2003 	movteq	r2, #40963	; 0xa003
     c88:	03312e60 	teqeq	r1, #96, 28	; 0x600
     c8c:	03502e26 	cmpeq	r0, #608	; 0x260
     c90:	2f672e51 	svccs	0x00672e51
     c94:	032f2f2f 			; <UNDEFINED> instruction: 0x032f2f2f
     c98:	0b032e22 	bleq	cc528 <__bss_end+0xc93ac>
     c9c:	4a4e0366 	bmi	1381a3c <__bss_end+0x137e8c0>
     ca0:	2f2f2f67 	svccs	0x002f2f67
     ca4:	4a2d032f 	bmi	b41968 <__bss_end+0xb3e7ec>
     ca8:	2e71032f 	cdpcs	3, 7, cr0, cr1, cr15, {1}
     cac:	164a1303 	strbne	r1, [sl], -r3, lsl #6
     cb0:	0402009f 	streq	r0, [r2], #-159	; 0xffffff61
     cb4:	4e034d01 	cdpmi	13, 0, cr4, cr3, cr1, {0}
     cb8:	2e2a034a 	cdpcs	3, 2, cr0, cr10, cr10, {2}
     cbc:	032e5603 			; <UNDEFINED> instruction: 0x032e5603
     cc0:	4e034a32 	mcrmi	10, 0, r4, cr3, cr2, {1}
     cc4:	034c9f66 	movteq	r9, #53094	; 0xcf66
     cc8:	02004a31 	andeq	r4, r0, #200704	; 0x31000
     ccc:	00480204 	subeq	r0, r8, r4, lsl #4
     cd0:	32020402 	andcc	r0, r2, #33554432	; 0x2000000
     cd4:	02040200 	andeq	r0, r4, #0, 4
     cd8:	069e062a 	ldreq	r0, [lr], sl, lsr #12
     cdc:	00040234 	andeq	r0, r4, r4, lsr r2
     ce0:	02f30101 	rscseq	r0, r3, #1073741824	; 0x40000000
     ce4:	00020000 	andeq	r0, r2, r0
     ce8:	00000104 	andeq	r0, r0, r4, lsl #2
     cec:	0efb0102 	cdpeq	1, 15, cr0, cr11, cr2, {0}
     cf0:	0101000d 	tsteq	r1, sp
     cf4:	00000101 	andeq	r0, r0, r1, lsl #2
     cf8:	00000100 	andeq	r0, r0, r0, lsl #2
     cfc:	63726101 	cmnvs	r2, #1073741824	; 0x40000000
     d00:	72612f68 	rsbvc	r2, r1, #104, 30	; 0x1a0
     d04:	616d2f6d 	cmnvs	sp, sp, ror #30
     d08:	732d6863 			; <UNDEFINED> instruction: 0x732d6863
     d0c:	69786e75 	ldmdbvs	r8!, {r0, r2, r4, r5, r6, r9, sl, fp, sp, lr}^
     d10:	2f6d702f 	svccs	0x006d702f
     d14:	6e617473 	mcrvs	4, 3, r7, cr1, cr3, {3}
     d18:	2f796264 	svccs	0x00796264
     d1c:	2f002e2e 	svccs	0x00002e2e
     d20:	6964656d 	stmdbvs	r4!, {r0, r2, r3, r5, r6, r8, sl, sp, lr}^
     d24:	61642f61 	cmnvs	r4, r1, ror #30
     d28:	756b676e 	strbvc	r6, [fp, #-1902]!	; 0xfffff892
     d2c:	64796d2f 	ldrbtvs	r6, [r9], #-3375	; 0xfffff2d1
     d30:	2f6b7369 	svccs	0x006b7369
     d34:	2f6d326d 	svccs	0x006d326d
     d38:	2d495042 	stclcs	0, cr5, [r9, #-264]	; 0xfffffef8
     d3c:	2d4d324d 	sfmcs	f3, 2, [sp, #-308]	; 0xfffffecc
     d40:	2f707362 	svccs	0x00707362
     d44:	6c6f6f74 	stclvs	15, cr6, [pc], #-464	; b7c <mem_preload_tlb+0x4c>
     d48:	69616863 	stmdbvs	r1!, {r0, r1, r5, r6, fp, sp, lr}^
     d4c:	696c2f6e 	stmdbvs	ip!, {r1, r2, r3, r5, r6, r8, r9, sl, fp, sp}^
     d50:	63672f62 	cmnvs	r7, #392	; 0x188
     d54:	72612f63 	rsbvc	r2, r1, #396	; 0x18c
     d58:	706f2d6d 	rsbvc	r2, pc, sp, ror #26
     d5c:	72776e65 	rsbsvc	r6, r7, #1616	; 0x650
     d60:	696c2d74 	stmdbvs	ip!, {r2, r4, r5, r6, r8, sl, fp, sp}^
     d64:	2d78756e 	cfldr64cs	mvdx7, [r8, #-440]!	; 0xfffffe48
     d68:	6c73756d 	cfldr64vs	mvdx7, [r3], #-436	; 0xfffffe4c
     d6c:	65756e67 	ldrbvs	r6, [r5, #-3687]!	; 0xfffff199
     d70:	2f696261 	svccs	0x00696261
     d74:	2e322e35 	mrccs	14, 1, r2, cr2, cr5, {1}
     d78:	6e692f30 	mcrvs	15, 3, r2, cr9, cr0, {1}
     d7c:	64756c63 	ldrbtvs	r6, [r5], #-3171	; 0xfffff39d
     d80:	6e690065 	cdpvs	0, 6, cr0, cr9, cr5, {3}
     d84:	64756c63 	ldrbtvs	r6, [r5], #-3171	; 0xfffff39d
     d88:	696c2f65 	stmdbvs	ip!, {r0, r2, r5, r6, r8, r9, sl, fp, sp}^
     d8c:	2f78756e 	svccs	0x0078756e
     d90:	65776f70 	ldrbvs	r6, [r7, #-3952]!	; 0xfffff090
     d94:	6d000072 	stcvs	0, cr0, [r0, #-456]	; 0xfffffe38
     d98:	705f6d65 	subsvc	r6, pc, r5, ror #26
     d9c:	746e6972 	strbtvc	r6, [lr], #-2418	; 0xfffff68e
     da0:	00632e6b 	rsbeq	r2, r3, fp, ror #28
     da4:	70000001 	andvc	r0, r0, r1
     da8:	79745f6d 	ldmdbvc	r4!, {r0, r2, r3, r5, r6, r8, r9, sl, fp, ip, lr}^
     dac:	2e736570 	mrccs	5, 3, r6, cr3, cr0, {3}
     db0:	00010068 	andeq	r0, r1, r8, rrx
     db4:	64747300 	ldrbtvs	r7, [r4], #-768	; 0xfffffd00
     db8:	2e677261 	cdpcs	2, 6, cr7, cr7, cr1, {3}
     dbc:	00020068 	andeq	r0, r2, r8, rrx
     dc0:	6d656d00 	stclvs	13, cr6, [r5, #-0]
     dc4:	7265735f 	rsbvc	r7, r5, #2080374785	; 0x7c000001
     dc8:	2e6c6169 	powcsez	f6, f4, #1.0
     dcc:	00010068 	andeq	r0, r1, r8, rrx
     dd0:	70786100 	rsbsvc	r6, r8, r0, lsl #2
     dd4:	7065645f 	rsbvc	r6, r5, pc, asr r4
     dd8:	2e646e65 	cdpcs	14, 6, cr6, cr4, cr5, {3}
     ddc:	00030068 	andeq	r0, r3, r8, rrx
     de0:	75623c00 	strbvc	r3, [r2, #-3072]!	; 0xfffff400
     de4:	2d746c69 	ldclcs	12, cr6, [r4, #-420]!	; 0xfffffe5c
     de8:	003e6e69 	eorseq	r6, lr, r9, ror #28
     dec:	00000000 	andeq	r0, r0, r0
     df0:	24020500 	strcs	r0, [r2], #-1280	; 0xfffffb00
     df4:	0300001a 	movweq	r0, #26
     df8:	160101d9 			; <UNDEFINED> instruction: 0x160101d9
     dfc:	862a2c30 			; <UNDEFINED> instruction: 0x862a2c30
     e00:	2c4c322a 	sfmcs	f3, 2, [ip], {42}	; 0x2a
     e04:	02005268 	andeq	r5, r0, #104, 4	; 0x80000006
     e08:	00310304 	eorseq	r0, r1, r4, lsl #6
     e0c:	83030402 	movwhi	r0, #13314	; 0x3402
     e10:	03040200 	movweq	r0, #16896	; 0x4200
     e14:	0402002d 	streq	r0, [r2], #-45	; 0xffffffd3
     e18:	02002f03 	andeq	r2, r0, #3, 30
     e1c:	002d0304 	eoreq	r0, sp, r4, lsl #6
     e20:	4b030402 	blmi	c1e30 <__bss_end+0xbecb4>
     e24:	03040200 	movweq	r0, #16896	; 0x4200
     e28:	0402002a 	streq	r0, [r2], #-42	; 0xffffffd6
     e2c:	0200fa03 	andeq	pc, r0, #12288	; 0x3000
     e30:	00300304 	eorseq	r0, r0, r4, lsl #6
     e34:	2c030402 	cfstrscs	mvf0, [r3], {2}
     e38:	312b4d33 			; <UNDEFINED> instruction: 0x312b4d33
     e3c:	034a6b03 	movteq	r6, #43779	; 0xab03
     e40:	6c032e15 	stcvs	14, cr2, [r3], {21}
     e44:	15032d2e 	strne	r2, [r3, #-3374]	; 0xfffff2d2
     e48:	00fe032e 	rscseq	r0, lr, lr, lsr #6
     e4c:	6947314a 	stmdbvs	r7, {r1, r3, r6, r8, ip, sp}^
     e50:	6e2d322b 	cdpvs	2, 2, cr3, cr13, cr11, {1}
     e54:	2f2e7803 	svccs	0x002e7803
     e58:	2e7df203 	cdpcs	2, 7, cr15, cr13, cr3, {0}
     e5c:	2e029103 	mvfcss	f1, f3
     e60:	2e7def03 	cdpcs	15, 7, cr14, cr13, cr3, {0}
     e64:	ba029103 	blt	a5278 <__bss_end+0xa20fc>
     e68:	667df503 	ldrbtvs	pc, [sp], -r3, lsl #10	; <UNPREDICTABLE>
     e6c:	02920348 	addseq	r0, r2, #72, 6	; 0x20000001
     e70:	7df2039e 	ldclvc	3, cr0, [r2, #632]!	; 0x278
     e74:	028e034a 	addeq	r0, lr, #671088641	; 0x28000001
     e78:	7ea8032e 	cdpvc	3, 10, cr0, cr8, cr14, {1}
     e7c:	7a03344a 	bvc	cdfac <__bss_end+0xcae30>
     e80:	2c4c6c4a 	mcrrcs	12, 4, r6, ip, cr10
     e84:	2e120368 	cdpcs	3, 1, cr0, cr2, cr8, {3}
     e88:	2d2e7a03 	vstmdbcs	lr!, {s14-s16}
     e8c:	032e7003 			; <UNDEFINED> instruction: 0x032e7003
     e90:	692b4a17 	stmdbvs	fp!, {r0, r1, r2, r4, r9, fp, lr}
     e94:	317f3147 	cmncc	pc, r7, asr #2
     e98:	2e09037f 	mcrcs	3, 0, r0, cr9, cr15, {3}
     e9c:	2c30f44d 	cfldrscs	mvf15, [r0], #-308	; 0xfffffecc
     ea0:	312b4d4f 			; <UNDEFINED> instruction: 0x312b4d4f
     ea4:	034a5e03 	movteq	r5, #44547	; 0xae03
     ea8:	5f032e22 	svcpl	0x00032e22
     eac:	22032d2e 	andcs	r2, r3, #2944	; 0xb80
     eb0:	4a39032e 	bmi	e41b70 <__bss_end+0xe3e9f4>
     eb4:	2f660c03 	svccs	0x00660c03
     eb8:	032e7303 			; <UNDEFINED> instruction: 0x032e7303
     ebc:	032f2e0c 			; <UNDEFINED> instruction: 0x032f2e0c
     ec0:	18038229 	stmdane	r3, {r0, r3, r5, r9, pc}
     ec4:	7fbf032e 	svcvc	0x00bf032e
     ec8:	00cb032e 	sbceq	r0, fp, lr, lsr #6
     ecc:	7fb50366 	svcvc	0x00b50366
     ed0:	c6034c2e 	strgt	r4, [r3], -lr, lsr #24
     ed4:	ba032e00 	blt	cc6dc <__bss_end+0xc9560>
     ed8:	65314a7f 	ldrvs	r4, [r1, #-2687]!	; 0xfffff581
     edc:	32334632 	eorscc	r4, r3, #52428800	; 0x3200000
     ee0:	026f0330 	rsbeq	r0, pc, #48, 6	; 0xc0000000
     ee4:	d4030134 	strle	r0, [r3], #-308	; 0xfffffecc
     ee8:	302c4a00 	eorcc	r4, ip, r0, lsl #20
     eec:	0331302c 	teqeq	r1, #44	; 0x2c
     ef0:	e6039e54 			; <UNDEFINED> instruction: 0xe6039e54
     ef4:	9c03d67d 	stcls	6, cr13, [r3], {125}	; 0x7d
     ef8:	f503f202 			; <UNDEFINED> instruction: 0xf503f202
     efc:	8d03d67d 	stchi	6, cr13, [r3, #-500]	; 0xfffffe0c
     f00:	032f8202 			; <UNDEFINED> instruction: 0x032f8202
     f04:	e7032e0b 	str	r2, [r3, -fp, lsl #28]
     f08:	6f03ba7d 	svcvs	0x0003ba7d
     f0c:	02ac0382 	adceq	r0, ip, #134217730	; 0x8000002
     f10:	63034bd6 	movwvs	r4, #15318	; 0x3bd6
     f14:	7df0032e 	ldclvc	3, cr0, [r0, #184]!	; 0xb8
     f18:	029203d6 	addseq	r0, r2, #1476395011	; 0x58000003
     f1c:	7dff03f2 	ldclvc	3, cr0, [pc, #968]!	; 12ec <__restore_processor_state+0x138>
     f20:	028d03d6 	addeq	r0, sp, #1476395011	; 0x58000003
     f24:	4a670382 	bmi	19c1d34 <__bss_end+0x19bebb8>
     f28:	ba7dfb03 	blt	1f7fb3c <__bss_end+0x1f7c9c0>
     f2c:	f2028703 	vabd.s8	d8, d2, d3
     f30:	d67e8a03 	ldrbtle	r8, [lr], -r3, lsl #20
     f34:	82028d03 	andhi	r8, r2, #3, 26	; 0xc0
     f38:	0d039f50 	stceq	15, cr9, [r3, #-320]	; 0xfffffec0
     f3c:	cd034b2e 	vstrgt	d4, [r3, #-184]	; 0xffffff48
     f40:	d903827d 	stmdble	r3, {r0, r2, r3, r4, r5, r6, r9, pc}
     f44:	0c03ba02 	stceq	10, cr11, [r3], {2}
     f48:	73032f66 	movwvc	r2, #16230	; 0x3f66
     f4c:	2e0c032e 	cdpcs	3, 0, cr0, cr12, cr14, {1}
     f50:	8229032f 	eorhi	r0, r9, #-1140850688	; 0xbc000000
     f54:	032e1803 			; <UNDEFINED> instruction: 0x032e1803
     f58:	032e7fbf 			; <UNDEFINED> instruction: 0x032e7fbf
     f5c:	036600cb 	cmneq	r6, #203	; 0xcb
     f60:	4c2e7fb5 	stcmi	15, cr7, [lr], #-724	; 0xfffffd2c
     f64:	2e00c603 	cfmadd32cs	mvax0, mvfx12, mvfx0, mvfx3
     f68:	4a7fba03 	bmi	1fef77c <__bss_end+0x1fec600>
     f6c:	46326531 			; <UNDEFINED> instruction: 0x46326531
     f70:	03303233 	teqeq	r0, #805306371	; 0x30000003
     f74:	0134026f 	teqeq	r4, pc, ror #4
     f78:	4a00d403 	bmi	35f8c <__bss_end+0x32e10>
     f7c:	302c302c 	eorcc	r3, ip, ip, lsr #32
     f80:	9e540331 	mrcls	3, 2, r0, cr4, cr1, {1}
     f84:	d67cf103 	ldrbtle	pc, [ip], -r3, lsl #2	; <UNPREDICTABLE>
     f88:	f2039103 	vrhadd.s8	d9, d3, d3
     f8c:	d67d8003 	ldrbtle	r8, [sp], -r3
     f90:	82038203 	andhi	r8, r3, #805306368	; 0x30000000
     f94:	2e0b032f 	cdpcs	3, 0, cr0, cr11, cr15, {1}
     f98:	ba7cf203 	blt	1f3d7ac <__bss_end+0x1f3a630>
     f9c:	03826f03 	orreq	r6, r2, #3, 30
     fa0:	4bd603a1 	blmi	ff581e2c <__bss_end+0xff57ecb0>
     fa4:	032e6303 			; <UNDEFINED> instruction: 0x032e6303
     fa8:	03d67cfb 	bicseq	r7, r6, #64256	; 0xfb00
     fac:	03f20387 	mvnseq	r0, #469762050	; 0x1c000002
     fb0:	03d67d8a 	bicseq	r7, r6, #8832	; 0x2280
     fb4:	03820382 	orreq	r0, r2, #134217730	; 0x8000002
     fb8:	86034a67 	strhi	r4, [r3], -r7, ror #20
     fbc:	fc03ba7d 	stc2	10, cr11, [r3], {125}	; 0x7d
     fc0:	9503f202 	strls	pc, [r3, #-514]	; 0xfffffdfe
     fc4:	8203d67d 	andhi	sp, r3, #131072000	; 0x7d00000
     fc8:	9f508203 	svcls	0x00508203
     fcc:	4b2e0d03 	blmi	b843e0 <__bss_end+0xb81264>
     fd0:	827cd803 	rsbshi	sp, ip, #196608	; 0x30000
     fd4:	01000c02 	tsteq	r0, r2, lsl #24
     fd8:	0000a901 	andeq	sl, r0, r1, lsl #18
     fdc:	45000200 	strmi	r0, [r0, #-512]	; 0xfffffe00
     fe0:	02000000 	andeq	r0, r0, #0
     fe4:	0d0efb01 	vstreq	d15, [lr, #-4]
     fe8:	01010100 	mrseq	r0, (UNDEF: 17)
     fec:	00000001 	andeq	r0, r0, r1
     ff0:	01000001 	tsteq	r0, r1
     ff4:	68637261 	stmdavs	r3!, {r0, r5, r6, r9, ip, sp, lr}^
     ff8:	6d72612f 	ldfvse	f6, [r2, #-188]!	; 0xffffff44
     ffc:	63616d2f 	cmnvs	r1, #3008	; 0xbc0
    1000:	75732d68 	ldrbvc	r2, [r3, #-3432]!	; 0xfffff298
    1004:	2f69786e 	svccs	0x0069786e
    1008:	732f6d70 			; <UNDEFINED> instruction: 0x732f6d70
    100c:	646e6174 	strbtvs	r6, [lr], #-372	; 0xfffffe8c
    1010:	2e2f7962 	cdpcs	9, 2, cr7, cr15, cr2, {3}
    1014:	6d00002e 	stcvs	0, cr0, [r0, #-184]	; 0xffffff48
    1018:	645f6d65 	ldrbvs	r6, [pc], #-3429	; 1020 <__save_processor_state+0x270>
    101c:	696c7669 	stmdbvs	ip!, {r0, r3, r5, r6, r9, sl, ip, sp, lr}^
    1020:	00532e62 	subseq	r2, r3, r2, ror #28
    1024:	00000001 	andeq	r0, r0, r1
    1028:	74020500 	strvc	r0, [r2], #-1280	; 0xfffffb00
    102c:	03000022 	movweq	r0, #34	; 0x22
    1030:	2f2f010e 	svccs	0x002f010e
    1034:	2f2f2f30 	svccs	0x002f2f30
    1038:	342f302f 	strtcc	r3, [pc], #-47	; 1040 <__save_processor_state+0x290>
    103c:	d5032f2f 	strle	r2, [r3, #-3887]	; 0xfffff0d1
    1040:	2f2f2e00 	svccs	0x002f2e00
    1044:	2f2f332f 	svccs	0x002f332f
    1048:	2f2f2f2f 	svccs	0x002f2f2f
    104c:	142e0230 	strtne	r0, [lr], #-560	; 0xfffffdd0
    1050:	2f2f302f 	svccs	0x002f302f
    1054:	342f4c30 	strtcc	r4, [pc], #-3120	; 105c <__save_processor_state+0x2ac>
    1058:	2f2f2f2f 	svccs	0x002f2f2f
    105c:	2f2f2f2f 	svccs	0x002f2f2f
    1060:	302f2f2f 	eorcc	r2, pc, pc, lsr #30
    1064:	2f142e02 	svccs	0x00142e02
    1068:	2f2f302f 	svccs	0x002f302f
    106c:	2f2f2f30 	svccs	0x002f2f30
    1070:	2f2f4c30 	svccs	0x002f4c30
    1074:	2f2f332f 	svccs	0x002f332f
    1078:	332f2f2f 			; <UNDEFINED> instruction: 0x332f2f2f
    107c:	2f2f2f2f 	svccs	0x002f2f2f
    1080:	0002022f 	andeq	r0, r2, pc, lsr #4
    1084:	00900101 	addseq	r0, r0, r1, lsl #2
    1088:	00020000 	andeq	r0, r2, r0
    108c:	00000064 	andeq	r0, r0, r4, rrx
    1090:	0efb0102 	cdpeq	1, 15, cr0, cr11, cr2, {0}
    1094:	0101000d 	tsteq	r1, sp
    1098:	00000101 	andeq	r0, r0, r1, lsl #2
    109c:	00000100 	andeq	r0, r0, r0, lsl #2
    10a0:	63726101 	cmnvs	r2, #1073741824	; 0x40000000
    10a4:	72612f68 	rsbvc	r2, r1, #104, 30	; 0x1a0
    10a8:	616d2f6d 	cmnvs	sp, sp, ror #30
    10ac:	732d6863 			; <UNDEFINED> instruction: 0x732d6863
    10b0:	69786e75 	ldmdbvs	r8!, {r0, r2, r4, r5, r6, r9, sl, fp, sp, lr}^
    10b4:	2f6d702f 	svccs	0x006d702f
    10b8:	6e617473 	mcrvs	4, 3, r7, cr1, cr3, {3}
    10bc:	2f796264 	svccs	0x00796264
    10c0:	00002e2e 	andeq	r2, r0, lr, lsr #28
    10c4:	5f6d656d 	svcpl	0x006d656d
    10c8:	6c766964 	ldclvs	9, cr6, [r6], #-400	; 0xfffffe70
    10cc:	2e636269 	cdpcs	2, 6, cr6, cr3, cr9, {3}
    10d0:	00010063 	andeq	r0, r1, r3, rrx
    10d4:	5f6d7000 	svcpl	0x006d7000
    10d8:	65707974 	ldrbvs	r7, [r0, #-2420]!	; 0xfffff68c
    10dc:	00682e73 	rsbeq	r2, r8, r3, ror lr
    10e0:	6d000001 	stcvs	0, cr0, [r0, #-4]
    10e4:	705f6d65 	subsvc	r6, pc, r5, ror #26
    10e8:	746e6972 	strbtvc	r6, [lr], #-2418	; 0xfffff68e
    10ec:	00682e6b 	rsbeq	r2, r8, fp, ror #28
    10f0:	00000001 	andeq	r0, r0, r1
    10f4:	50020500 	andpl	r0, r2, r0, lsl #10
    10f8:	03000024 	movweq	r0, #36	; 0x24
    10fc:	6a13010e 	bvs	4c153c <__bss_end+0x4be3c0>
    1100:	2b695017 	blcs	1a55164 <__bss_end+0x1a51fe8>
    1104:	03353152 	teqeq	r5, #-2147483628	; 0x80000014
    1108:	322f2e78 	eorcc	r2, pc, #120, 28	; 0x780
    110c:	03302c32 	teqeq	r0, #12800	; 0x3200
    1110:	1903666a 	stmdbne	r3, {r1, r3, r5, r6, r9, sl, sp, lr}
    1114:	0002022e 	andeq	r0, r2, lr, lsr #4
    1118:	01220101 			; <UNDEFINED> instruction: 0x01220101
    111c:	00020000 	andeq	r0, r2, r0
    1120:	00000091 	muleq	r0, r1, r0
    1124:	0efb0102 	cdpeq	1, 15, cr0, cr11, cr2, {0}
    1128:	0101000d 	tsteq	r1, sp
    112c:	00000101 	andeq	r0, r0, r1, lsl #2
    1130:	00000100 	andeq	r0, r0, r0, lsl #2
    1134:	63726101 	cmnvs	r2, #1073741824	; 0x40000000
    1138:	72612f68 	rsbvc	r2, r1, #104, 30	; 0x1a0
    113c:	616d2f6d 	cmnvs	sp, sp, ror #30
    1140:	732d6863 			; <UNDEFINED> instruction: 0x732d6863
    1144:	69786e75 	ldmdbvs	r8!, {r0, r2, r4, r5, r6, r9, sl, fp, sp, lr}^
    1148:	2f6d702f 	svccs	0x006d702f
    114c:	6e617473 	mcrvs	4, 3, r7, cr1, cr3, {3}
    1150:	2f796264 	svccs	0x00796264
    1154:	69002e2e 	stmdbvs	r0, {r1, r2, r3, r5, r9, sl, fp, sp}
    1158:	756c636e 	strbvc	r6, [ip, #-878]!	; 0xfffffc92
    115c:	6c2f6564 	cfstr32vs	mvfx6, [pc], #-400	; fd4 <__save_processor_state+0x224>
    1160:	78756e69 	ldmdavc	r5!, {r0, r3, r5, r6, r9, sl, fp, sp, lr}^
    1164:	776f702f 	strbvc	r7, [pc, -pc, lsr #32]!
    1168:	00007265 	andeq	r7, r0, r5, ror #4
    116c:	5f6d656d 	svcpl	0x006d656d
    1170:	2e746e69 	cdpcs	14, 7, cr6, cr4, cr9, {3}
    1174:	00010063 	andeq	r0, r1, r3, rrx
    1178:	5f6d7000 	svcpl	0x006d7000
    117c:	65707974 	ldrbvs	r7, [r0, #-2420]!	; 0xfffff68c
    1180:	00682e73 	rsbeq	r2, r8, r3, ror lr
    1184:	6d000001 	stcvs	0, cr0, [r0, #-4]
    1188:	695f6d65 	ldmdbvs	pc, {r0, r2, r5, r6, r8, sl, fp, sp, lr}^	; <UNPREDICTABLE>
    118c:	682e746e 	stmdavs	lr!, {r1, r2, r3, r5, r6, sl, ip, sp, lr}
    1190:	00000100 	andeq	r0, r0, r0, lsl #2
    1194:	5f707861 	svcpl	0x00707861
    1198:	65706564 	ldrbvs	r6, [r0, #-1380]!	; 0xfffffa9c
    119c:	682e646e 	stmdavs	lr!, {r1, r2, r3, r5, r6, sl, sp, lr}
    11a0:	00000200 	andeq	r0, r0, r0, lsl #4
    11a4:	5f6d656d 	svcpl	0x006d656d
    11a8:	6e697270 	mcrvs	2, 3, r7, cr9, cr0, {3}
    11ac:	682e6b74 	stmdavs	lr!, {r2, r4, r5, r6, r8, r9, fp, sp, lr}
    11b0:	00000100 	andeq	r0, r0, r0, lsl #2
    11b4:	02050000 	andeq	r0, r5, #0
    11b8:	000024b0 			; <UNDEFINED> instruction: 0x000024b0
    11bc:	14012203 	strne	r2, [r1], #-515	; 0xfffffdfd
    11c0:	034a0b03 	movteq	r0, #43779	; 0xab03
    11c4:	0b032e75 	bleq	ccba0 <__bss_end+0xc9a24>
    11c8:	74032f66 	strvc	r2, [r3], #-3942	; 0xfffff09a
    11cc:	0402002e 	streq	r0, [r2], #-46	; 0xffffffd2
    11d0:	4a0c0303 	bmi	301de4 <__bss_end+0x2fec68>
    11d4:	03040200 	movweq	r0, #16896	; 0x4200
    11d8:	0402002d 	streq	r0, [r2], #-45	; 0xffffffd3
    11dc:	660b0303 	strvs	r0, [fp], -r3, lsl #6
    11e0:	03040200 	movweq	r0, #16896	; 0x4200
    11e4:	04020067 	streq	r0, [r2], #-103	; 0xffffff99
    11e8:	304e4903 	subcc	r4, lr, r3, lsl #18
    11ec:	034d4c2c 	movteq	r4, #56364	; 0xdc2c
    11f0:	21032e5f 	tstcs	r3, pc, asr lr
    11f4:	332f2d2e 			; <UNDEFINED> instruction: 0x332f2d2e
    11f8:	68820f03 	stmvs	r2, {r0, r1, r8, r9, sl, fp}
    11fc:	03040200 	movweq	r0, #16896	; 0x4200
    1200:	040200a2 	streq	r0, [r2], #-162	; 0xffffff5e
    1204:	02006703 	andeq	r6, r0, #786432	; 0xc0000
    1208:	50800304 	addpl	r0, r0, r4, lsl #6
    120c:	19660f03 	stmdbne	r6!, {r0, r1, r8, r9, sl, fp}^
    1210:	312e7a03 			; <UNDEFINED> instruction: 0x312e7a03
    1214:	2e78038a 	cdpcs	3, 7, cr0, cr8, cr10, {4}
    1218:	2e760336 	mrccs	3, 3, r0, cr6, cr6, {1}
    121c:	6c2e0a03 	stcvs	10, cr0, [lr], #-12
    1220:	2a2e7a03 	bcs	b9fa34 <__bss_end+0xb9c8b8>
    1224:	0f035132 	svceq	0x00035132
    1228:	2b31172e 	blcs	c46ee8 <__bss_end+0xc43d6c>
    122c:	302c3147 	eorcc	r3, ip, r7, asr #2
    1230:	29873231 	stmibcs	r7, {r0, r4, r5, r9, ip, sp}
    1234:	82780333 	rsbshi	r0, r8, #-872415232	; 0xcc000000
    1238:	022e0903 	eoreq	r0, lr, #49152	; 0xc000
    123c:	01010002 	tsteq	r1, r2
    1240:	000000a1 	andeq	r0, r0, r1, lsr #1
    1244:	005f0002 	subseq	r0, pc, r2
    1248:	01020000 	mrseq	r0, (UNDEF: 2)
    124c:	000d0efb 	strdeq	r0, [sp], -fp
    1250:	01010101 	tsteq	r1, r1, lsl #2
    1254:	01000000 	mrseq	r0, (UNDEF: 0)
    1258:	61010000 	mrsvs	r0, (UNDEF: 1)
    125c:	2f686372 	svccs	0x00686372
    1260:	2f6d7261 	svccs	0x006d7261
    1264:	6863616d 	stmdavs	r3!, {r0, r2, r3, r5, r6, r8, sp, lr}^
    1268:	6e75732d 	cdpvs	3, 7, cr7, cr5, cr13, {1}
    126c:	702f6978 	eorvc	r6, pc, r8, ror r9	; <UNPREDICTABLE>
    1270:	74732f6d 	ldrbtvc	r2, [r3], #-3949	; 0xfffff093
    1274:	62646e61 	rsbvs	r6, r4, #1552	; 0x610
    1278:	2e2e2f79 	mcrcs	15, 1, r2, cr14, cr9, {3}
    127c:	656d0000 	strbvs	r0, [sp, #-0]!
    1280:	70675f6d 	rsbvc	r5, r7, sp, ror #30
    1284:	632e6f69 			; <UNDEFINED> instruction: 0x632e6f69
    1288:	00000100 	andeq	r0, r0, r0, lsl #2
    128c:	745f6d70 	ldrbvc	r6, [pc], #-3440	; 1294 <__restore_processor_state+0xe0>
    1290:	73657079 	cmnvc	r5, #121	; 0x79
    1294:	0100682e 	tsteq	r0, lr, lsr #16
    1298:	656d0000 	strbvs	r0, [sp, #-0]!
    129c:	70675f6d 	rsbvc	r5, r7, sp, ror #30
    12a0:	682e6f69 	stmdavs	lr!, {r0, r3, r5, r6, r8, r9, sl, fp, sp, lr}
    12a4:	00000100 	andeq	r0, r0, r0, lsl #2
    12a8:	02050000 	andeq	r0, r5, #0
    12ac:	00002630 	andeq	r2, r0, r0, lsr r6
    12b0:	01011a03 	tsteq	r1, r3, lsl #20
    12b4:	00324632 	eorseq	r4, r2, r2, lsr r6
    12b8:	2f030402 	svccs	0x00030402
    12bc:	03040200 	movweq	r0, #16896	; 0x4200
    12c0:	0402002d 	streq	r0, [r2], #-45	; 0xffffffd3
    12c4:	02002f03 	andeq	r2, r0, #3, 30
    12c8:	322d0304 	eorcc	r0, sp, #4, 6	; 0x10000000
    12cc:	014a0e03 	cmpeq	sl, r3, lsl #28
    12d0:	00324632 	eorseq	r4, r2, r2, lsr r6
    12d4:	2f030402 	svccs	0x00030402
    12d8:	03040200 	movweq	r0, #16896	; 0x4200
    12dc:	4a0c0349 	bmi	302008 <__bss_end+0x2fee8c>
    12e0:	01000402 	tsteq	r0, r2, lsl #8
    12e4:	0000fc01 	andeq	pc, r0, r1, lsl #24
    12e8:	81000200 	mrshi	r0, R8_usr
    12ec:	02000000 	andeq	r0, r0, #0
    12f0:	0d0efb01 	vstreq	d15, [lr, #-4]
    12f4:	01010100 	mrseq	r0, (UNDEF: 17)
    12f8:	00000001 	andeq	r0, r0, r1
    12fc:	01000001 	tsteq	r0, r1
    1300:	68637261 	stmdavs	r3!, {r0, r5, r6, r9, ip, sp, lr}^
    1304:	6d72612f 	ldfvse	f6, [r2, #-188]!	; 0xffffff44
    1308:	63616d2f 	cmnvs	r1, #3008	; 0xbc0
    130c:	75732d68 	ldrbvc	r2, [r3, #-3432]!	; 0xfffff298
    1310:	2f69786e 	svccs	0x0069786e
    1314:	732f6d70 			; <UNDEFINED> instruction: 0x732f6d70
    1318:	646e6174 	strbtvs	r6, [lr], #-372	; 0xfffffe8c
    131c:	2e2f7962 	cdpcs	9, 2, cr7, cr15, cr2, {3}
    1320:	6e69002e 	cdpvs	0, 6, cr0, cr9, cr14, {1}
    1324:	64756c63 	ldrbtvs	r6, [r5], #-3171	; 0xfffff39d
    1328:	696c2f65 	stmdbvs	ip!, {r0, r2, r5, r6, r8, r9, sl, fp, sp}^
    132c:	2f78756e 	svccs	0x0078756e
    1330:	65776f70 	ldrbvs	r6, [r7, #-3952]!	; 0xfffff090
    1334:	6d000072 	stcvs	0, cr0, [r0, #-456]	; 0xfffffe38
    1338:	745f6d65 	ldrbvc	r6, [pc], #-3429	; 1340 <__restore_processor_state+0x18c>
    133c:	632e726d 			; <UNDEFINED> instruction: 0x632e726d
    1340:	00000100 	andeq	r0, r0, r0, lsl #2
    1344:	745f6d70 	ldrbvc	r6, [pc], #-3440	; 134c <__restore_processor_state+0x198>
    1348:	73657079 	cmnvc	r5, #121	; 0x79
    134c:	0100682e 	tsteq	r0, lr, lsr #16
    1350:	656d0000 	strbvs	r0, [sp, #-0]!
    1354:	6d745f6d 	ldclvs	15, cr5, [r4, #-436]!	; 0xfffffe4c
    1358:	00682e72 	rsbeq	r2, r8, r2, ror lr
    135c:	61000001 	tstvs	r0, r1
    1360:	645f7078 	ldrbvs	r7, [pc], #-120	; 1368 <__restore_processor_state+0x1b4>
    1364:	6e657065 	cdpvs	0, 6, cr7, cr5, cr5, {3}
    1368:	00682e64 	rsbeq	r2, r8, r4, ror #28
    136c:	00000002 	andeq	r0, r0, r2
    1370:	88020500 	stmdahi	r2, {r8, sl}
    1374:	03000026 	movweq	r0, #38	; 0x26
    1378:	6315011c 	tstvs	r5, #28, 2
    137c:	0c032b34 	stceq	11, cr2, [r3], {52}	; 0x34
    1380:	2e77034a 	cdpcs	3, 7, cr0, cr7, cr10, {2}
    1384:	4b4b4b2f 	blmi	12d4048 <__bss_end+0x12d0ecc>
    1388:	034d4b4b 	movteq	r4, #56139	; 0xdb4b
    138c:	64142e0f 	ldrvs	r2, [r4], #-3599	; 0xfffff1f1
    1390:	2e090330 	mcrcs	3, 0, r0, cr9, cr0, {1}
    1394:	2f2e7703 	svccs	0x002e7703
    1398:	4b4b4b4b 	blmi	12d40cc <__bss_end+0x12d0f50>
    139c:	0f034d4b 	svceq	0x00034d4b
    13a0:	3384142e 	orrcc	r1, r4, #771751936	; 0x2e000000
    13a4:	302e7903 	eorcc	r7, lr, r3, lsl #18
    13a8:	034d4b2f 	movteq	r4, #56111	; 0xdb2f
    13ac:	33132e0f 	tstcc	r3, #15, 28	; 0xf0
    13b0:	2c2f4b29 	stccs	11, cr4, [pc], #-164	; 1314 <__restore_processor_state+0x160>
    13b4:	03312f2f 	teqeq	r1, #47, 30	; 0xbc
    13b8:	31152e12 	tstcc	r5, r2, lsl lr
    13bc:	31689f2b 	cmncc	r8, fp, lsr #30
    13c0:	82150369 	andshi	r0, r5, #-1543503871	; 0xa4000001
    13c4:	6969bb14 	stmdbvs	r9!, {r2, r4, r8, r9, fp, ip, sp, pc}^
    13c8:	14821203 	strne	r1, [r2], #515	; 0x203
    13cc:	036c2a32 	cmneq	ip, #204800	; 0x32000
    13d0:	29352e78 	ldmdbcs	r5!, {r3, r4, r5, r6, r9, sl, fp, sp}
    13d4:	032e0b03 			; <UNDEFINED> instruction: 0x032e0b03
    13d8:	2f312e76 	svccs	0x00312e76
    13dc:	69672f2f 	stmdbvs	r7!, {r0, r1, r2, r3, r5, r8, r9, sl, fp, sp}^
    13e0:	01000202 	tsteq	r0, r2, lsl #4
    13e4:	00001901 	andeq	r1, r0, r1, lsl #18
    13e8:	13000200 	movwne	r0, #512	; 0x200
    13ec:	02000000 	andeq	r0, r0, #0
    13f0:	0d0efb01 	vstreq	d15, [lr, #-4]
    13f4:	01010100 	mrseq	r0, (UNDEF: 17)
    13f8:	00000001 	andeq	r0, r0, r1
    13fc:	01000001 	tsteq	r0, r1
    1400:	00190000 	andseq	r0, r9, r0
    1404:	00020000 	andeq	r0, r2, r0
    1408:	00000013 	andeq	r0, r0, r3, lsl r0
    140c:	0efb0102 	cdpeq	1, 15, cr0, cr11, cr2, {0}
    1410:	0101000d 	tsteq	r1, sp
    1414:	00000101 	andeq	r0, r0, r1, lsl #2
    1418:	00000100 	andeq	r0, r0, r0, lsl #2
    141c:	cb000001 	blgt	1428 <__restore_processor_state+0x274>
    1420:	02000001 	andeq	r0, r0, #1
    1424:	0000ba00 	andeq	fp, r0, r0, lsl #20
    1428:	fb010200 	blx	41c32 <__bss_end+0x3eab6>
    142c:	01000d0e 	tsteq	r0, lr, lsl #26
    1430:	00010101 	andeq	r0, r1, r1, lsl #2
    1434:	00010000 	andeq	r0, r1, r0
    1438:	72610100 	rsbvc	r0, r1, #0, 2
    143c:	612f6863 			; <UNDEFINED> instruction: 0x612f6863
    1440:	6d2f6d72 	stcvs	13, cr6, [pc, #-456]!	; 1280 <__restore_processor_state+0xcc>
    1444:	2d686361 	stclcs	3, cr6, [r8, #-388]!	; 0xfffffe7c
    1448:	786e7573 	stmdavc	lr!, {r0, r1, r4, r5, r6, r8, sl, ip, sp, lr}^
    144c:	6d702f69 	ldclvs	15, cr2, [r0, #-420]!	; 0xfffffe5c
    1450:	6174732f 	cmnvs	r4, pc, lsr #6
    1454:	7962646e 	stmdbvc	r2!, {r1, r2, r3, r5, r6, sl, sp, lr}^
    1458:	002e2e2f 	eoreq	r2, lr, pc, lsr #28
    145c:	6c636e69 	stclvs	14, cr6, [r3], #-420	; 0xfffffe5c
    1460:	2f656475 	svccs	0x00656475
    1464:	756e696c 	strbvc	r6, [lr, #-2412]!	; 0xfffff694
    1468:	6f702f78 	svcvs	0x00702f78
    146c:	00726577 	rsbseq	r6, r2, r7, ror r5
    1470:	6d656d00 	stclvs	13, cr6, [r5, #-0]
    1474:	6b6c635f 	blvs	1b1a1f8 <__bss_end+0x1b1707c>
    1478:	0100632e 	tsteq	r0, lr, lsr #6
    147c:	6d700000 	ldclvs	0, cr0, [r0, #-0]
    1480:	7079745f 	rsbsvc	r7, r9, pc, asr r4
    1484:	682e7365 	stmdavs	lr!, {r0, r2, r5, r6, r8, r9, ip, sp, lr}
    1488:	00000100 	andeq	r0, r0, r0, lsl #2
    148c:	5f6d656d 	svcpl	0x006d656d
    1490:	756d6363 	strbvc	r6, [sp, #-867]!	; 0xfffffc9d
    1494:	6e75732d 	cdpvs	3, 7, cr7, cr5, cr13, {1}
    1498:	35776938 	ldrbcc	r6, [r7, #-2360]!	; 0xfffff6c8
    149c:	682e3170 	stmdavs	lr!, {r4, r5, r6, r8, ip, sp}
    14a0:	00000100 	andeq	r0, r0, r0, lsl #2
    14a4:	5f6d656d 	svcpl	0x006d656d
    14a8:	2e6b6c63 	cdpcs	12, 6, cr6, cr11, cr3, {3}
    14ac:	00010068 	andeq	r0, r1, r8, rrx
    14b0:	6d656d00 	stclvs	13, cr6, [r5, #-0]
    14b4:	6d69745f 	cfstrdvs	mvd7, [r9, #-380]!	; 0xfffffe84
    14b8:	2e676e69 	cdpcs	14, 6, cr6, cr7, cr9, {3}
    14bc:	00010068 	andeq	r0, r1, r8, rrx
    14c0:	6d656d00 	stclvs	13, cr6, [r5, #-0]
    14c4:	7669645f 			; <UNDEFINED> instruction: 0x7669645f
    14c8:	6362696c 	cmnvs	r2, #108, 18	; 0x1b0000
    14cc:	0100682e 	tsteq	r0, lr, lsr #16
    14d0:	78610000 	stmdavc	r1!, {}^	; <UNPREDICTABLE>
    14d4:	65645f70 	strbvs	r5, [r4, #-3952]!	; 0xfffff090
    14d8:	646e6570 	strbtvs	r6, [lr], #-1392	; 0xfffffa90
    14dc:	0200682e 	andeq	r6, r0, #3014656	; 0x2e0000
    14e0:	00000000 	andeq	r0, r0, r0
    14e4:	28680205 	stmdacs	r8!, {r0, r2, r9}^
    14e8:	20030000 	andcs	r0, r3, r0
    14ec:	302f1301 	eorcc	r1, pc, r1, lsl #6
    14f0:	302c302c 	eorcc	r3, ip, ip, lsr #32
    14f4:	036a302c 	cmneq	sl, #44	; 0x2c
    14f8:	4b142e11 	blmi	50cd44 <__bss_end+0x509bc8>
    14fc:	134a2403 	movtne	r2, #41987	; 0xa403
    1500:	522b3265 	eorpl	r3, fp, #1342177286	; 0x50000006
    1504:	312e7803 			; <UNDEFINED> instruction: 0x312e7803
    1508:	034d4b2f 	movteq	r4, #56111	; 0xdb2f
    150c:	52142e12 	andspl	r2, r4, #288	; 0x120
    1510:	302e7603 	eorcc	r7, lr, r3, lsl #12
    1514:	032e0d03 			; <UNDEFINED> instruction: 0x032e0d03
    1518:	2f362e73 	svccs	0x00362e73
    151c:	0f034d4b 	svceq	0x00034d4b
    1520:	3349132e 	movtcc	r1, #37678	; 0x932e
    1524:	03ba0a03 			; <UNDEFINED> instruction: 0x03ba0a03
    1528:	2d2f2e79 	stccs	14, cr2, [pc, #-484]!	; 134c <__restore_processor_state+0x198>
    152c:	834e4b2f 	movthi	r4, #60207	; 0xeb2f
    1530:	2f2d4b30 	svccs	0x002d4b30
    1534:	4a6c0332 	bmi	1b02204 <__bss_end+0x1aff088>
    1538:	134a2303 	movtne	r2, #41731	; 0xa303
    153c:	09037e4d 	stmdbeq	r3, {r0, r2, r3, r6, r9, sl, fp, ip, sp, lr}
    1540:	2f2f292e 	svccs	0x002f292e
    1544:	034c3049 	movteq	r3, #49225	; 0xc049
    1548:	18032e79 	stmdane	r3, {r0, r3, r4, r5, r6, r9, sl, fp, sp}
    154c:	2e81134a 	cdpcs	3, 8, cr1, cr1, cr10, {2}
    1550:	2e13032f 	cdpcs	3, 1, cr0, cr3, cr15, {1}
    1554:	322e6e03 	eorcc	r6, lr, #3, 28	; 0x30
    1558:	322a2c30 	eorcc	r2, sl, #48, 24	; 0x3000
    155c:	7a033133 	bvc	cda30 <__bss_end+0xca8b4>
    1560:	7a03342e 	bvc	ce620 <__bss_end+0xcb4a4>
    1564:	31332c2e 	teqcc	r3, lr, lsr #24
    1568:	4f2f312b 	svcmi	0x002f312b
    156c:	132e0f03 			; <UNDEFINED> instruction: 0x132e0f03
    1570:	032f2e81 			; <UNDEFINED> instruction: 0x032f2e81
    1574:	70032e11 	andvc	r2, r3, r1, lsl lr
    1578:	0a032f2e 	beq	cd238 <__bss_end+0xca0bc>
    157c:	2e79032e 	cdpcs	3, 7, cr0, cr9, cr14, {1}
    1580:	35312f2a 	ldrcc	r2, [r1, #-3882]!	; 0xfffff0d6
    1584:	36322a2b 	ldrtcc	r2, [r2], -fp, lsr #20
    1588:	312e0e03 			; <UNDEFINED> instruction: 0x312e0e03
    158c:	3203812c 	andcc	r8, r3, #44, 2
    1590:	2e4f032e 	cdpcs	3, 4, cr0, cr15, cr14, {1}
    1594:	032e3403 			; <UNDEFINED> instruction: 0x032e3403
    1598:	35032e4e 	strcc	r2, [r3, #-3662]	; 0xfffff1b2
    159c:	2e4e032e 	cdpcs	3, 4, cr0, cr14, cr14, {1}
    15a0:	4b4b4b4e 	blmi	12d42e0 <__bss_end+0x12d1164>
    15a4:	22034b4b 	andcs	r4, r3, #76800	; 0x12c00
    15a8:	4c4b4b4a 	mcrrmi	11, 4, r4, fp, cr10
    15ac:	0f034c67 	svceq	0x00034c67
    15b0:	3065132e 	rsbcc	r1, r5, lr, lsr #6
    15b4:	4a30032d 	bmi	c02270 <__bss_end+0xbff0f4>
    15b8:	302e5103 	eorcc	r5, lr, r3, lsl #2
    15bc:	4b4a2303 	blmi	128a1d0 <__bss_end+0x1287054>
    15c0:	4b4b4b4b 	blmi	12d42f4 <__bss_end+0x12d1178>
    15c4:	2e2f034f 	cdpcs	3, 2, cr0, cr15, cr15, {2}
    15c8:	2a2f851a 	bcs	be2a38 <__bss_end+0xbdf8bc>
    15cc:	034c3032 	movteq	r3, #49202	; 0xc032
    15d0:	1b034a70 	blne	d3f98 <__bss_end+0xd0e1c>
    15d4:	2e79032e 	cdpcs	3, 7, cr0, cr9, cr14, {1}
    15d8:	03326235 	teqeq	r2, #1342177283	; 0x50000003
    15dc:	50358279 	eorspl	r8, r5, r9, ror r2
    15e0:	032e7a03 			; <UNDEFINED> instruction: 0x032e7a03
    15e4:	0f034a77 	svceq	0x00034a77
    15e8:	0002022e 	andeq	r0, r2, lr, lsr #4
    15ec:	Address 0x00000000000015ec is out of bounds.


Disassembly of section .debug_str:

00000000 <.debug_str>:
       0:	20554e47 	subscs	r4, r5, r7, asr #28
       4:	20313143 	eorscs	r3, r1, r3, asr #2
       8:	2e322e35 	mrccs	14, 1, r2, cr2, cr5, {1}
       c:	6d2d2030 	stcvs	0, cr2, [sp, #-192]!	; 0xffffff40
      10:	7474696c 	ldrbtvc	r6, [r4], #-2412	; 0xfffff694
      14:	652d656c 	strvs	r6, [sp, #-1388]!	; 0xfffffa94
      18:	6169646e 	cmnvs	r9, lr, ror #8
      1c:	6d2d206e 	stcvs	0, cr2, [sp, #-440]!	; 0xfffffe48
      20:	68637261 	stmdavs	r3!, {r0, r5, r6, r9, ip, sp, lr}^
      24:	6d72613d 	ldfvse	f6, [r2, #-244]!	; 0xffffff0c
      28:	612d3776 			; <UNDEFINED> instruction: 0x612d3776
      2c:	616d2d20 	cmnvs	sp, r0, lsr #26
      30:	2d206d72 	stccs	13, cr6, [r0, #-456]!	; 0xfffffe38
      34:	74696c6d 	strbtvc	r6, [r9], #-3181	; 0xfffff393
      38:	2d656c74 	stclcs	12, cr6, [r5, #-464]!	; 0xfffffe30
      3c:	69646e65 	stmdbvs	r4!, {r0, r2, r5, r6, r9, sl, fp, sp, lr}^
      40:	2d206e61 	stccs	14, cr6, [r0, #-388]!	; 0xfffffe7c
      44:	2d6f6e6d 	stclcs	14, cr6, [pc, #-436]!	; fffffe98 <__bss_end+0xffffcd1c>
      48:	6c616e75 	stclvs	14, cr6, [r1], #-468	; 0xfffffe2c
      4c:	656e6769 	strbvs	r6, [lr, #-1897]!	; 0xfffff897
      50:	63612d64 	cmnvs	r1, #100, 26	; 0x1900
      54:	73736563 	cmnvc	r3, #415236096	; 0x18c00000
      58:	666d2d20 	strbtvs	r2, [sp], -r0, lsr #26
      5c:	74616f6c 	strbtvc	r6, [r1], #-3948	; 0xfffff094
      60:	6962612d 	stmdbvs	r2!, {r0, r2, r3, r5, r8, sp, lr}^
      64:	7261683d 	rsbvc	r6, r1, #3997696	; 0x3d0000
      68:	6d2d2064 	stcvs	0, cr2, [sp, #-400]!	; 0xfffffe70
      6c:	2d736c74 	ldclcs	12, cr6, [r3, #-464]!	; 0xfffffe30
      70:	6c616964 	stclvs	9, cr6, [r1], #-400	; 0xfffffe70
      74:	3d746365 	ldclcc	3, cr6, [r4, #-404]!	; 0xfffffe6c
      78:	20756e67 	rsbscs	r6, r5, r7, ror #28
      7c:	2d20672d 	stccs	7, cr6, [r0, #-180]!	; 0xffffff4c
      80:	2d20324f 	sfmcs	f3, 4, [r0, #-316]!	; 0xfffffec4
      84:	2d6f6e66 	stclcs	14, cr6, [pc, #-408]!	; fffffef4 <__bss_end+0xffffcd78>
      88:	69776e75 	ldmdbvs	r7!, {r0, r2, r4, r5, r6, r9, sl, fp, sp, lr}^
      8c:	742d646e 	strtvc	r6, [sp], #-1134	; 0xfffffb92
      90:	656c6261 	strbvs	r6, [ip, #-609]!	; 0xfffffd9f
      94:	662d2073 			; <UNDEFINED> instruction: 0x662d2073
      98:	612d6f6e 			; <UNDEFINED> instruction: 0x612d6f6e
      9c:	636e7973 	cmnvs	lr, #1884160	; 0x1cc000
      a0:	6e6f7268 	cdpvs	2, 6, cr7, cr15, cr8, {3}
      a4:	2d73756f 	cfldr64cs	mvdx7, [r3, #-444]!	; 0xfffffe44
      a8:	69776e75 	ldmdbvs	r7!, {r0, r2, r4, r5, r6, r9, sl, fp, sp, lr}^
      ac:	742d646e 	strtvc	r6, [sp], #-1134	; 0xfffffb92
      b0:	656c6261 	strbvs	r6, [ip, #-609]!	; 0xfffffd9f
      b4:	525f0073 	subspl	r0, pc, #115	; 0x73
      b8:	6d757365 	ldclvs	3, cr7, [r5, #-404]!	; 0xfffffe6c
      bc:	69665f65 	stmdbvs	r6!, {r0, r2, r5, r6, r8, r9, sl, fp, ip, lr}^
      c0:	685f656c 	ldmdavs	pc, {r2, r3, r5, r6, r8, sl, sp, lr}^	; <UNPREDICTABLE>
      c4:	00646165 	rsbeq	r6, r4, r5, ror #2
      c8:	5f434356 	svcpl	0x00434356
      cc:	5f434441 	svcpl	0x00434441
      d0:	00544942 	subseq	r4, r4, r2, asr #18
      d4:	5f444456 	svcpl	0x00444456
      d8:	41555043 	cmpmi	r5, r3, asr #32
      dc:	5449425f 	strbpl	r4, [r9], #-607	; 0xfffffda1
      e0:	43435600 	movtmi	r5, #13824	; 0x3600
      e4:	4152445f 	cmpmi	r2, pc, asr r4
      e8:	49425f4d 	stmdbmi	r2, {r0, r2, r3, r6, r8, r9, sl, fp, ip, lr}^
      ec:	44560054 	ldrbmi	r0, [r6], #-84	; 0xffffffac
      f0:	45525f44 	ldrbmi	r5, [r2, #-3908]	; 0xfffff0bc
      f4:	425f3353 	subsmi	r3, pc, #1275068417	; 0x4c000001
      f8:	56005449 	strpl	r5, [r0], -r9, asr #8
      fc:	505f4343 	subspl	r4, pc, r3, asr #6
     100:	49425f4c 	stmdbmi	r2, {r2, r3, r6, r8, r9, sl, fp, ip, lr}^
     104:	44560054 	ldrbmi	r0, [r6], #-84	; 0xffffffac
     108:	50475f44 	subpl	r5, r7, r4, asr #30
     10c:	49425f55 	stmdbmi	r2, {r0, r2, r4, r6, r8, r9, sl, fp, ip, lr}^
     110:	6e750054 	mrcvs	0, 3, r0, cr5, cr4, {2}
     114:	6e676973 	mcrvs	9, 3, r6, cr7, cr3, {3}
     118:	63206465 			; <UNDEFINED> instruction: 0x63206465
     11c:	00726168 	rsbseq	r6, r2, r8, ror #2
     120:	4e4f4765 	cdpmi	7, 4, cr4, cr15, cr5, {3}
     124:	6e73765f 	mrcvs	6, 3, r7, cr3, cr15, {2}
     128:	44445600 	strbmi	r5, [r4], #-1536	; 0xfffffa00
     12c:	5550435f 	ldrbpl	r4, [r0, #-863]	; 0xfffffca1
     130:	49425f42 	stmdbmi	r2, {r1, r6, r8, r9, sl, fp, ip, lr}^
     134:	68730054 	ldmdavs	r3!, {r2, r4, r6}^
     138:	2074726f 	rsbscs	r7, r4, pc, ror #4
     13c:	69736e75 	ldmdbvs	r3!, {r0, r2, r4, r5, r6, r9, sl, fp, sp, lr}^
     140:	64656e67 	strbtvs	r6, [r5], #-3687	; 0xfffff199
     144:	746e6920 	strbtvc	r6, [lr], #-2336	; 0xfffff6e0
     148:	73655200 	cmnvc	r5, #0, 4
     14c:	5f656d75 	svcpl	0x00656d75
     150:	006e7376 	rsbeq	r7, lr, r6, ror r3
     154:	64656d2f 	strbtvs	r6, [r5], #-3375	; 0xfffff2d1
     158:	642f6169 	strtvs	r6, [pc], #-361	; 160 <resume1_c_part+0x2c>
     15c:	6b676e61 	blvs	19dbae8 <__bss_end+0x19d896c>
     160:	796d2f75 	stmdbvc	sp!, {r0, r2, r4, r5, r6, r8, r9, sl, fp, sp}^
     164:	6b736964 	blvs	1cda6fc <__bss_end+0x1cd7580>
     168:	6d326d2f 	ldcvs	13, cr6, [r2, #-188]!	; 0xffffff44
     16c:	4950422f 	ldmdbmi	r0, {r0, r1, r2, r3, r5, r9, lr}^
     170:	4d324d2d 	ldcmi	13, cr4, [r2, #-180]!	; 0xffffff4c
     174:	7073622d 	rsbsvc	r6, r3, sp, lsr #4
     178:	6e696c2f 	cdpvs	12, 6, cr6, cr9, cr15, {1}
     17c:	732d7875 			; <UNDEFINED> instruction: 0x732d7875
     180:	69786e75 	ldmdbvs	r8!, {r0, r2, r4, r5, r6, r9, sl, fp, sp, lr}^
     184:	65686300 	strbvs	r6, [r8, #-768]!	; 0xfffffd00
     188:	735f6b63 	cmpvc	pc, #101376	; 0x18c00
     18c:	70006d75 	andvc	r6, r0, r5, ror sp
     190:	685f6275 	ldmdavs	pc, {r0, r2, r4, r5, r6, r9, sp, lr}^	; <UNPREDICTABLE>
     194:	5f646165 	svcpl	0x00646165
     198:	657a6973 	ldrbvs	r6, [sl, #-2419]!	; 0xfffff68d
     19c:	73657200 	cmnvc	r5, #0, 4
     1a0:	5f656d75 	svcpl	0x00656d75
     1a4:	64616568 	strbtvs	r6, [r1], #-1384	; 0xfffffa98
     1a8:	6d756a00 	vldmdbvs	r5!, {s13-s12}
     1ac:	6e695f70 	mcrvs	15, 3, r5, cr9, cr0, {3}
     1b0:	75727473 	ldrbvc	r7, [r2, #-1139]!	; 0xfffffb8d
     1b4:	6f697463 	svcvs	0x00697463
     1b8:	4456006e 	ldrbmi	r0, [r6], #-110	; 0xffffff92
     1bc:	50435f44 	subpl	r5, r3, r4, asr #30
     1c0:	425f5355 	subsmi	r5, pc, #1409286145	; 0x54000001
     1c4:	56005449 	strpl	r5, [r0], -r9, asr #8
     1c8:	505f4343 	subspl	r4, pc, r3, asr #6
     1cc:	49425f4d 	stmdbmi	r2, {r0, r2, r3, r6, r8, r9, sl, fp, ip, lr}^
     1d0:	44560054 	ldrbmi	r0, [r6], #-84	; 0xffffffac
     1d4:	50565f44 	subspl	r5, r6, r4, asr #30
     1d8:	49425f55 	stmdbmi	r2, {r0, r2, r4, r6, r8, r9, sl, fp, ip, lr}^
     1dc:	6f6c0054 	svcvs	0x006c0054
     1e0:	6c20676e 	stcvs	7, cr6, [r0], #-440	; 0xfffffe48
     1e4:	20676e6f 	rsbcs	r6, r7, pc, ror #28
     1e8:	69736e75 	ldmdbvs	r3!, {r0, r2, r4, r5, r6, r9, sl, fp, sp, lr}^
     1ec:	64656e67 	strbtvs	r6, [r5], #-3687	; 0xfffff199
     1f0:	746e6920 	strbtvc	r6, [lr], #-2336	; 0xfffff6e0
     1f4:	44445600 	strbmi	r5, [r4], #-1536	; 0xfffffa00
     1f8:	4152445f 	cmpmi	r2, pc, asr r4
     1fc:	4c4c504d 	mcrrmi	0, 4, r5, ip, cr13
     200:	5449425f 	strbpl	r4, [r9], #-607	; 0xfffffda1
     204:	43435600 	movtmi	r5, #13824	; 0x3600
     208:	5650435f 			; <UNDEFINED> instruction: 0x5650435f
     20c:	425f4444 	subsmi	r4, pc, #68, 8	; 0x44000000
     210:	66005449 	strvs	r5, [r0], -r9, asr #8
     214:	5f656c69 	svcpl	0x00656c69
     218:	64616568 	strbtvs	r6, [r1], #-1384	; 0xfffffa98
     21c:	6e73765f 	mrcvs	6, 3, r7, cr3, cr15, {2}
     220:	43435600 	movtmi	r5, #13824	; 0x3600
     224:	4f444c5f 	svcmi	0x00444c5f
     228:	425f4e49 	subsmi	r4, pc, #1168	; 0x490
     22c:	73005449 	movwvc	r5, #1097	; 0x449
     230:	74657a69 	strbtvc	r7, [r5], #-2665	; 0xfffff597
     234:	00657079 	rsbeq	r7, r5, r9, ror r0
     238:	676e6f6c 	strbvs	r6, [lr, -ip, ror #30]!
     23c:	6e6f6c20 	cdpvs	12, 6, cr6, cr15, cr0, {1}
     240:	6e692067 	cdpvs	0, 6, cr2, cr9, cr7, {3}
     244:	44560074 	ldrbmi	r0, [r6], #-116	; 0xffffff8c
     248:	45525f44 	ldrbmi	r5, [r2, #-3908]	; 0xfffff0bc
     24c:	425f3153 	subsmi	r3, pc, #-1073741804	; 0xc0000014
     250:	56005449 	strpl	r5, [r0], -r9, asr #8
     254:	535f4444 	cmppl	pc, #68, 8	; 0x44000000
     258:	425f5359 	subsmi	r5, pc, #1677721601	; 0x64000001
     25c:	56005449 	strpl	r5, [r0], -r9, asr #8
     260:	4c5f4343 	mrrcmi	3, 4, r4, pc, cr3	; <UNPREDICTABLE>
     264:	52444450 	subpl	r4, r4, #80, 8	; 0x50000000
     268:	5449425f 	strbpl	r4, [r9], #-607	; 0xfffffda1
     26c:	43435600 	movtmi	r5, #13824	; 0x3600
     270:	5f4f495f 	svcpl	0x004f495f
     274:	00544942 	subseq	r4, r4, r2, asr #18
     278:	726f6873 	rsbvc	r6, pc, #7536640	; 0x730000
     27c:	6e692074 	mcrvs	0, 3, r2, cr9, cr4, {3}
     280:	65720074 	ldrbvs	r0, [r2, #-116]!	; 0xffffff8c
     284:	656d7573 	strbvs	r7, [sp, #-1395]!	; 0xfffffa8d
     288:	6c69665f 	stclvs	6, cr6, [r9], #-380	; 0xfffffe84
     28c:	65685f65 	strbvs	r5, [r8, #-3941]!	; 0xfffff09b
     290:	745f6461 	ldrbvc	r6, [pc], #-1121	; 298 <set_pll+0x18>
     294:	63726100 	cmnvs	r2, #0, 2
     298:	72612f68 	rsbvc	r2, r1, #104, 30	; 0x1a0
     29c:	616d2f6d 	cmnvs	sp, sp, ror #30
     2a0:	732d6863 			; <UNDEFINED> instruction: 0x732d6863
     2a4:	69786e75 	ldmdbvs	r8!, {r0, r2, r4, r5, r6, r9, sl, fp, sp, lr}^
     2a8:	2f6d702f 	svccs	0x006d702f
     2ac:	6e617473 	mcrvs	4, 3, r7, cr1, cr3, {3}
     2b0:	2f796264 	svccs	0x00796264
     2b4:	65707573 	ldrbvs	r7, [r0, #-1395]!	; 0xfffffa8d
     2b8:	65722f72 	ldrbvs	r2, [r2, #-3954]!	; 0xfffff08e
     2bc:	656d7573 	strbvs	r7, [sp, #-1395]!	; 0xfffffa8d
     2c0:	7365722f 	cmnvc	r5, #-268435454	; 0xf0000002
     2c4:	5f656d75 	svcpl	0x00656d75
     2c8:	64616568 	strbtvs	r6, [r1], #-1384	; 0xfffffa98
     2cc:	5600632e 	strpl	r6, [r0], -lr, lsr #6
     2d0:	4d5f4343 	ldclmi	3, cr4, [pc, #-268]	; 1cc <resume1_c_part+0x98>
     2d4:	495f5841 	ldmdbmi	pc, {r0, r6, fp, ip, lr}^	; <UNPREDICTABLE>
     2d8:	5845444e 	stmdapl	r5, {r1, r2, r3, r6, sl, lr}^
     2dc:	62757000 	rsbsvs	r7, r5, #0
     2e0:	6165685f 	cmnvs	r5, pc, asr r8
     2e4:	73765f64 	cmnvc	r6, #100, 30	; 0x190
     2e8:	4456006e 	ldrbmi	r0, [r6], #-110	; 0xffffff92
     2ec:	45545f44 	ldrbmi	r5, [r4, #-3908]	; 0xfffff0bc
     2f0:	425f5453 	subsmi	r5, pc, #1392508928	; 0x53000000
     2f4:	6d005449 	cfstrsvs	mvf5, [r0, #-292]	; 0xfffffedc
     2f8:	63696761 	cmnvs	r9, #25427968	; 0x1840000
     2fc:	6e656c00 	cdpvs	12, 6, cr6, cr5, cr0, {0}
     300:	00687467 	rsbeq	r7, r8, r7, ror #8
     304:	5f444456 	svcpl	0x00444456
     308:	32534552 	subscc	r4, r3, #343932928	; 0x14800000
     30c:	5449425f 	strbpl	r4, [r9], #-607	; 0xfffffda1
     310:	616c7000 	cmnvs	ip, r0
     314:	726f6674 	rsbvc	r6, pc, #116, 12	; 0x7400000
     318:	4356006d 	cmpmi	r6, #109	; 0x6d
     31c:	4c505f43 	mrrcmi	15, 4, r5, r0, cr3
     320:	49425f4c 	stmdbmi	r2, {r2, r3, r6, r8, r9, sl, fp, ip, lr}^
     324:	72610054 	rsbvc	r0, r1, #84	; 0x54
     328:	612f6863 			; <UNDEFINED> instruction: 0x612f6863
     32c:	6d2f6d72 	stcvs	13, cr6, [pc, #-456]!	; 16c <resume1_c_part+0x38>
     330:	2d686361 	stclcs	3, cr6, [r8, #-388]!	; 0xfffffe7c
     334:	786e7573 	stmdavc	lr!, {r0, r1, r4, r5, r6, r8, sl, ip, sp, lr}^
     338:	6d702f69 	ldclvs	15, cr2, [r0, #-420]!	; 0xfffffe5c
     33c:	6174732f 	cmnvs	r4, pc, lsr #6
     340:	7962646e 	stmdbvc	r2!, {r1, r2, r3, r5, r6, sl, sp, lr}^
     344:	7075732f 	rsbsvc	r7, r5, pc, lsr #6
     348:	632f7265 			; <UNDEFINED> instruction: 0x632f7265
     34c:	6f6d6d6f 	svcvs	0x006d6d6f
     350:	00632e6e 	rsbeq	r2, r3, lr, ror #28
     354:	5f706d74 	svcpl	0x00706d74
     358:	00747364 	rsbseq	r7, r4, r4, ror #6
     35c:	5f706d74 	svcpl	0x00706d74
     360:	00637273 	rsbeq	r7, r3, r3, ror r2
     364:	5f6d656d 	svcpl	0x006d656d
     368:	636d656d 	cmnvs	sp, #457179136	; 0x1b400000
     36c:	61007970 	tstvs	r0, r0, ror r9
     370:	2f686372 	svccs	0x00686372
     374:	2f6d7261 	svccs	0x006d7261
     378:	6863616d 	stmdavs	r3!, {r0, r2, r3, r5, r6, r8, sp, lr}^
     37c:	6e75732d 	cdpvs	3, 7, cr7, cr5, cr13, {1}
     380:	702f6978 	eorvc	r6, pc, r8, ror r9	; <UNPREDICTABLE>
     384:	74732f6d 	ldrbtvc	r2, [r3], #-3949	; 0xfffff093
     388:	62646e61 	rsbvs	r6, r4, #1552	; 0x610
     38c:	75732f79 	ldrbvc	r2, [r3, #-3961]!	; 0xfffff087
     390:	2f726570 	svccs	0x00726570
     394:	65707573 	ldrbvs	r7, [r0, #-1395]!	; 0xfffffa8d
     398:	77745f72 			; <UNDEFINED> instruction: 0x77745f72
     39c:	00632e69 	rsbeq	r2, r3, r9, ror #28
     3a0:	68637261 	stmdavs	r3!, {r0, r5, r6, r9, ip, sp, lr}^
     3a4:	6d72612f 	ldfvse	f6, [r2, #-188]!	; 0xffffff44
     3a8:	63616d2f 	cmnvs	r1, #3008	; 0xbc0
     3ac:	75732d68 	ldrbvc	r2, [r3, #-3432]!	; 0xfffff298
     3b0:	2f69786e 	svccs	0x0069786e
     3b4:	732f6d70 			; <UNDEFINED> instruction: 0x732f6d70
     3b8:	646e6174 	strbtvs	r6, [lr], #-372	; 0xfffffe8c
     3bc:	732f7962 			; <UNDEFINED> instruction: 0x732f7962
     3c0:	72657075 	rsbvc	r7, r5, #117	; 0x75
     3c4:	7075732f 	rsbsvc	r7, r5, pc, lsr #6
     3c8:	635f7265 	cmpvs	pc, #1342177286	; 0x50000006
     3cc:	6b636f6c 	blvs	18dc184 <__bss_end+0x18d9008>
     3d0:	6100632e 	tstvs	r0, lr, lsr #6
     3d4:	2f686372 	svccs	0x00686372
     3d8:	2f6d7261 	svccs	0x006d7261
     3dc:	6863616d 	stmdavs	r3!, {r0, r2, r3, r5, r6, r8, sp, lr}^
     3e0:	6e75732d 	cdpvs	3, 7, cr7, cr5, cr13, {1}
     3e4:	702f6978 	eorvc	r6, pc, r8, ror r9	; <UNPREDICTABLE>
     3e8:	74732f6d 	ldrbtvc	r2, [r3], #-3949	; 0xfffff093
     3ec:	62646e61 	rsbvs	r6, r4, #1552	; 0x610
     3f0:	75732f79 	ldrbvc	r2, [r3, #-3961]!	; 0xfffff087
     3f4:	2f726570 	svccs	0x00726570
     3f8:	65707573 	ldrbvs	r7, [r0, #-1395]!	; 0xfffffa8d
     3fc:	6f705f72 	svcvs	0x00705f72
     400:	2e726577 	mrccs	5, 3, r6, cr2, cr7, {3}
     404:	72610063 	rsbvc	r0, r1, #99	; 0x63
     408:	612f6863 			; <UNDEFINED> instruction: 0x612f6863
     40c:	6d2f6d72 	stcvs	13, cr6, [pc, #-456]!	; 24c <resume1_c_part+0x118>
     410:	2d686361 	stclcs	3, cr6, [r8, #-388]!	; 0xfffffe7c
     414:	786e7573 	stmdavc	lr!, {r0, r1, r4, r5, r6, r8, sl, ip, sp, lr}^
     418:	6d702f69 	ldclvs	15, cr2, [r0, #-420]!	; 0xfffffe5c
     41c:	6174732f 	cmnvs	r4, pc, lsr #6
     420:	7962646e 	stmdbvc	r2!, {r1, r2, r3, r5, r6, sl, sp, lr}^
     424:	7075732f 	rsbsvc	r7, r5, pc, lsr #6
     428:	732f7265 			; <UNDEFINED> instruction: 0x732f7265
     42c:	72657075 	rsbvc	r7, r5, #117	; 0x75
     430:	7570635f 	ldrbvc	r6, [r0, #-863]!	; 0xfffffca1
     434:	00632e73 	rsbeq	r2, r3, r3, ror lr
     438:	326c6c50 	rsbcc	r6, ip, #80, 24	; 0x5000
     43c:	754f4d34 	strbvc	r4, [pc, #-3380]	; fffff710 <__bss_end+0xffffc594>
     440:	006e4574 	rsbeq	r4, lr, r4, ror r5
     444:	446c6c50 	strbtmi	r6, [ip], #-3152	; 0xfffff3b0
     448:	306d6172 	rsbcc	r6, sp, r2, ror r1
     44c:	74746150 	ldrbtvc	r6, [r4], #-336	; 0xfffffeb0
     450:	006e7265 	rsbeq	r7, lr, r5, ror #4
     454:	43435f5f 	movtmi	r5, #16223	; 0x3f5f
     458:	415f554d 	cmpmi	pc, sp, asr #10
     45c:	5f314248 	svcpl	0x00314248
     460:	49544152 	ldmdbmi	r4, {r1, r4, r6, r8, lr}^
     464:	45525f4f 	ldrbmi	r5, [r2, #-3919]	; 0xfffff0b1
     468:	35303047 	ldrcc	r3, [r0, #-71]!	; 0xffffffb9
     46c:	70630034 	rsbvc	r0, r3, r4, lsr r0
     470:	725f3175 	subsvc	r3, pc, #1073741853	; 0x4000001d
     474:	74657365 	strbtvc	r7, [r5], #-869	; 0xfffffc9b
     478:	62656400 	rsbvs	r6, r5, #0, 8
     47c:	6d5f6775 	ldclvs	7, cr6, [pc, #-468]	; 2b0 <set_pll+0x30>
     480:	006b7361 	rsbeq	r7, fp, r1, ror #6
     484:	63635f5f 	cmnvs	r3, #380	; 0x17c
     488:	6d5f756d 	cfldr64vs	mvdx7, [pc, #-436]	; 2dc <set_pll+0x5c>
     48c:	5f697069 	svcpl	0x00697069
     490:	5f6c6c70 	svcpl	0x006c6c70
     494:	30676572 	rsbcc	r6, r7, r2, ror r5
     498:	5f303430 	svcpl	0x00303430
     49c:	65720074 	ldrbvs	r0, [r2, #-116]!	; 0xffffff8c
     4a0:	76726573 			; <UNDEFINED> instruction: 0x76726573
     4a4:	33316465 	teqcc	r1, #1694498816	; 0x65000000
     4a8:	65720032 	ldrbvs	r0, [r2, #-50]!	; 0xffffffce
     4ac:	76726573 			; <UNDEFINED> instruction: 0x76726573
     4b0:	33316465 	teqcc	r1, #1694498816	; 0x65000000
     4b4:	65720033 	ldrbvs	r0, [r2, #-51]!	; 0xffffffcd
     4b8:	76726573 			; <UNDEFINED> instruction: 0x76726573
     4bc:	33316465 	teqcc	r1, #1694498816	; 0x65000000
     4c0:	65720034 	ldrbvs	r0, [r2, #-52]!	; 0xffffffcc
     4c4:	726f7473 	rsbvc	r7, pc, #1929379840	; 0x73000000
     4c8:	6d6d5f65 	stclvs	15, cr5, [sp, #-404]!	; 0xfffffe6c
     4cc:	74735f75 	ldrbtvc	r5, [r3], #-3957	; 0xfffff08b
     4d0:	00657461 	rsbeq	r7, r5, r1, ror #8
     4d4:	61767764 	cmnvs	r6, r4, ror #14
     4d8:	6173006c 	cmnvs	r3, ip, rrx
     4dc:	5f646576 	svcpl	0x00646576
     4e0:	746e7572 	strbtvc	r7, [lr], #-1394	; 0xfffffa8e
     4e4:	5f656d69 	svcpl	0x00656d69
     4e8:	746e6f63 	strbtvc	r6, [lr], #-3939	; 0xfffff09d
     4ec:	5f747865 	svcpl	0x00747865
     4f0:	00637673 	rsbeq	r7, r3, r3, ror r6
     4f4:	706d756a 	rsbvc	r7, sp, sl, ror #10
     4f8:	5f6f745f 	svcpl	0x006f745f
     4fc:	75736572 	ldrbvc	r6, [r3, #-1394]!	; 0xfffffa8e
     500:	7300656d 	movwvc	r6, #1389	; 0x56d
     504:	5f657661 	svcpl	0x00657661
     508:	5f6d656d 	svcpl	0x006d656d
     50c:	74617473 	strbtvc	r7, [r1], #-1139	; 0xfffffb8d
     510:	4c007375 	stcmi	3, cr7, [r0], {117}	; 0x75
     514:	43306463 	teqmi	r0, #1660944384	; 0x63000000
     518:	4c003068 	stcmi	0, cr3, [r0], {104}	; 0x68
     51c:	43306463 	teqmi	r0, #1660944384	; 0x63000000
     520:	61003168 	tstvs	r0, r8, ror #2
     524:	645f6978 	ldrbvs	r6, [pc], #-2424	; 52c <io_init_low+0x14>
     528:	67007669 	strvs	r7, [r0, -r9, ror #12]
     52c:	635f7465 	cmpvs	pc, #1694498816	; 0x65000000
     530:	635f7275 	cmpvs	pc, #1342177287	; 0x50000007
     534:	7473756c 	ldrbtvc	r7, [r3], #-1388	; 0xfffffa94
     538:	695f7265 	ldmdbvs	pc, {r0, r2, r5, r6, r9, ip, sp, lr}^	; <UNPREDICTABLE>
     53c:	6c500064 	mrrcvs	0, 6, r0, r0, cr4	; <UNPREDICTABLE>
     540:	7443366c 	strbvc	r3, [r3], #-1644	; 0xfffff994
     544:	656d006c 	strbvs	r0, [sp, #-108]!	; 0xffffff94
     548:	6c635f6d 	stclvs	15, cr5, [r3], #-436	; 0xfffffe4c
     54c:	6e695f6b 	cdpvs	15, 6, cr5, cr9, cr11, {3}
     550:	72007469 	andvc	r7, r0, #1761607680	; 0x69000000
     554:	72657365 	rsbvc	r7, r5, #-1811939327	; 0x94000001
     558:	31646576 	smccc	18006	; 0x4656
     55c:	72003134 	andvc	r3, r0, #52, 2
     560:	72657365 	rsbvc	r7, r5, #-1811939327	; 0x94000001
     564:	31646576 	smccc	18006	; 0x4656
     568:	72003234 	andvc	r3, r0, #52, 4	; 0x40000003
     56c:	72657365 	rsbvc	r7, r5, #-1811939327	; 0x94000001
     570:	31646576 	smccc	18006	; 0x4656
     574:	69003334 	stmdbvs	r0, {r2, r4, r5, r8, r9, ip, sp}
     578:	7865646e 	stmdavc	r5!, {r1, r2, r3, r5, r6, sl, sp, lr}^
     57c:	6c6c5000 	stclvs	0, cr5, [ip], #-0
     580:	00637253 	rsbeq	r7, r3, r3, asr r2
     584:	65766173 	ldrbvs	r6, [r6, #-371]!	; 0xfffffe8d
     588:	6d6d5f64 	stclvs	15, cr5, [sp, #-400]!	; 0xfffffe70
     58c:	74735f75 	ldrbtvc	r5, [r3], #-3957	; 0xfffff08b
     590:	00657461 	rsbeq	r7, r5, r1, ror #8
     594:	30733249 	rsbscc	r3, r3, r9, asr #4
     598:	73324900 	teqvc	r2, #0, 18
     59c:	6c500031 	mrrcvs	0, 3, r0, r0, cr1	; <UNPREDICTABLE>
     5a0:	4330316c 	teqmi	r0, #108, 2
     5a4:	50006c74 	andpl	r6, r0, r4, ror ip
     5a8:	43346c6c 	teqmi	r4, #108, 24	; 0x6c00
     5ac:	50006c74 	andpl	r6, r0, r4, ror ip
     5b0:	54535f4d 	ldrbpl	r5, [r3], #-3917	; 0xfffff0b3
     5b4:	42444e41 	submi	r4, r4, #1040	; 0x410
     5b8:	4e455f59 	mcrmi	15, 2, r5, cr5, cr9, {2}
     5bc:	454c4241 	strbmi	r4, [ip, #-577]	; 0xfffffdbf
     5c0:	41544a5f 	cmpmi	r4, pc, asr sl
     5c4:	5f5f0047 	svcpl	0x005f0047
     5c8:	756d6363 	strbvc	r6, [sp, #-867]!	; 0xfffffc9d
     5cc:	6c6c705f 	stclvs	0, cr7, [ip], #-380	; 0xfffffe84
     5d0:	65725f36 	ldrbvs	r5, [r2, #-3894]!	; 0xfffff0ca
     5d4:	32303067 	eorscc	r3, r0, #103	; 0x67
     5d8:	00745f38 	rsbseq	r5, r4, r8, lsr pc
     5dc:	6970694d 	ldmdbvs	r0!, {r0, r2, r3, r6, r8, fp, sp, lr}^
     5e0:	00697344 	rsbeq	r7, r9, r4, asr #6
     5e4:	696e6f6d 	stmdbvs	lr!, {r0, r2, r3, r5, r6, r8, r9, sl, fp, sp, lr}^
     5e8:	5f726f74 	svcpl	0x00726f74
     5ec:	74636576 	strbtvc	r6, [r3], #-1398	; 0xfffffa8a
     5f0:	5f00726f 	svcpl	0x0000726f
     5f4:	6d63635f 	stclvs	3, cr6, [r3, #-380]!	; 0xfffffe84
     5f8:	79735f75 	ldmdbvc	r3!, {r0, r2, r4, r5, r6, r8, r9, sl, fp, ip, lr}^
     5fc:	6b6c6373 	blvs	1b193d0 <__bss_end+0x1b16254>
     600:	7461725f 	strbtvc	r7, [r1], #-607	; 0xfffffda1
     604:	725f6f69 	subsvc	r6, pc, #420	; 0x1a4
     608:	30306765 	eorscc	r6, r0, r5, ror #14
     60c:	745f3035 	ldrbvc	r3, [pc], #-53	; 614 <change_runtime_env+0x2c>
     610:	6f644c00 	svcvs	0x00644c00
     614:	006e4532 	rsbeq	r4, lr, r2, lsr r5
     618:	5f6d656d 	svcpl	0x006d656d
     61c:	5f6b6c63 	svcpl	0x006b6c63
     620:	5f746573 	svcpl	0x00746573
     624:	6373696d 	cmnvs	r3, #1785856	; 0x1b4000
     628:	6c6c5000 	stclvs	0, cr5, [ip], #-0
     62c:	69647541 	stmdbvs	r4!, {r0, r6, r8, sl, ip, sp, lr}^
     630:	6169426f 	cmnvs	r9, pc, ror #4
     634:	70630073 	rsbvc	r0, r3, r3, ror r0
     638:	725f3375 	subsvc	r3, pc, #-738197503	; 0xd4000001
     63c:	74657365 	strbtvc	r7, [r5], #-869	; 0xfffffc9b
     640:	6c6c7000 	stclvs	0, cr7, [ip], #-0
     644:	6361665f 	cmnvs	r1, #99614720	; 0x5f00000
     648:	5f726f74 	svcpl	0x00726f74
     64c:	65720074 	ldrbvs	r0, [r2, #-116]!	; 0xffffff8c
     650:	76726573 			; <UNDEFINED> instruction: 0x76726573
     654:	35316465 	ldrcc	r6, [r1, #-1125]!	; 0xfffffb9b
     658:	65720031 	ldrbvs	r0, [r2, #-49]!	; 0xffffffcf
     65c:	76726573 			; <UNDEFINED> instruction: 0x76726573
     660:	35316465 	ldrcc	r6, [r1, #-1125]!	; 0xfffffb9b
     664:	65720032 	ldrbvs	r0, [r2, #-50]!	; 0xffffffce
     668:	76726573 			; <UNDEFINED> instruction: 0x76726573
     66c:	35316465 	ldrcc	r6, [r1, #-1125]!	; 0xfffffb9b
     670:	65720033 	ldrbvs	r0, [r2, #-51]!	; 0xffffffcd
     674:	76726573 			; <UNDEFINED> instruction: 0x76726573
     678:	35316465 	ldrcc	r6, [r1, #-1125]!	; 0xfffffb9b
     67c:	6c500034 	mrrcvs	0, 3, r0, r0, cr4	; <UNPREDICTABLE>
     680:	6973486c 	ldmdbvs	r3!, {r2, r3, r5, r6, fp, lr}^
     684:	74615063 	strbtvc	r5, [r1], #-99	; 0xffffff9d
     688:	6e726574 	mrcvs	5, 3, r6, cr2, cr4, {3}
     68c:	625f5f00 	subsvs	r5, pc, #0, 30
     690:	655f7373 	ldrbvs	r7, [pc, #-883]	; 325 <set_pll+0xa5>
     694:	5000646e 	andpl	r6, r0, lr, ror #8
     698:	66434c4c 	strbvs	r4, [r3], -ip, asr #24
     69c:	64705567 	ldrbtvs	r5, [r0], #-1383	; 0xfffffa99
     6a0:	00657461 	rsbeq	r7, r5, r1, ror #8
     6a4:	486c6c50 	stmdami	ip!, {r4, r6, sl, fp, sp, lr}^
     6a8:	42636973 	rsbmi	r6, r3, #1884160	; 0x1cc000
     6ac:	00736169 	rsbseq	r6, r3, r9, ror #2
     6b0:	63635f5f 	cmnvs	r3, #380	; 0x17c
     6b4:	705f756d 	subsvc	r7, pc, sp, ror #10
     6b8:	5f356c6c 	svcpl	0x00356c6c
     6bc:	30676572 	rsbcc	r6, r7, r2, ror r5
     6c0:	5f303230 	svcpl	0x00303230
     6c4:	6c500074 	mrrcvs	0, 7, r0, r0, cr4	; <UNPREDICTABLE>
     6c8:	7554316c 	ldrbvc	r3, [r4, #-364]	; 0xfffffe94
     6cc:	424d006e 	submi	r0, sp, #110	; 0x6e
     6d0:	00307375 	eorseq	r7, r0, r5, ror r3
     6d4:	53626656 	cmnpl	r2, #90177536	; 0x5600000
     6d8:	50006c65 	andpl	r6, r0, r5, ror #24
     6dc:	54535f4d 	ldrbpl	r5, [r3], #-3917	; 0xfffff0b3
     6e0:	42444e41 	submi	r4, r4, #1040	; 0x410
     6e4:	52505f59 	subspl	r5, r0, #356	; 0x164
     6e8:	5f544e49 	svcpl	0x00544e49
     6ec:	5f554343 	svcpl	0x00554343
     6f0:	54415453 	strbpl	r5, [r1], #-1107	; 0xfffffbad
     6f4:	50005355 	andpl	r5, r0, r5, asr r3
     6f8:	54535f4d 	ldrbpl	r5, [r3], #-3917	; 0xfffff0b3
     6fc:	42444e41 	submi	r4, r4, #1040	; 0x410
     700:	52505f59 	subspl	r5, r0, #356	; 0x164
     704:	5f544e49 	svcpl	0x00544e49
     708:	54524f50 	ldrbpl	r4, [r2], #-3920	; 0xfffff0b0
     70c:	5f4d5000 	svcpl	0x004d5000
     710:	4e415453 	mcrmi	4, 2, r5, cr1, cr3, {2}
     714:	5f594244 	svcpl	0x00594244
     718:	4e495250 	mcrmi	2, 2, r5, cr9, cr0, {2}
     71c:	45525f54 	ldrbmi	r5, [r2, #-3924]	; 0xfffff0ac
     720:	454d5553 	strbmi	r5, [sp, #-1363]	; 0xfffffaad
     724:	5f4f495f 	svcpl	0x004f495f
     728:	54415453 	strbpl	r5, [r1], #-1107	; 0xfffffbad
     72c:	4d005355 	stcmi	3, cr5, [r0, #-340]	; 0xfffffeac
     730:	50697069 	rsbpl	r7, r9, r9, rrx
     734:	74436c6c 	strbvc	r6, [r3], #-3180	; 0xfffff394
     738:	6146006c 	cmpvs	r6, ip, rrx
     73c:	726f7463 	rsbvc	r7, pc, #1660944384	; 0x63000000
     740:	6146004b 	cmpvs	r6, fp, asr #32
     744:	726f7463 	rsbvc	r7, pc, #1660944384	; 0x63000000
     748:	6146004d 	cmpvs	r6, sp, asr #32
     74c:	726f7463 	rsbvc	r7, pc, #1660944384	; 0x63000000
     750:	7041004e 	subvc	r0, r1, lr, asr #32
     754:	69443262 	stmdbvs	r4, {r1, r5, r6, r9, ip, sp}^
     758:	61460076 	hvcvs	24582	; 0x6006
     75c:	726f7463 	rsbvc	r7, pc, #1660944384	; 0x63000000
     760:	65720050 	ldrbvs	r0, [r2, #-80]!	; 0xffffffb0
     764:	76726573 			; <UNDEFINED> instruction: 0x76726573
     768:	30326465 	eorscc	r6, r2, r5, ror #8
     76c:	65720032 	ldrbvs	r0, [r2, #-50]!	; 0xffffffce
     770:	76726573 			; <UNDEFINED> instruction: 0x76726573
     774:	30326465 	eorscc	r6, r2, r5, ror #8
     778:	65720033 	ldrbvs	r0, [r2, #-51]!	; 0xffffffcd
     77c:	76726573 			; <UNDEFINED> instruction: 0x76726573
     780:	30326465 	eorscc	r6, r2, r5, ror #8
     784:	65720034 	ldrbvs	r0, [r2, #-52]!	; 0xffffffcc
     788:	76726573 			; <UNDEFINED> instruction: 0x76726573
     78c:	30326465 	eorscc	r6, r2, r5, ror #8
     790:	65720035 	ldrbvs	r0, [r2, #-53]!	; 0xffffffcb
     794:	76726573 			; <UNDEFINED> instruction: 0x76726573
     798:	30326465 	eorscc	r6, r2, r5, ror #8
     79c:	6c500036 	mrrcvs	0, 3, r0, r0, cr6	; <UNPREDICTABLE>
     7a0:	7570476c 	ldrbvc	r4, [r0, #-1900]!	; 0xfffff894
     7a4:	73616942 	cmnvc	r1, #1081344	; 0x108000
     7a8:	73757300 	cmnvc	r5, #0, 6
     7ac:	646e6570 	strbtvs	r6, [lr], #-1392	; 0xfffffa90
     7b0:	6c65645f 	cfstrdvs	mvd6, [r5], #-380	; 0xfffffe84
     7b4:	6d5f7961 	ldclvs	9, cr7, [pc, #-388]	; 638 <delay_us+0x20>
     7b8:	65730073 	ldrbvs	r0, [r3, #-115]!	; 0xffffff8d
     7bc:	6c616972 	stclvs	9, cr6, [r1], #-456	; 0xfffffe38
     7c0:	7475705f 	ldrbtvc	r7, [r5], #-95	; 0xffffffa1
     7c4:	6f6e5f73 	svcvs	0x006e5f73
     7c8:	00756d6d 	rsbseq	r6, r5, sp, ror #26
     7cc:	4d757047 	ldclmi	0, cr7, [r5, #-284]!	; 0xfffffee4
     7d0:	50006d65 	andpl	r6, r0, r5, ror #26
     7d4:	70476c6c 	subvc	r6, r7, ip, ror #24
     7d8:	74615075 	strbtvc	r5, [r1], #-117	; 0xffffff8b
     7dc:	6e726574 	mrcvs	5, 3, r6, cr2, cr4, {3}
     7e0:	6b6c6300 	blvs	1b193e8 <__bss_end+0x1b1626c>
     7e4:	7669645f 			; <UNDEFINED> instruction: 0x7669645f
     7e8:	76694400 	strbtvc	r4, [r9], -r0, lsl #8
     7ec:	6944004d 	stmdbvs	r4, {r0, r2, r3, r6}^
     7f0:	73004e76 	movwvc	r4, #3702	; 0xe76
     7f4:	64657661 	strbtvs	r7, [r5], #-1633	; 0xfffff99f
     7f8:	6365735f 	cmnvs	r5, #2080374785	; 0x7c000001
     7fc:	5f657275 	svcpl	0x00657275
     800:	5f756d6d 	svcpl	0x00756d6d
     804:	74617473 	strbtvc	r7, [r1], #-1139	; 0xfffffb8d
     808:	4d500065 	ldclmi	0, cr0, [r0, #-404]	; 0xfffffe6c
     80c:	4154535f 	cmpmi	r4, pc, asr r3
     810:	5942444e 	stmdbpl	r2, {r1, r2, r3, r6, sl, lr}^
     814:	4952505f 	ldmdbmi	r2, {r0, r1, r2, r3, r4, r6, ip, lr}^
     818:	535f544e 	cmppl	pc, #1308622848	; 0x4e000000
     81c:	444e4154 	strbmi	r4, [lr], #-340	; 0xfffffeac
     820:	41005942 	tstmi	r0, r2, asr #18
     824:	52326270 	eorspl	r6, r2, #112, 4
     828:	74657365 	strbtvc	r7, [r5], #-869	; 0xfffffc9b
     82c:	62686100 	rsbvs	r6, r8, #0, 2
     830:	6270615f 	rsbsvs	r6, r0, #-1073741801	; 0xc0000017
     834:	7669645f 			; <UNDEFINED> instruction: 0x7669645f
     838:	5f4d5000 	svcpl	0x004d5000
     83c:	4e415453 	mcrmi	4, 2, r5, cr1, cr3, {2}
     840:	5f594244 	svcpl	0x00594244
     844:	4e495250 	mcrmi	2, 2, r5, cr9, cr0, {2}
     848:	4f495f54 	svcmi	0x00495f54
     84c:	4154535f 	cmpmi	r4, pc, asr r3
     850:	00535554 	subseq	r5, r3, r4, asr r5
     854:	65736572 	ldrbvs	r6, [r3, #-1394]!	; 0xfffffa8e
     858:	64657672 	strbtvs	r7, [r5], #-1650	; 0xfffff98e
     85c:	00313731 	eorseq	r3, r1, r1, lsr r7
     860:	65736572 	ldrbvs	r6, [r3, #-1394]!	; 0xfffffa8e
     864:	64657672 	strbtvs	r7, [r5], #-1650	; 0xfffff98e
     868:	00323731 	eorseq	r3, r2, r1, lsr r7
     86c:	65736572 	ldrbvs	r6, [r3, #-1394]!	; 0xfffffa8e
     870:	64657672 	strbtvs	r7, [r5], #-1650	; 0xfffff98e
     874:	00333731 	eorseq	r3, r3, r1, lsr r7
     878:	4c6c6c50 	stclmi	12, cr6, [ip], #-320	; 0xfffffec0
     87c:	006b636f 	rsbeq	r6, fp, pc, ror #6
     880:	316c6c70 	smccc	50880	; 0xc6c0
     884:	6e75745f 	mrcvs	4, 3, r7, cr5, cr15, {2}
     888:	435f5f00 	cmpmi	pc, #0, 30
     88c:	5f554d43 	svcpl	0x00554d43
     890:	384c4c50 	stmdacc	ip, {r4, r6, sl, fp, lr}^
     894:	4745525f 	smlsldmi	r5, r5, pc, r2	; <UNPREDICTABLE>
     898:	38333030 	ldmdacc	r3!, {r4, r5, ip, sp}
     89c:	75704700 	ldrbvc	r4, [r0, #-1792]!	; 0xfffff900
     8a0:	65726f43 	ldrbvs	r6, [r2, #-3907]!	; 0xfffff0bd
     8a4:	70654900 	rsbvc	r4, r5, r0, lsl #18
     8a8:	30637244 	rsbcc	r7, r3, r4, asr #4
     8ac:	6d656d00 	stclvs	13, cr6, [r5, #-0]
     8b0:	6b6c635f 	blvs	1b19634 <__bss_end+0x1b164b8>
     8b4:	7465735f 	strbtvc	r7, [r5], #-863	; 0xfffffca1
     8b8:	6c6c705f 	stclvs	0, cr7, [ip], #-380	; 0xfffffe84
     8bc:	6361665f 	cmnvs	r1, #99614720	; 0x5f00000
     8c0:	00726f74 	rsbseq	r6, r2, r4, ror pc
     8c4:	43757043 	cmnmi	r5, #67	; 0x43
     8c8:	72536b6c 	subsvc	r6, r3, #108, 22	; 0x1b000
     8cc:	656d0063 	strbvs	r0, [sp, #-99]!	; 0xffffff9d
     8d0:	74735f6d 	ldrbtvc	r5, [r3], #-3949	; 0xfffff093
     8d4:	73757461 	cmnvc	r5, #1627389952	; 0x61000000
     8d8:	696e695f 	stmdbvs	lr!, {r0, r1, r2, r3, r4, r6, r8, fp, sp, lr}^
     8dc:	6f6e5f74 	svcvs	0x006e5f74
     8e0:	00756d6d 	rsbseq	r6, r5, sp, ror #26
     8e4:	73625f5f 	cmnvc	r2, #380	; 0x17c
     8e8:	74735f73 	ldrbtvc	r5, [r3], #-3955	; 0xfffff08d
     8ec:	00747261 	rsbseq	r7, r4, r1, ror #4
     8f0:	72636164 	rsbvc	r6, r3, #100, 2
     8f4:	73657200 	cmnvc	r5, #0, 4
     8f8:	65767265 	ldrbvs	r7, [r6, #-613]!	; 0xfffffd9b
     8fc:	31383164 	teqcc	r8, r4, ror #2
     900:	63726100 	cmnvs	r2, #0, 2
     904:	72612f68 	rsbvc	r2, r1, #104, 30	; 0x1a0
     908:	616d2f6d 	cmnvs	sp, sp, ror #30
     90c:	732d6863 			; <UNDEFINED> instruction: 0x732d6863
     910:	69786e75 	ldmdbvs	r8!, {r0, r2, r4, r5, r6, r9, sl, fp, sp, lr}^
     914:	2f6d702f 	svccs	0x006d702f
     918:	6e617473 	mcrvs	4, 3, r7, cr1, cr3, {3}
     91c:	2f796264 	svccs	0x00796264
     920:	65707573 	ldrbvs	r7, [r0, #-1395]!	; 0xfffffa8d
     924:	65722f72 	ldrbvs	r2, [r2, #-3954]!	; 0xfffff08e
     928:	656d7573 	strbvs	r7, [sp, #-1395]!	; 0xfffffa8d
     92c:	7365722f 	cmnvc	r5, #-268435454	; 0xf0000002
     930:	31656d75 	smccc	22229	; 0x56d5
     934:	705f635f 	subsvc	r6, pc, pc, asr r3	; <UNPREDICTABLE>
     938:	2e747261 	cdpcs	2, 7, cr7, cr4, cr1, {3}
     93c:	68410063 	stmdavs	r1, {r0, r1, r5, r6}^
     940:	74614762 	strbtvc	r4, [r1], #-1890	; 0xfffff89e
     944:	50003165 	andpl	r3, r0, r5, ror #2
     948:	54535f4d 	ldrbpl	r5, [r3], #-3917	; 0xfffff0b3
     94c:	42444e41 	submi	r4, r4, #1040	; 0x410
     950:	52505f59 	subspl	r5, r0, #356	; 0x164
     954:	5f544e49 	svcpl	0x00544e49
     958:	55425447 	strbpl	r5, [r2, #-1095]	; 0xfffffbb9
     95c:	45525f53 	ldrbmi	r5, [r2, #-3923]	; 0xfffff0ad
     960:	6c500047 	mrrcvs	0, 4, r0, r0, cr7	; <UNPREDICTABLE>
     964:	6465566c 	strbtvs	r5, [r5], #-1644	; 0xfffff994
     968:	69426f69 	stmdbvs	r2, {r0, r3, r5, r6, r8, r9, sl, fp, sp, lr}^
     96c:	6d007361 	stcvs	3, cr7, [r0, #-388]	; 0xfffffe7c
     970:	665f6d65 	ldrbvs	r6, [pc], -r5, ror #26
     974:	0067616c 	rsbeq	r6, r7, ip, ror #2
     978:	316c6c50 	cmncc	ip, r0, asr ip
     97c:	006c7443 	rsbeq	r7, ip, r3, asr #8
     980:	61646441 	cmnvs	r4, r1, asr #8
     984:	6d656d00 	stclvs	13, cr6, [r5, #-0]
     988:	756c665f 	strbvc	r6, [ip, #-1631]!	; 0xfffff9a1
     98c:	745f6873 	ldrbvc	r6, [pc], #-2163	; 994 <loop1+0x2c>
     990:	6900626c 	stmdbvs	r0, {r2, r3, r5, r6, r9, sp, lr}
     994:	5f74696e 	svcpl	0x0074696e
     998:	66726570 			; <UNDEFINED> instruction: 0x66726570
     99c:	6e756f63 	cdpvs	15, 7, cr6, cr5, cr3, {3}
     9a0:	73726574 	cmnvc	r2, #116, 10	; 0x1d000000
     9a4:	635f5f00 	cmpvs	pc, #0, 30
     9a8:	5f756d63 	svcpl	0x00756d63
     9ac:	386c6c70 	stmdacc	ip!, {r4, r5, r6, sl, fp, sp, lr}^
     9b0:	6765725f 			; <UNDEFINED> instruction: 0x6765725f
     9b4:	38333030 	ldmdacc	r3!, {r4, r5, ip, sp}
     9b8:	7300745f 	movwvc	r7, #1119	; 0x45f
     9bc:	61697265 	cmnvs	r9, r5, ror #4
     9c0:	6e695f6c 	cdpvs	15, 6, cr5, cr9, cr12, {3}
     9c4:	6e5f7469 	cdpvs	4, 5, cr7, cr15, cr9, {3}
     9c8:	756d6d6f 	strbvc	r6, [sp, #-3439]!	; 0xfffff291
     9cc:	6c6c5000 	stclvs	0, cr5, [ip], #-0
     9d0:	6c744338 	ldclvs	3, cr4, [r4], #-224	; 0xffffff20
     9d4:	73657200 	cmnvc	r5, #0, 4
     9d8:	65767265 	ldrbvs	r7, [r6, #-613]!	; 0xfffffd9b
     9dc:	00303164 	eorseq	r3, r0, r4, ror #2
     9e0:	43435f5f 	movtmi	r5, #16223	; 0x3f5f
     9e4:	505f554d 	subspl	r5, pc, sp, asr #10
     9e8:	4f4c4c4c 	svcmi	0x004c4c4c
     9ec:	525f4b43 	subspl	r4, pc, #68608	; 0x10c00
     9f0:	32304745 	eorscc	r4, r0, #18087936	; 0x1140000
     9f4:	72003030 	andvc	r3, r0, #48	; 0x30
     9f8:	72657365 	rsbvc	r7, r5, #-1811939327	; 0x94000001
     9fc:	31646576 	smccc	18006	; 0x4656
     a00:	63640032 	cmnvs	r4, #50	; 0x32
     a04:	00326364 	eorseq	r6, r2, r4, ror #6
     a08:	65736572 	ldrbvs	r6, [r3, #-1394]!	; 0xfffffa8e
     a0c:	64657672 	strbtvs	r7, [r5], #-1650	; 0xfffff98e
     a10:	72003431 	andvc	r3, r0, #822083584	; 0x31000000
     a14:	72657365 	rsbvc	r7, r5, #-1811939327	; 0x94000001
     a18:	31646576 	smccc	18006	; 0x4656
     a1c:	65720035 	ldrbvs	r0, [r2, #-53]!	; 0xffffffcb
     a20:	76726573 			; <UNDEFINED> instruction: 0x76726573
     a24:	36316465 	ldrtcc	r6, [r1], -r5, ror #8
     a28:	73657200 	cmnvc	r5, #0, 4
     a2c:	65767265 	ldrbvs	r7, [r6, #-613]!	; 0xfffffd9b
     a30:	00373164 	eorseq	r3, r7, r4, ror #2
     a34:	446c6c50 	strbtmi	r6, [ip], #-3152	; 0xfffff3b0
     a38:	66437264 	strbvs	r7, [r3], -r4, ror #4
     a3c:	65720067 	ldrbvs	r0, [r2, #-103]!	; 0xffffff99
     a40:	76726573 			; <UNDEFINED> instruction: 0x76726573
     a44:	39316465 	ldmdbcc	r1!, {r0, r2, r5, r6, sl, sp, lr}
     a48:	6b6c6300 	blvs	1b19650 <__bss_end+0x1b164d4>
     a4c:	73696d5f 	cmnvc	r9, #6080	; 0x17c0
     a50:	6c500063 	mrrcvs	0, 6, r0, r0, cr3	; <UNPREDICTABLE>
     a54:	70694d6c 	rsbvc	r4, r9, ip, ror #26
     a58:	74615069 	strbtvc	r5, [r1], #-105	; 0xffffff97
     a5c:	6e726574 	mrcvs	5, 3, r6, cr2, cr4, {3}
     a60:	67695300 	strbvs	r5, [r9, -r0, lsl #6]!
     a64:	6e45616d 	dvfvssz	f6, f5, #5.0
     a68:	67695300 	strbvs	r5, [r9, -r0, lsl #6]!
     a6c:	6544616d 	strbvs	r6, [r4, #-365]	; 0xfffffe93
     a70:	4561746c 	strbmi	r7, [r1, #-1132]!	; 0xfffffb94
     a74:	6364006e 	cmnvs	r4, #110	; 0x6e
     a78:	00336364 	eorseq	r6, r3, r4, ror #6
     a7c:	63627474 	cmnvs	r2, #116, 8	; 0x74000000
     a80:	5f5f0072 	svcpl	0x005f0072
     a84:	00323375 	eorseq	r3, r2, r5, ror r3
     a88:	5f6d656d 	svcpl	0x006d656d
     a8c:	5f6b6c63 	svcpl	0x006b6c63
     a90:	64746573 	ldrbtvs	r6, [r4], #-1395	; 0xfffffa8d
     a94:	72007669 	andvc	r7, r0, #110100480	; 0x6900000
     a98:	6d757365 	ldclvs	3, cr7, [r5, #-404]!	; 0xfffffe6c
     a9c:	635f3165 	cmpvs	pc, #1073741849	; 0x40000019
     aa0:	7261705f 	rsbvc	r7, r1, #95	; 0x5f
     aa4:	6c500074 	mrrcvs	0, 7, r0, r0, cr4	; <UNPREDICTABLE>
     aa8:	6942786c 	stmdbvs	r2, {r2, r3, r5, r6, fp, ip, sp, lr}^
     aac:	50007361 	andpl	r7, r0, r1, ror #6
     ab0:	694d6c6c 	stmdbvs	sp, {r2, r3, r5, r6, sl, fp, sp, lr}^
     ab4:	69426970 	stmdbvs	r2, {r4, r5, r6, r8, fp, sp, lr}^
     ab8:	50007361 	andpl	r7, r0, r1, ror #6
     abc:	50316c6c 	eorspl	r6, r1, ip, ror #24
     ac0:	65747461 	ldrbvs	r7, [r4, #-1121]!	; 0xfffffb9f
     ac4:	4d006e72 	stcmi	14, cr6, [r0, #-456]	; 0xfffffe38
     ac8:	50697069 	rsbpl	r7, r9, r9, rrx
     acc:	75546c6c 	ldrbvc	r6, [r4, #-3180]	; 0xfffff394
     ad0:	6962006e 	stmdbvs	r2!, {r1, r2, r3, r5, r6}^
     ad4:	72007374 	andvc	r7, r0, #116, 6	; 0xd0000001
     ad8:	72657365 	rsbvc	r7, r5, #-1811939327	; 0x94000001
     adc:	32646576 	rsbcc	r6, r4, #494927872	; 0x1d800000
     ae0:	65720031 	ldrbvs	r0, [r2, #-49]!	; 0xffffffcf
     ae4:	76726573 			; <UNDEFINED> instruction: 0x76726573
     ae8:	32326465 	eorscc	r6, r2, #1694498816	; 0x65000000
     aec:	6c6c5000 	stclvs	0, cr5, [ip], #-0
     af0:	69426556 	stmdbvs	r2, {r1, r2, r4, r6, r8, sl, sp, lr}^
     af4:	50007361 	andpl	r7, r0, r1, ror #6
     af8:	54356c6c 	ldrtpl	r6, [r5], #-3180	; 0xfffff394
     afc:	70006e75 	andvc	r6, r0, r5, ror lr
     b00:	746e6972 	strbtvc	r6, [lr], #-2418	; 0xfffff68e
     b04:	6572006b 	ldrbvs	r0, [r2, #-107]!	; 0xffffff95
     b08:	76726573 			; <UNDEFINED> instruction: 0x76726573
     b0c:	31316465 	teqcc	r1, r5, ror #8
     b10:	4c4c5000 	marmi	acc0, r5, ip
     b14:	61707942 	cmnvs	r0, r2, asr #18
     b18:	72007373 	andvc	r7, r0, #-872415231	; 0xcc000001
     b1c:	6d757365 	ldclvs	3, cr7, [r5, #-404]!	; 0xfffffe6c
     b20:	6f705f65 	svcvs	0x00705f65
     b24:	65746e69 	ldrbvs	r6, [r4, #-3689]!	; 0xfffff197
     b28:	68410072 	stmdavs	r1, {r1, r4, r5, r6}^
     b2c:	69443162 	stmdbvs	r4, {r1, r5, r6, r8, ip, sp}^
     b30:	65720076 	ldrbvs	r0, [r2, #-118]!	; 0xffffff8a
     b34:	76726573 			; <UNDEFINED> instruction: 0x76726573
     b38:	38316465 	ldmdacc	r1!, {r0, r2, r5, r6, sl, sp, lr}
     b3c:	73657200 	cmnvc	r5, #0, 4
     b40:	65767265 	ldrbvs	r7, [r6, #-613]!	; 0xfffffd9b
     b44:	31333164 	teqcc	r3, r4, ror #2
     b48:	6c6c5000 	stclvs	0, cr5, [ip], #-0
     b4c:	6c744333 	ldclvs	3, cr4, [r4], #-204	; 0xffffff34
     b50:	73795300 	cmnvc	r9, #0, 6
     b54:	446b6c43 	strbtmi	r6, [fp], #-3139	; 0xfffff3bd
     b58:	50007669 	andpl	r7, r0, r9, ror #12
     b5c:	6c436c6c 	mcrrvs	12, 6, r6, r3, cr12
     b60:	74754f6b 	ldrbtvc	r4, [r5], #-3947	; 0xfffff095
     b64:	5f006e45 	svcpl	0x00006e45
     b68:	6d63635f 	stclvs	3, cr6, [r3, #-380]!	; 0xfffffe84
     b6c:	70615f75 	rsbvc	r5, r1, r5, ror pc
     b70:	725f3262 	subsvc	r3, pc, #536870918	; 0x20000006
     b74:	6f697461 	svcvs	0x00697461
     b78:	6765725f 			; <UNDEFINED> instruction: 0x6765725f
     b7c:	38353030 	ldmdacc	r5!, {r4, r5, ip, sp}
     b80:	4d00745f 	cfstrsmi	mvf7, [r0, #-380]	; 0xfffffe84
     b84:	52737562 	rsbspl	r7, r3, #411041792	; 0x18800000
     b88:	74657365 	strbtvc	r7, [r5], #-869	; 0xfffffc9b
     b8c:	00676552 	rsbeq	r6, r7, r2, asr r5
     b90:	48757047 	ldmdami	r5!, {r0, r1, r2, r6, ip, sp, lr}^
     b94:	63006479 	movwvs	r6, #1145	; 0x479
     b98:	695f7570 	ldmdbvs	pc, {r4, r5, r6, r8, sl, ip, sp, lr}^	; <UNPREDICTABLE>
     b9c:	68410064 	stmdavs	r1, {r2, r5, r6}^
     ba0:	73655262 	cmnvc	r5, #536870918	; 0x20000006
     ba4:	00307465 	eorseq	r7, r0, r5, ror #8
     ba8:	52626841 	rsbpl	r6, r2, #4259840	; 0x410000
     bac:	74657365 	strbtvc	r7, [r5], #-869	; 0xfffffc9b
     bb0:	68410031 	stmdavs	r1, {r0, r4, r5}^
     bb4:	73655262 	cmnvc	r5, #536870918	; 0x20000006
     bb8:	00327465 	eorseq	r7, r2, r5, ror #8
     bbc:	32757063 	rsbscc	r7, r5, #99	; 0x63
     bc0:	7365725f 	cmnvc	r5, #-268435451	; 0xf0000005
     bc4:	66007465 	strvs	r7, [r0], -r5, ror #8
     bc8:	5f636e75 	svcpl	0x00636e75
     bcc:	72746e65 	rsbsvc	r6, r4, #1616	; 0x650
     bd0:	64530079 	ldrbvs	r0, [r3], #-121	; 0xffffff87
     bd4:	006e456d 	rsbeq	r4, lr, sp, ror #10
     bd8:	32627041 	rsbcc	r7, r2, #65	; 0x41
     bdc:	65746147 	ldrbvs	r6, [r4, #-327]!	; 0xfffffeb9
     be0:	435f5f00 	cmpmi	pc, #0, 30
     be4:	5f554d43 	svcpl	0x00554d43
     be8:	4950494d 	ldmdbmi	r0, {r0, r2, r3, r6, r8, fp, lr}^
     bec:	4c4c505f 	mcrrmi	0, 5, r5, ip, cr15
     bf0:	4745525f 	smlsldmi	r5, r5, pc, r2	; <UNPREDICTABLE>
     bf4:	30343030 	eorscc	r3, r4, r0, lsr r0
     bf8:	6c6c5000 	stclvs	0, cr5, [ip], #-0
     bfc:	636f4c31 	cmnvs	pc, #12544	; 0x3100
     c00:	6c50006b 	mrrcvs	0, 6, r0, r0, cr11	; <UNPREDICTABLE>
     c04:	6172446c 	cmnvs	r2, ip, ror #8
     c08:	6942306d 	stmdbvs	r2, {r0, r2, r3, r5, r6, ip, sp}^
     c0c:	61007361 	tstvs	r0, r1, ror #6
     c10:	655f7078 	ldrbvs	r7, [pc, #-120]	; ba0 <mem_preload_tlb+0x70>
     c14:	746e6576 	strbtvc	r6, [lr], #-1398	; 0xfffffa8a
     c18:	6c655300 	stclvs	3, cr5, [r5], #-0
     c1c:	4f353236 	svcmi	0x00353236
     c20:	30353772 	eorscc	r3, r5, r2, ror r7
     c24:	635f5f00 	cmpvs	pc, #0, 30
     c28:	5f756d63 	svcpl	0x00756d63
     c2c:	326c6c70 	rsbcc	r6, ip, #112, 24	; 0x7000
     c30:	6765725f 			; <UNDEFINED> instruction: 0x6765725f
     c34:	38303030 	ldmdacc	r0!, {r4, r5, ip, sp}
     c38:	4400745f 	strmi	r7, [r0], #-1119	; 0xfffffba1
     c3c:	476d6172 			; <UNDEFINED> instruction: 0x476d6172
     c40:	00657461 	rsbeq	r7, r5, r1, ror #8
     c44:	31626841 	cmncc	r2, r1, asr #16
     c48:	536b6c43 	cmnpl	fp, #17152	; 0x4300
     c4c:	50006372 	andpl	r6, r0, r2, ror r3
     c50:	65446c6c 	strbvs	r6, [r4, #-3180]	; 0xfffff394
     c54:	73616942 	cmnvc	r1, #1081344	; 0x108000
     c58:	62704100 	rsbsvs	r4, r0, #0, 2
     c5c:	76694431 			; <UNDEFINED> instruction: 0x76694431
     c60:	646f4d00 	strbtvs	r4, [pc], #-3328	; c68 <__turn_mmu_off+0x8>
     c64:	6c655365 	stclvs	3, cr5, [r5], #-404	; 0xfffffe6c
     c68:	65654600 	strbvs	r4, [r5, #-1536]!	; 0xfffffa00
     c6c:	63614264 	cmnvs	r1, #100, 4	; 0x40000006
     c70:	7669446b 	strbtvc	r4, [r9], -fp, ror #8
     c74:	73657200 	cmnvc	r5, #0, 4
     c78:	65767265 	ldrbvs	r7, [r6, #-613]!	; 0xfffffd9b
     c7c:	00313564 	eorseq	r3, r1, r4, ror #10
     c80:	356c6c50 	strbcc	r6, [ip, #-3152]!	; 0xfffff3b0
     c84:	006c7443 	rsbeq	r7, ip, r3, asr #8
     c88:	5f6b6c63 	svcpl	0x006b6c63
     c8c:	5f766964 	svcpl	0x00766964
     c90:	5f5f0074 	svcpl	0x005f0074
     c94:	554d4343 	strbpl	r4, [sp, #-835]	; 0xfffffcbd
     c98:	4c4c505f 	mcrrmi	0, 5, r5, ip, cr15
     c9c:	45525f35 	ldrbmi	r5, [r2, #-3893]	; 0xfffff0cb
     ca0:	32303047 	eorscc	r3, r0, #71	; 0x47
     ca4:	44530030 	ldrbmi	r0, [r3], #-48	; 0xffffffd0
     ca8:	00327669 	eorseq	r7, r2, r9, ror #12
     cac:	454c4c50 	strbmi	r4, [ip, #-3152]	; 0xfffff3b0
     cb0:	5f5f006e 	svcpl	0x005f006e
     cb4:	756d6363 	strbvc	r6, [sp, #-867]!	; 0xfffffc9d
     cb8:	6c6c705f 	stclvs	0, cr7, [ip], #-380	; 0xfffffe84
     cbc:	65725f31 	ldrbvs	r5, [r2, #-3889]!	; 0xfffff0cf
     cc0:	30303067 	eorscc	r3, r0, r7, rrx
     cc4:	00745f30 	rsbseq	r5, r4, r0, lsr pc
     cc8:	446c6c50 	strbtmi	r6, [ip], #-3152	; 0xfffff3b0
     ccc:	43317264 	teqmi	r1, #100, 4	; 0x40000006
     cd0:	5f006c74 	svcpl	0x00006c74
     cd4:	4d43435f 	stclmi	3, cr4, [r3, #-380]	; 0xfffffe84
     cd8:	4c505f55 	mrrcmi	15, 5, r5, r0, cr5
     cdc:	525f324c 	subspl	r3, pc, #76, 4	; 0xc0000004
     ce0:	30304745 	eorscc	r4, r0, r5, asr #14
     ce4:	41003830 	tstmi	r0, r0, lsr r8
     ce8:	70416274 	subvc	r6, r1, r4, ror r2
     cec:	6b6c4362 	blvs	1b11a7c <__bss_end+0x1b0e900>
     cf0:	00766944 	rsbseq	r6, r6, r4, asr #18
     cf4:	5f746573 	svcpl	0x00746573
     cf8:	006c6c70 	rsbeq	r6, ip, r0, ror ip
     cfc:	65766173 	ldrbvs	r6, [r6, #-371]!	; 0xfffffe8d
     d00:	6d656d5f 	stclvs	13, cr6, [r5, #-380]!	; 0xfffffe84
     d04:	6174735f 	cmnvs	r4, pc, asr r3
     d08:	5f737574 	svcpl	0x00737574
     d0c:	6d6d6f6e 	stclvs	15, cr6, [sp, #-440]!	; 0xfffffe48
     d10:	70410075 	subvc	r0, r1, r5, ror r0
     d14:	65523162 	ldrbvs	r3, [r2, #-354]	; 0xfffffe9e
     d18:	00746573 	rsbseq	r6, r4, r3, ror r5
     d1c:	6e616863 	cdpvs	8, 6, cr6, cr1, cr3, {3}
     d20:	725f6567 	subsvc	r6, pc, #432013312	; 0x19c00000
     d24:	69746e75 	ldmdbvs	r4!, {r0, r2, r4, r5, r6, r9, sl, fp, sp, lr}^
     d28:	655f656d 	ldrbvs	r6, [pc, #-1389]	; 7c3 <restore_secure_mmu_state+0x7>
     d2c:	4c00766e 	stcmi	6, cr7, [r0], {110}	; 0x6e
     d30:	45316f64 	ldrmi	r6, [r1, #-3940]!	; 0xfffff09c
     d34:	6572006e 	ldrbvs	r0, [r2, #-110]!	; 0xffffff92
     d38:	76726573 			; <UNDEFINED> instruction: 0x76726573
     d3c:	00306465 	eorseq	r6, r0, r5, ror #8
     d40:	65736572 	ldrbvs	r6, [r3, #-1394]!	; 0xfffffa8e
     d44:	64657672 	strbtvs	r7, [r5], #-1650	; 0xfffff98e
     d48:	65720031 	ldrbvs	r0, [r2, #-49]!	; 0xffffffcf
     d4c:	76726573 			; <UNDEFINED> instruction: 0x76726573
     d50:	00326465 	eorseq	r6, r2, r5, ror #8
     d54:	65736572 	ldrbvs	r6, [r3, #-1394]!	; 0xfffffa8e
     d58:	64657672 	strbtvs	r7, [r5], #-1650	; 0xfffff98e
     d5c:	65720033 	ldrbvs	r0, [r2, #-51]!	; 0xffffffcd
     d60:	76726573 			; <UNDEFINED> instruction: 0x76726573
     d64:	00346465 	eorseq	r6, r4, r5, ror #8
     d68:	65736572 	ldrbvs	r6, [r3, #-1394]!	; 0xfffffa8e
     d6c:	64657672 	strbtvs	r7, [r5], #-1650	; 0xfffff98e
     d70:	65720035 	ldrbvs	r0, [r2, #-53]!	; 0xffffffcb
     d74:	76726573 			; <UNDEFINED> instruction: 0x76726573
     d78:	00366465 	eorseq	r6, r6, r5, ror #8
     d7c:	65736572 	ldrbvs	r6, [r3, #-1394]!	; 0xfffffa8e
     d80:	64657672 	strbtvs	r7, [r5], #-1650	; 0xfffff98e
     d84:	65720037 	ldrbvs	r0, [r2, #-55]!	; 0xffffffc9
     d88:	76726573 			; <UNDEFINED> instruction: 0x76726573
     d8c:	00396465 	eorseq	r6, r9, r5, ror #8
     d90:	69726573 	ldmdbvs	r2!, {r0, r1, r4, r5, r6, r8, sl, sp, lr}^
     d94:	705f6c61 	subsvc	r6, pc, r1, ror #24
     d98:	00737475 	rsbseq	r7, r3, r5, ror r4
     d9c:	446c6c50 	strbtmi	r6, [ip], #-3152	; 0xfffff3b0
     da0:	74615065 	strbtvc	r5, [r1], #-101	; 0xffffff9b
     da4:	6e726574 	mrcvs	5, 3, r6, cr2, cr4, {3}
     da8:	63616300 	cmnvs	r1, #0, 6
     dac:	77700072 			; <UNDEFINED> instruction: 0x77700072
     db0:	65725f72 	ldrbvs	r5, [r2, #-3954]!	; 0xfffff08e
     db4:	73430067 	movtvc	r0, #12391	; 0x3067
     db8:	6d003069 	stcvs	0, cr3, [r0, #-420]	; 0xfffffe5c
     dbc:	615f6176 	cmpvs	pc, r6, ror r1	; <UNPREDICTABLE>
     dc0:	00726464 	rsbseq	r6, r2, r4, ror #8
     dc4:	63617246 	cmnvs	r1, #1610612740	; 0x60000004
     dc8:	00646f4d 	rsbeq	r6, r4, sp, asr #30
     dcc:	535f4d50 	cmppl	pc, #80, 26	; 0x1400
     dd0:	444e4154 	strbmi	r4, [lr], #-340	; 0xfffffeac
     dd4:	505f5942 	subspl	r5, pc, r2, asr #18
     dd8:	544e4952 	strbpl	r4, [lr], #-2386	; 0xfffff6ae
     ddc:	4943435f 	stmdbmi	r3, {r0, r1, r2, r3, r4, r6, r8, r9, lr}^
     de0:	5f303034 	svcpl	0x00303034
     de4:	00474552 	subeq	r4, r7, r2, asr r5
     de8:	38755f5f 	ldmdacc	r5!, {r0, r1, r2, r3, r4, r6, r8, r9, sl, fp, ip, lr}^
     dec:	72727000 	rsbsvc	r7, r2, #0
     df0:	6c500072 	mrrcvs	0, 7, r0, r0, cr2	; <UNPREDICTABLE>
     df4:	6475416c 	ldrbtvs	r4, [r5], #-364	; 0xfffffe94
     df8:	61506f69 	cmpvs	r0, r9, ror #30
     dfc:	72657474 	rsbvc	r7, r5, #116, 8	; 0x74000000
     e00:	7474006e 	ldrbtvc	r0, [r4], #-110	; 0xffffff92
     e04:	72305f62 	eorsvc	r5, r0, #392	; 0x188
     e08:	69705300 	ldmdbvs	r0!, {r8, r9, ip, lr}^
     e0c:	70530030 	subsvc	r0, r3, r0, lsr r0
     e10:	41003169 	tstmi	r0, r9, ror #2
     e14:	61476268 	cmpvs	r7, r8, ror #4
     e18:	00306574 	eorseq	r6, r0, r4, ror r5
     e1c:	65736572 	ldrbvs	r6, [r3, #-1394]!	; 0xfffffa8e
     e20:	64657672 	strbtvs	r7, [r5], #-1650	; 0xfffff98e
     e24:	31353032 	teqcc	r5, r2, lsr r0
     e28:	756d4300 	strbvc	r4, [sp, #-768]!	; 0xfffffd00
     e2c:	00676552 	rsbeq	r6, r7, r2, asr r5
     e30:	63635f5f 	cmnvs	r3, #380	; 0x17c
     e34:	705f756d 	subsvc	r7, pc, sp, ror #10
     e38:	6f6c6c6c 	svcvs	0x006c6c6c
     e3c:	725f6b63 	subsvc	r6, pc, #101376	; 0x18c00
     e40:	32306765 	eorscc	r6, r0, #26476544	; 0x1940000
     e44:	745f3030 	ldrbvc	r3, [pc], #-48	; e4c <__save_processor_state+0x9c>
     e48:	6c6c5000 	stclvs	0, cr5, [ip], #-0
     e4c:	69726550 	ldmdbvs	r2!, {r4, r6, r8, sl, sp, lr}^
     e50:	69426870 	stmdbvs	r2, {r4, r5, r6, fp, sp, lr}^
     e54:	50007361 	andpl	r7, r0, r1, ror #6
     e58:	54535f4d 	ldrbpl	r5, [r3], #-3917	; 0xfffff0b3
     e5c:	42444e41 	submi	r4, r4, #1040	; 0x410
     e60:	45545f59 	ldrbmi	r5, [r4, #-3929]	; 0xfffff0a7
     e64:	72005453 	andvc	r5, r0, #1392508928	; 0x53000000
     e68:	72657365 	rsbvc	r7, r5, #-1811939327	; 0x94000001
     e6c:	31646576 	smccc	18006	; 0x4656
     e70:	46003130 			; <UNDEFINED> instruction: 0x46003130
     e74:	4d636172 	stfmie	f6, [r3, #-456]!	; 0xfffffe38
     e78:	0065646f 	rsbeq	r6, r5, pc, ror #8
     e7c:	7272726e 	rsbsvc	r7, r2, #-536870906	; 0xe0000006
     e80:	706d7400 	rsbvc	r7, sp, r0, lsl #8
     e84:	00727450 	rsbseq	r7, r2, r0, asr r4
     e88:	5f6d656d 	svcpl	0x006d656d
     e8c:	61726170 	cmnvs	r2, r0, ror r1
     e90:	666e695f 			; <UNDEFINED> instruction: 0x666e695f
     e94:	5f5f006f 	svcpl	0x005f006f
     e98:	756d6363 	strbvc	r6, [sp, #-867]!	; 0xfffffc9d
     e9c:	6765725f 			; <UNDEFINED> instruction: 0x6765725f
     ea0:	73696c5f 	cmnvc	r9, #24320	; 0x5f00
     ea4:	00745f74 	rsbseq	r5, r4, r4, ror pc
     ea8:	5f6b6c63 	svcpl	0x006b6c63
     eac:	6373696d 	cmnvs	r3, #1785856	; 0x1b4000
     eb0:	5000745f 	andpl	r7, r0, pc, asr r4
     eb4:	72446c6c 	subvc	r6, r4, #108, 24	; 0x6c00
     eb8:	42316d61 	eorsmi	r6, r1, #6208	; 0x1840
     ebc:	52736169 	rsbspl	r6, r3, #1073741850	; 0x4000001a
     ec0:	73006765 	movwvc	r6, #1893	; 0x765
     ec4:	655f7379 	ldrbvs	r7, [pc, #-889]	; b53 <mem_preload_tlb+0x23>
     ec8:	746e6576 	strbtvc	r6, [lr], #-1398	; 0xfffffa8a
     ecc:	6c6c7000 	stclvs	0, cr7, [ip], #-0
     ed0:	69625f36 	stmdbvs	r2!, {r1, r2, r4, r5, r8, r9, sl, fp, ip, lr}^
     ed4:	50007361 	andpl	r7, r0, r1, ror #6
     ed8:	34326c6c 	ldrtcc	r6, [r2], #-3180	; 0xfffff394
     edc:	6964504d 	stmdbvs	r4!, {r0, r2, r3, r6, ip, lr}^
     ee0:	72440076 	subvc	r0, r4, #118	; 0x76
     ee4:	66436d61 	strbvs	r6, [r3], -r1, ror #26
     ee8:	5f5f0067 	svcpl	0x005f0067
     eec:	756d6363 	strbvc	r6, [sp, #-867]!	; 0xfffffc9d
     ef0:	6268615f 	rsbvs	r6, r8, #-1073741801	; 0xc0000017
     ef4:	61725f31 	cmnvs	r2, r1, lsr pc
     ef8:	5f6f6974 	svcpl	0x006f6974
     efc:	30676572 	rsbcc	r6, r7, r2, ror r5
     f00:	5f343530 	svcpl	0x00343530
     f04:	6c700074 	ldclvs	0, cr0, [r0], #-464	; 0xfffffe30
     f08:	625f316c 	subsvs	r3, pc, #108, 2
     f0c:	00736169 	rsbseq	r6, r3, r9, ror #2
     f10:	5f627474 	svcpl	0x00627474
     f14:	73007231 	movwvc	r7, #561	; 0x231
     f18:	635f7465 	cmpvs	pc, #1694498816	; 0x65000000
     f1c:	6f72706f 	svcvs	0x0072706f
     f20:	6665645f 			; <UNDEFINED> instruction: 0x6665645f
     f24:	746c7561 	strbtvc	r7, [ip], #-1377	; 0xfffffa9f
     f28:	73657200 	cmnvc	r5, #0, 4
     f2c:	65767265 	ldrbvs	r7, [r6, #-613]!	; 0xfffffd9b
     f30:	00313864 	eorseq	r3, r1, r4, ror #16
     f34:	535f4d50 	cmppl	pc, #80, 26	; 0x1400
     f38:	444e4154 	strbmi	r4, [lr], #-340	; 0xfffffeac
     f3c:	505f5942 	subspl	r5, pc, r2, asr #18
     f40:	544e4952 	strbpl	r4, [lr], #-2386	; 0xfffff6ae
     f44:	4341435f 	movtmi	r4, #4959	; 0x135f
     f48:	545f4548 	ldrbpl	r4, [pc], #-1352	; f50 <__save_processor_state+0x1a0>
     f4c:	4d5f424c 	lfmmi	f4, 2, [pc, #-304]	; e24 <__save_processor_state+0x74>
     f50:	00535349 	subseq	r5, r3, r9, asr #6
     f54:	65736572 	ldrbvs	r6, [r3, #-1394]!	; 0xfffffa8e
     f58:	64657672 	strbtvs	r7, [r5], #-1650	; 0xfffff98e
     f5c:	00313131 	eorseq	r3, r1, r1, lsr r1
     f60:	616c6564 	cmnvs	ip, r4, ror #10
     f64:	73755f79 	cmnvc	r5, #484	; 0x1e4
     f68:	6c6c5000 	stclvs	0, cr5, [ip], #-0
     f6c:	6d617244 	sfmvs	f7, 2, [r1, #-272]!	; 0xfffffef0
     f70:	74615031 	strbtvc	r5, [r1], #-49	; 0xffffffcf
     f74:	6e726574 	mrcvs	5, 3, r6, cr2, cr4, {3}
     f78:	30676552 	rsbcc	r6, r7, r2, asr r5
     f7c:	6c6c5000 	stclvs	0, cr5, [ip], #-0
     f80:	6d617244 	sfmvs	f7, 2, [r1, #-272]!	; 0xfffffef0
     f84:	74615031 	strbtvc	r5, [r1], #-49	; 0xffffffcf
     f88:	6e726574 	mrcvs	5, 3, r6, cr2, cr4, {3}
     f8c:	31676552 	cmncc	r7, r2, asr r5
     f90:	73657200 	cmnvc	r5, #0, 4
     f94:	65767265 	ldrbvs	r7, [r6, #-613]!	; 0xfffffd9b
     f98:	31363164 	teqcc	r6, r4, ror #2
     f9c:	636f4c00 	cmnvs	pc, #0, 24
     fa0:	6d69546b 	cfstrdvs	mvd5, [r9, #-428]!	; 0xfffffe54
     fa4:	68410065 	stmdavs	r1, {r0, r2, r5, r6}^
     fa8:	72503162 	subsvc	r3, r0, #-2147483624	; 0x80000018
     fac:	76694465 	strbtvc	r4, [r9], -r5, ror #8
     fb0:	6c6c5000 	stclvs	0, cr5, [ip], #-0
     fb4:	69646556 	stmdbvs	r4!, {r1, r2, r4, r6, r8, sl, sp, lr}^
     fb8:	7461506f 	strbtvc	r5, [r1], #-111	; 0xffffff91
     fbc:	6e726574 	mrcvs	5, 3, r6, cr2, cr4, {3}
     fc0:	6c6c5000 	stclvs	0, cr5, [ip], #-0
     fc4:	61506556 	cmpvs	r0, r6, asr r5
     fc8:	72657474 	rsbvc	r7, r5, #116, 8	; 0x74000000
     fcc:	6572006e 	ldrbvs	r0, [r2, #-110]!	; 0xffffff92
     fd0:	76726573 			; <UNDEFINED> instruction: 0x76726573
     fd4:	30326465 	eorscc	r6, r2, r5, ror #8
     fd8:	65720031 	ldrbvs	r0, [r2, #-49]!	; 0xffffffcf
     fdc:	76726573 			; <UNDEFINED> instruction: 0x76726573
     fe0:	41006465 	tstmi	r0, r5, ror #8
     fe4:	6c434958 	mcrrvs	9, 5, r4, r3, cr8
     fe8:	7669446b 	strbtvc	r4, [r9], -fp, ror #8
     fec:	62704100 	rsbsvs	r4, r0, #0, 2
     ff0:	74614731 	strbtvc	r4, [r1], #-1841	; 0xfffff8cf
     ff4:	65720065 	ldrbvs	r0, [r2, #-101]!	; 0xffffff9b
     ff8:	76726573 			; <UNDEFINED> instruction: 0x76726573
     ffc:	31396465 	teqcc	r9, r5, ror #8
    1000:	73657200 	cmnvc	r5, #0, 4
    1004:	65767265 	ldrbvs	r7, [r6, #-613]!	; 0xfffffd9b
    1008:	00323964 	eorseq	r3, r2, r4, ror #18
    100c:	65736572 	ldrbvs	r6, [r3, #-1394]!	; 0xfffffa8e
    1010:	64657672 	strbtvs	r7, [r5], #-1650	; 0xfffff98e
    1014:	63003339 	movwvs	r3, #825	; 0x339
    1018:	00727373 	rsbseq	r7, r2, r3, ror r3
    101c:	535f4d50 	cmppl	pc, #80, 26	; 0x1400
    1020:	444e4154 	strbmi	r4, [lr], #-340	; 0xfffffeac
    1024:	505f5942 	subspl	r5, pc, r2, asr #18
    1028:	544e4952 	strbpl	r4, [lr], #-2386	; 0xfffff6ae
    102c:	5550435f 	ldrbpl	r4, [r0, #-863]	; 0xfffffca1
    1030:	4f495f53 	svcmi	0x00495f53
    1034:	4154535f 	cmpmi	r4, pc, asr r3
    1038:	00535554 	subseq	r5, r3, r4, asr r5
    103c:	65736572 	ldrbvs	r6, [r3, #-1394]!	; 0xfffffa8e
    1040:	64657672 	strbtvs	r7, [r5], #-1650	; 0xfffff98e
    1044:	00313231 	eorseq	r3, r1, r1, lsr r2
    1048:	326c6c50 	rsbcc	r6, ip, #80, 24	; 0x5000
    104c:	006c7443 	rsbeq	r7, ip, r3, asr #8
    1050:	43435f5f 	movtmi	r5, #16223	; 0x3f5f
    1054:	525f554d 	subspl	r5, pc, #322961408	; 0x13400000
    1058:	4c5f4745 	mrrcmi	7, 4, r4, pc, cr5	; <UNPREDICTABLE>
    105c:	00545349 	subseq	r5, r4, r9, asr #6
    1060:	535f4d50 	cmppl	pc, #80, 26	; 0x1400
    1064:	444e4154 	strbmi	r4, [lr], #-340	; 0xfffffeac
    1068:	505f5942 	subspl	r5, pc, r2, asr #18
    106c:	544e4952 	strbpl	r4, [lr], #-2386	; 0xfffff6ae
    1070:	5345525f 	movtpl	r5, #21087	; 0x525f
    1074:	00454d55 	subeq	r4, r5, r5, asr sp
    1078:	646e614e 	strbtvs	r6, [lr], #-334	; 0xfffffeb2
    107c:	4d500030 	ldclmi	0, cr0, [r0, #-192]	; 0xffffff40
    1080:	4154535f 	cmpmi	r4, pc, asr r3
    1084:	5942444e 	stmdbpl	r2, {r1, r2, r3, r6, sl, lr}^
    1088:	4952505f 	ldmdbmi	r2, {r0, r1, r2, r3, r4, r6, ip, lr}^
    108c:	505f544e 	subspl	r5, pc, lr, asr #8
    1090:	535f5257 	cmppl	pc, #1879048197	; 0x70000005
    1094:	55544154 	ldrbpl	r4, [r4, #-340]	; 0xfffffeac
    1098:	77610053 			; <UNDEFINED> instruction: 0x77610053
    109c:	6d656d5f 	stclvs	13, cr6, [r5, #-380]!	; 0xfffffe84
    10a0:	7261705f 	rsbvc	r7, r1, #95	; 0x5f
    10a4:	5f5f0061 	svcpl	0x005f0061
    10a8:	554d4343 	strbpl	r4, [sp, #-835]	; 0xfffffcbd
    10ac:	4c4c505f 	mcrrmi	0, 5, r5, ip, cr15
    10b0:	45525f36 	ldrbmi	r5, [r2, #-3894]	; 0xfffff0ca
    10b4:	32303047 	eorscc	r3, r0, #71	; 0x47
    10b8:	6c500038 	mrrcvs	0, 3, r0, r0, cr8	; <UNPREDICTABLE>
    10bc:	7443396c 	strbvc	r3, [r3], #-2412	; 0xfffff694
    10c0:	7073006c 	rsbsvc	r0, r3, ip, rrx
    10c4:	6361625f 	cmnvs	r1, #-268435451	; 0xf0000005
    10c8:	0070756b 	rsbseq	r7, r0, fp, ror #10
    10cc:	706f6f6c 	rsbvc	r6, pc, ip, ror #30
    10d0:	616c665f 	cmnvs	ip, pc, asr r6
    10d4:	68730067 	ldmdavs	r3!, {r0, r1, r2, r5, r6}^
    10d8:	6d5f776f 	ldclvs	7, cr7, [pc, #-444]	; f24 <__save_processor_state+0x174>
    10dc:	735f6d65 	cmpvc	pc, #6464	; 0x1940
    10e0:	75746174 	ldrbvc	r6, [r4, #-372]!	; 0xfffffe8c
    10e4:	75620073 	strbvc	r0, [r2, #-115]!	; 0xffffff8d
    10e8:	775f7973 			; <UNDEFINED> instruction: 0x775f7973
    10ec:	69746961 	ldmdbvs	r4!, {r0, r5, r6, r8, fp, sp, lr}^
    10f0:	6400676e 	strvs	r6, [r0], #-1902	; 0xfffff892
    10f4:	00617461 	rsbeq	r7, r1, r1, ror #8
    10f8:	685f6f69 	ldmdavs	pc, {r0, r3, r5, r6, r8, r9, sl, fp, sp, lr}^	; <UNPREDICTABLE>
    10fc:	00686769 	rsbeq	r6, r8, r9, ror #14
    1100:	65766173 	ldrbvs	r6, [r6, #-371]!	; 0xfffffe8d
    1104:	7570635f 	ldrbvc	r6, [r0, #-863]!	; 0xfffffca1
    1108:	656d5f78 	strbvs	r5, [sp, #-3960]!	; 0xfffff088
    110c:	74735f6d 	ldrbtvc	r5, [r3], #-3949	; 0xfffff093
    1110:	73757461 	cmnvc	r5, #1627389952	; 0x61000000
    1114:	6d6f6e5f 	stclvs	14, cr6, [pc, #-380]!	; fa0 <__save_processor_state+0x1f0>
    1118:	6d00756d 	cfstr32vs	mvfx7, [r0, #-436]	; 0xfffffe4c
    111c:	735f6d65 	cmpvc	pc, #6464	; 0x1940
    1120:	75746174 	ldrbvc	r6, [r4, #-372]!	; 0xfffffe8c
    1124:	78655f73 	stmdavc	r5!, {r0, r1, r4, r5, r6, r8, r9, sl, fp, ip, lr}^
    1128:	69007469 	stmdbvs	r0, {r0, r3, r5, r6, sl, ip, sp, lr}
    112c:	6e695f6f 	cdpvs	15, 6, cr5, cr9, cr15, {3}
    1130:	61007469 	tstvs	r0, r9, ror #8
    1134:	2f686372 	svccs	0x00686372
    1138:	2f6d7261 	svccs	0x006d7261
    113c:	6863616d 	stmdavs	r3!, {r0, r2, r3, r5, r6, r8, sp, lr}^
    1140:	6e75732d 	cdpvs	3, 7, cr7, cr5, cr13, {1}
    1144:	702f6978 	eorvc	r6, pc, r8, ror r9	; <UNPREDICTABLE>
    1148:	74732f6d 	ldrbtvc	r2, [r3], #-3949	; 0xfffff093
    114c:	62646e61 	rsbvs	r6, r4, #1552	; 0x610
    1150:	2e2e2f79 	mcrcs	15, 1, r2, cr14, cr9, {3}
    1154:	5f6d702f 	svcpl	0x006d702f
    1158:	75626564 	strbvc	r6, [r2, #-1380]!	; 0xfffffa9c
    115c:	00632e67 	rsbeq	r2, r3, r7, ror #28
    1160:	5f746567 	svcpl	0x00746567
    1164:	5f6d656d 	svcpl	0x006d656d
    1168:	74617473 	strbtvc	r7, [r1], #-1139	; 0xfffffb8d
    116c:	6d007375 	stcvs	3, cr7, [r0, #-468]	; 0xfffffe2c
    1170:	735f6d65 	cmpvc	pc, #6464	; 0x1940
    1174:	75746174 	ldrbvc	r6, [r4, #-372]!	; 0xfffffe8c
    1178:	6c635f73 	stclvs	15, cr5, [r3], #-460	; 0xfffffe34
    117c:	00726165 	rsbseq	r6, r2, r5, ror #2
    1180:	6e697270 	mcrvs	2, 3, r7, cr9, cr0, {3}
    1184:	6c665f74 	stclvs	15, cr5, [r6], #-464	; 0xfffffe30
    1188:	69006761 	stmdbvs	r0, {r0, r5, r6, r8, r9, sl, sp, lr}
    118c:	6e695f6f 	cdpvs	15, 6, cr5, cr9, cr15, {3}
    1190:	6c5f7469 	cfldrdvs	mvd7, [pc], {105}	; 0x69
    1194:	6900776f 	stmdbvs	r0, {r0, r1, r2, r3, r5, r6, r8, r9, sl, ip, sp, lr}
    1198:	6e695f6f 	cdpvs	15, 6, cr5, cr9, cr15, {3}
    119c:	685f7469 	ldmdavs	pc, {r0, r3, r5, r6, sl, ip, sp, lr}^	; <UNPREDICTABLE>
    11a0:	00686769 	rsbeq	r6, r8, r9, ror #14
    11a4:	6e756f63 	cdpvs	15, 7, cr6, cr5, cr3, {3}
    11a8:	5f726574 	svcpl	0x00726574
    11ac:	62616e65 	rsbvs	r6, r1, #1616	; 0x650
    11b0:	7400656c 	strvc	r6, [r0], #-1388	; 0xfffffa94
    11b4:	65677261 	strbvs	r7, [r7, #-609]!	; 0xfffffd9f
    11b8:	65720074 	ldrbvs	r0, [r2, #-116]!	; 0xffffff8c
    11bc:	726f7473 	rsbvc	r7, pc, #1929379840	; 0x73000000
    11c0:	65705f65 	ldrbvs	r5, [r0, #-3941]!	; 0xfffff09b
    11c4:	6f636672 	svcvs	0x00636672
    11c8:	65746e75 	ldrbvs	r6, [r4, #-3701]!	; 0xfffff18b
    11cc:	766f0072 			; <UNDEFINED> instruction: 0x766f0072
    11d0:	65687265 	strbvs	r7, [r8, #-613]!	; 0xfffffd9b
    11d4:	67006461 	strvs	r6, [r0, -r1, ror #8]
    11d8:	655f7465 	ldrbvs	r7, [pc, #-1125]	; d7b <jump_to_resume0_nommu+0x7b>
    11dc:	746e6576 	strbtvc	r6, [lr], #-1398	; 0xfffffa8a
    11e0:	756f635f 	strbvc	r6, [pc, #-863]!	; e89 <__save_processor_state+0xd9>
    11e4:	7265746e 	rsbvc	r7, r5, #1845493760	; 0x6e000000
    11e8:	616e6500 	cmnvs	lr, r0, lsl #10
    11ec:	5f656c62 	svcpl	0x00656c62
    11f0:	69766964 	ldmdbvs	r6!, {r2, r5, r6, r8, fp, sp, lr}^
    11f4:	00726564 	rsbseq	r6, r2, r4, ror #10
    11f8:	65736572 	ldrbvs	r6, [r3, #-1394]!	; 0xfffffa8e
    11fc:	6f635f74 	svcvs	0x00635f74
    1200:	65746e75 	ldrbvs	r6, [r4, #-3701]!	; 0xfffff18b
    1204:	61620072 	smcvs	8194	; 0x2002
    1208:	70756b63 	rsbsvc	r6, r5, r3, ror #22
    120c:	7265705f 	rsbvc	r7, r5, #95	; 0x5f
    1210:	6f635f66 	svcvs	0x00635f66
    1214:	65746e75 	ldrbvs	r6, [r4, #-3701]!	; 0xfffff18b
    1218:	6e655f72 	mcrvs	15, 3, r5, cr5, cr2, {3}
    121c:	656c6261 	strbvs	r6, [ip, #-609]!	; 0xfffffd9f
    1220:	6765725f 			; <UNDEFINED> instruction: 0x6765725f
    1224:	435f4900 	cmpmi	pc, #0, 18
    1228:	45484341 	strbmi	r4, [r8, #-833]	; 0xfffffcbf
    122c:	53494d5f 	movtpl	r4, #40287	; 0x9d5f
    1230:	73750053 	cmnvc	r5, #83	; 0x53
    1234:	746e635f 	strbtvc	r6, [lr], #-863	; 0xfffffca1
    1238:	746e6300 	strbtvc	r6, [lr], #-768	; 0xfffffd00
    123c:	64007265 	strvs	r7, [r0], #-613	; 0xfffffd9b
    1240:	65725f6f 	ldrbvs	r5, [r2, #-3951]!	; 0xfffff091
    1244:	00746573 	rsbseq	r6, r4, r3, ror r5
    1248:	4c545f44 	mrrcmi	15, 4, r5, r4, cr4
    124c:	494d5f42 	stmdbmi	sp, {r1, r6, r8, r9, sl, fp, ip, lr}^
    1250:	62005353 	andvs	r5, r0, #1275068417	; 0x4c000001
    1254:	756b6361 	strbvc	r6, [fp, #-865]!	; 0xfffffc9f
    1258:	65705f70 	ldrbvs	r5, [r0, #-3952]!	; 0xfffff090
    125c:	6f636672 	svcvs	0x00636672
    1260:	65746e75 	ldrbvs	r6, [r4, #-3701]!	; 0xfffff18b
    1264:	5f5f0072 	svcpl	0x005f0072
    1268:	00323373 	eorseq	r3, r2, r3, ror r3
    126c:	6e657665 	cdpvs	6, 6, cr7, cr5, cr5, {3}
    1270:	6e635f74 	mcrvs	15, 3, r5, cr3, cr4, {3}
    1274:	61620074 	smcvs	8196	; 0x2004
    1278:	70756b63 	rsbsvc	r6, r5, r3, ror #22
    127c:	7265705f 	rsbvc	r7, r5, #95	; 0x5f
    1280:	6f635f66 	svcvs	0x00635f66
    1284:	65746e75 	ldrbvs	r6, [r4, #-3701]!	; 0xfffff18b
    1288:	74635f72 	strbtvc	r5, [r3], #-3954	; 0xfffff08e
    128c:	725f6c72 	subsvc	r6, pc, #29184	; 0x7200
    1290:	61006765 	tstvs	r0, r5, ror #14
    1294:	2f686372 	svccs	0x00686372
    1298:	2f6d7261 	svccs	0x006d7261
    129c:	6863616d 	stmdavs	r3!, {r0, r2, r3, r5, r6, r8, sp, lr}^
    12a0:	6e75732d 	cdpvs	3, 7, cr7, cr5, cr13, {1}
    12a4:	702f6978 	eorvc	r6, pc, r8, ror r9	; <UNPREDICTABLE>
    12a8:	74732f6d 	ldrbtvc	r2, [r3], #-3949	; 0xfffff093
    12ac:	62646e61 	rsbvs	r6, r4, #1552	; 0x610
    12b0:	2e2e2f79 	mcrcs	15, 1, r2, cr14, cr9, {3}
    12b4:	6d656d2f 	stclvs	13, cr6, [r5, #-188]!	; 0xffffff44
    12b8:	6d69745f 	cfstrdvs	mvd7, [r9, #-380]!	; 0xfffffe84
    12bc:	2e676e69 	cdpcs	14, 6, cr6, cr7, cr9, {3}
    12c0:	5f440063 	svcpl	0x00440063
    12c4:	48434143 	stmdami	r3, {r0, r1, r6, r8, lr}^
    12c8:	494d5f45 	stmdbmi	sp, {r0, r2, r6, r8, r9, sl, fp, ip, lr}^
    12cc:	67005353 	smlsdvs	r0, r3, r3, r5
    12d0:	635f7465 	cmpvs	pc, #1694498816	; 0x65000000
    12d4:	656c6379 	strbvs	r6, [ip, #-889]!	; 0xfffffc87
    12d8:	6e756f63 	cdpvs	15, 7, cr6, cr5, cr3, {3}
    12dc:	65730074 	ldrbvs	r0, [r3, #-116]!	; 0xffffff8c
    12e0:	76655f74 	uqsub16vc	r5, r5, r4
    12e4:	5f746e65 	svcpl	0x00746e65
    12e8:	6e756f63 	cdpvs	15, 7, cr6, cr5, cr3, {3}
    12ec:	00726574 	rsbseq	r6, r2, r4, ror r5
    12f0:	74696e69 	strbtvc	r6, [r9], #-3689	; 0xfffff197
    12f4:	6576655f 	ldrbvs	r6, [r6, #-1375]!	; 0xfffffaa1
    12f8:	635f746e 	cmpvs	pc, #1845493760	; 0x6e000000
    12fc:	746e756f 	strbtvc	r7, [lr], #-1391	; 0xfffffa91
    1300:	63007265 	movwvs	r7, #613	; 0x265
    1304:	746e756f 	strbtvc	r7, [lr], #-1391	; 0xfffffa91
    1308:	745f7265 	ldrbvc	r7, [pc], #-613	; 1310 <__restore_processor_state+0x15c>
    130c:	5f657079 	svcpl	0x00657079
    1310:	616d0065 	cmnvs	sp, r5, rrx
    1314:	5f686374 	svcpl	0x00686374
    1318:	6e657665 	cdpvs	6, 6, cr7, cr5, cr5, {3}
    131c:	6f635f74 	svcvs	0x00635f74
    1320:	65746e75 	ldrbvs	r6, [r4, #-3701]!	; 0xfffff18b
    1324:	5f490072 	svcpl	0x00490072
    1328:	5f424c54 	svcpl	0x00424c54
    132c:	5353494d 	cmppl	r3, #1261568	; 0x134000
    1330:	6d656d00 	stclvs	13, cr6, [r5, #-0]
    1334:	6b6c635f 	blvs	1b1a0b8 <__bss_end+0x1b16f3c>
    1338:	7465675f 	strbtvc	r6, [r5], #-1887	; 0xfffff8a1
    133c:	7570635f 	ldrbvc	r6, [r0, #-863]!	; 0xfffffca1
    1340:	6572665f 	ldrbvs	r6, [r2, #-1631]!	; 0xfffff9a1
    1344:	61720071 	cmnvs	r2, r1, ror r0
    1348:	696c5f77 	stmdbvs	ip!, {r0, r1, r2, r4, r5, r6, r8, r9, sl, fp, ip, lr}^
    134c:	64755f62 	ldrbtvs	r5, [r5], #-3938	; 0xfffff09e
    1350:	61007669 	tstvs	r0, r9, ror #12
    1354:	2f686372 	svccs	0x00686372
    1358:	2f6d7261 	svccs	0x006d7261
    135c:	6863616d 	stmdavs	r3!, {r0, r2, r3, r5, r6, r8, sp, lr}^
    1360:	6e75732d 	cdpvs	3, 7, cr7, cr5, cr13, {1}
    1364:	702f6978 	eorvc	r6, pc, r8, ror r9	; <UNPREDICTABLE>
    1368:	74732f6d 	ldrbtvc	r2, [r3], #-3949	; 0xfffff093
    136c:	62646e61 	rsbvs	r6, r4, #1552	; 0x610
    1370:	2e2e2f79 	mcrcs	15, 1, r2, cr14, cr9, {3}
    1374:	6d656d2f 	stclvs	13, cr6, [r5, #-188]!	; 0xffffff44
    1378:	756d6d5f 	strbvc	r6, [sp, #-3423]!	; 0xfffff2a1
    137c:	2e63705f 	mcrcs	0, 3, r7, cr3, cr15, {2}
    1380:	61730063 	cmnvs	r3, r3, rrx
    1384:	6d5f6576 	cfldr64vs	mvdx6, [pc, #-472]	; 11b4 <__restore_processor_state>
    1388:	735f756d 	cmpvc	pc, #457179136	; 0x1b400000
    138c:	65746174 	ldrbvs	r6, [r4, #-372]!	; 0xfffffe8c
    1390:	73657200 	cmnvc	r5, #0, 4
    1394:	65726f74 	ldrbvs	r6, [r2, #-3956]!	; 0xfffff08c
    1398:	6365735f 	cmnvs	r5, #2080374785	; 0x7c000001
    139c:	5f657275 	svcpl	0x00657275
    13a0:	5f756d6d 	svcpl	0x00756d6d
    13a4:	74617473 	strbtvc	r7, [r1], #-1139	; 0xfffffb8d
    13a8:	6f700065 	svcvs	0x00700065
    13ac:	64697074 	strbtvs	r7, [r9], #-116	; 0xffffff8c
    13b0:	665f6900 	ldrbvs	r6, [pc], -r0, lsl #18
    13b4:	73007261 	movwvc	r7, #609	; 0x261
    13b8:	67666363 	strbvs	r6, [r6, -r3, ror #6]!
    13bc:	65690072 	strbvs	r0, [r9, #-114]!	; 0xffffff8e
    13c0:	64007263 	strvs	r7, [r0], #-611	; 0xfffffd9d
    13c4:	7273665f 	rsbsvc	r6, r3, #99614720	; 0x5f00000
    13c8:	76617300 	strbtvc	r7, [r1], -r0, lsl #6
    13cc:	735f6465 	cmpvc	pc, #1694498816	; 0x65000000
    13d0:	5f727370 	svcpl	0x00727370
    13d4:	00746261 	rsbseq	r6, r4, r1, ror #4
    13d8:	74777275 	ldrbtvc	r7, [r7], #-629	; 0xfffffd8b
    13dc:	00646970 	rsbeq	r6, r4, r0, ror r9
    13e0:	65766173 	ldrbvs	r6, [r6, #-371]!	; 0xfffffe8d
    13e4:	70735f64 	rsbsvc	r5, r3, r4, ror #30
    13e8:	6d5f7273 	lfmvs	f7, 2, [pc, #-460]	; 1224 <__restore_processor_state+0x70>
    13ec:	73006e6f 	movwvc	r6, #3695	; 0xe6f
    13f0:	67626463 	strbvs	r6, [r2, -r3, ror #8]!
    13f4:	6c626e65 	stclvs	14, cr6, [r2], #-404	; 0xfffffe6c
    13f8:	61730072 	cmnvs	r3, r2, ror r0
    13fc:	5f646576 	svcpl	0x00646576
    1400:	746e6f63 	strbtvc	r6, [lr], #-3939	; 0xfffff09d
    1404:	5f747865 	svcpl	0x00747865
    1408:	5f333172 	svcpl	0x00333172
    140c:	00716966 	rsbseq	r6, r1, r6, ror #18
    1410:	65766173 	ldrbvs	r6, [r6, #-371]!	; 0xfffffe8d
    1414:	6f635f64 	svcvs	0x00635f64
    1418:	7865746e 	stmdavc	r5!, {r1, r2, r3, r5, r6, sl, ip, sp, lr}^
    141c:	31725f74 	cmncc	r2, r4, ror pc
    1420:	72695f33 	rsbvc	r5, r9, #51, 30	; 0xcc
    1424:	65720071 	ldrbvs	r0, [r2, #-113]!	; 0xffffff8f
    1428:	726f7473 	rsbvc	r7, pc, #1929379840	; 0x73000000
    142c:	72705f65 	rsbsvc	r5, r0, #404	; 0x194
    1430:	7365636f 	cmnvc	r5, #-1140850687	; 0xbc000001
    1434:	5f726f73 	svcpl	0x00726f73
    1438:	72627474 	rsbvc	r7, r2, #116, 8	; 0x74000000
    143c:	61730030 	cmnvs	r3, r0, lsr r0
    1440:	5f646576 	svcpl	0x00646576
    1444:	72737073 	rsbsvc	r7, r3, #115	; 0x73
    1448:	6376735f 	cmnvs	r6, #2080374785	; 0x7c000001
    144c:	73696400 	cmnvc	r9, #0, 8
    1450:	656c6261 	strbvs	r6, [ip, #-609]!	; 0xfffffd9f
    1454:	6361635f 	cmnvs	r1, #2080374785	; 0x7c000001
    1458:	695f6568 	ldmdbvs	pc, {r3, r5, r6, r8, sl, sp, lr}^	; <UNPREDICTABLE>
    145c:	6c61766e 	stclvs	6, cr7, [r1], #-440	; 0xfffffe48
    1460:	74616469 	strbtvc	r6, [r1], #-1129	; 0xfffffb97
    1464:	5f5f0065 	svcpl	0x005f0065
    1468:	74736572 	ldrbtvc	r6, [r3], #-1394	; 0xfffffa8e
    146c:	5f65726f 	svcpl	0x0065726f
    1470:	636f7270 	cmnvs	pc, #112, 4
    1474:	6f737365 	svcvs	0x00737365
    1478:	74735f72 	ldrbtvc	r5, [r3], #-3954	; 0xfffff08e
    147c:	00657461 	rsbeq	r7, r5, r1, ror #8
    1480:	72736569 	rsbsvc	r6, r3, #440401920	; 0x1a400000
    1484:	76617300 	strbtvc	r7, [r1], -r0, lsl #6
    1488:	735f6465 	cmpvc	pc, #1694498816	; 0x65000000
    148c:	5f727370 	svcpl	0x00727370
    1490:	00716966 	rsbseq	r6, r1, r6, ror #18
    1494:	72736370 	rsbsvc	r6, r3, #112, 6	; 0xc0000001
    1498:	78746300 	ldmdavc	r4!, {r8, r9, sp, lr}^
    149c:	61730074 	cmnvs	r3, r4, ror r0
    14a0:	5f646576 	svcpl	0x00646576
    14a4:	72737073 	rsbsvc	r7, r3, #115	; 0x73
    14a8:	7172695f 	cmnvc	r2, pc, asr r9
    14ac:	615f6400 	cmpvs	pc, r0, lsl #8
    14b0:	00727366 	rsbseq	r7, r2, r6, ror #6
    14b4:	65766173 	ldrbvs	r6, [r6, #-371]!	; 0xfffffe8d
    14b8:	6f635f64 	svcvs	0x00635f64
    14bc:	7865746e 	stmdavc	r5!, {r1, r2, r3, r5, r6, sl, ip, sp, lr}^
    14c0:	6f6e0074 	svcvs	0x006e0074
    14c4:	6163736e 	cmnvs	r3, lr, ror #6
    14c8:	72746363 	rsbsvc	r6, r4, #-1946157055	; 0x8c000001
    14cc:	6300726c 	movwvs	r7, #620	; 0x26c
    14d0:	00726365 	rsbseq	r6, r2, r5, ror #6
    14d4:	5f746573 	svcpl	0x00746573
    14d8:	72627474 	rsbvc	r7, r2, #116, 8	; 0x74000000
    14dc:	72750030 	rsbsvc	r0, r5, #48	; 0x30
    14e0:	6970746f 	ldmdbvs	r0!, {r0, r1, r2, r3, r5, r6, sl, ip, sp, lr}^
    14e4:	72610064 	rsbvc	r0, r1, #100	; 0x64
    14e8:	612f6863 			; <UNDEFINED> instruction: 0x612f6863
    14ec:	6d2f6d72 	stcvs	13, cr6, [pc, #-456]!	; 132c <__restore_processor_state+0x178>
    14f0:	2d686361 	stclcs	3, cr6, [r8, #-388]!	; 0xfffffe7c
    14f4:	786e7573 	stmdavc	lr!, {r0, r1, r4, r5, r6, r8, sl, ip, sp, lr}^
    14f8:	6d702f69 	ldclvs	15, cr2, [r0, #-420]!	; 0xfffffe5c
    14fc:	6174732f 	cmnvs	r4, pc, lsr #6
    1500:	7962646e 	stmdbvc	r2!, {r1, r2, r3, r5, r6, sl, sp, lr}^
    1504:	2f2e2e2f 	svccs	0x002e2e2f
    1508:	5f6d656d 	svcpl	0x006d656d
    150c:	2e757063 	cdpcs	0, 7, cr7, cr5, cr3, {3}
    1510:	5f5f0063 	svcpl	0x005f0063
    1514:	65766173 	ldrbvs	r6, [r6, #-371]!	; 0xfffffe8d
    1518:	6f72705f 	svcvs	0x0072705f
    151c:	73736563 	cmnvc	r3, #415236096	; 0x18c00000
    1520:	735f726f 	cmpvc	pc, #-268435450	; 0xf0000006
    1524:	65746174 	ldrbvs	r6, [r4, #-372]!	; 0xfffffe8c
    1528:	76617300 	strbtvc	r7, [r1], -r0, lsl #6
    152c:	735f6465 	cmpvc	pc, #1694498816	; 0x65000000
    1530:	5f727370 	svcpl	0x00727370
    1534:	00646e75 	rsbeq	r6, r4, r5, ror lr
    1538:	65736366 	ldrbvs	r6, [r3, #-870]!	; 0xfffffc9a
    153c:	76617300 	strbtvc	r7, [r1], -r0, lsl #6
    1540:	635f6465 	cmpvs	pc, #1694498816	; 0x65000000
    1544:	65746e6f 	ldrbvs	r6, [r4, #-3695]!	; 0xfffff191
    1548:	725f7478 	subsvc	r7, pc, #120, 8	; 0x78000000
    154c:	755f3331 	ldrbvc	r3, [pc, #-817]	; 1223 <__restore_processor_state+0x6f>
    1550:	7300646e 	movwvc	r6, #1134	; 0x46e
    1554:	64657661 	strbtvs	r7, [r5], #-1633	; 0xfffff99f
    1558:	6e6f635f 	mcrvs	3, 3, r6, cr15, cr15, {2}
    155c:	74786574 	ldrbtvc	r6, [r8], #-1396	; 0xfffffa8c
    1560:	3231725f 	eorscc	r7, r1, #-268435451	; 0xf0000005
    1564:	6376735f 	cmnvs	r6, #2080374785	; 0x7c000001
    1568:	76617300 	strbtvc	r7, [r1], -r0, lsl #6
    156c:	635f6465 	cmpvs	pc, #1694498816	; 0x65000000
    1570:	5f727370 	svcpl	0x00727370
    1574:	00637673 	rsbeq	r7, r3, r3, ror r6
    1578:	7273666f 	rsbsvc	r6, r3, #116391936	; 0x6f00000
    157c:	636d7000 	cmnvs	sp, #0
    1580:	72746e6f 	rsbsvc	r6, r4, #1776	; 0x6f0
    1584:	00726c6f 	rsbseq	r6, r2, pc, ror #24
    1588:	72736563 	rsbsvc	r6, r3, #415236096	; 0x18c00000
    158c:	66656400 	strbtvs	r6, [r5], -r0, lsl #8
    1590:	746c7561 	strbtvc	r7, [ip], #-1377	; 0xfffffa9f
    1594:	706f635f 	rsbvc	r6, pc, pc, asr r3	; <UNPREDICTABLE>
    1598:	765f6f72 	usub16vc	r6, pc, r2	; <UNPREDICTABLE>
    159c:	65756c61 	ldrbvs	r6, [r5, #-3169]!	; 0xfffff39f
    15a0:	665f6900 	ldrbvs	r6, [pc], -r0, lsl #18
    15a4:	64007273 	strvs	r7, [r0], #-627	; 0xfffffd8d
    15a8:	7261665f 	rsbvc	r6, r1, #99614720	; 0x5f00000
    15ac:	62766d00 	rsbsvs	r6, r6, #0, 26
    15b0:	70007261 	andvc	r7, r0, r1, ror #4
    15b4:	756f636d 	strbvc	r6, [pc, #-877]!	; 124f <__restore_processor_state+0x9b>
    15b8:	0072746e 	rsbseq	r7, r2, lr, ror #8
    15bc:	66615f69 	strbtvs	r5, [r1], -r9, ror #30
    15c0:	73007273 	movwvc	r7, #627	; 0x273
    15c4:	64657661 	strbtvs	r7, [r5], #-1633	; 0xfffff99f
    15c8:	6e6f635f 	mcrvs	3, 3, r6, cr15, cr15, {2}
    15cc:	74786574 	ldrbtvc	r6, [r8], #-1396	; 0xfffffa8c
    15d0:	3331725f 	teqcc	r1, #-268435451	; 0xf0000005
    15d4:	7462615f 	strbtvc	r6, [r2], #-351	; 0xfffffea1
    15d8:	76617300 	strbtvc	r7, [r1], -r0, lsl #6
    15dc:	655f6465 	ldrbvs	r6, [pc, #-1125]	; 117f <__save_processor_state+0x3cf>
    15e0:	7974706d 	ldmdbvc	r4!, {r0, r2, r3, r5, r6, ip, sp, lr}^
    15e4:	6e6f635f 	mcrvs	3, 3, r6, cr15, cr15, {2}
    15e8:	74786574 	ldrbtvc	r6, [r8], #-1396	; 0xfffffa8c
    15ec:	6376735f 	cmnvs	r6, #2080374785	; 0x7c000001
    15f0:	76617300 	strbtvc	r7, [r1], -r0, lsl #6
    15f4:	635f6465 	cmpvs	pc, #1694498816	; 0x65000000
    15f8:	65746e6f 	ldrbvs	r6, [r4, #-3695]!	; 0xfffff191
    15fc:	725f7478 	subsvc	r7, pc, #120, 8	; 0x78000000
    1600:	735f3331 	cmpvc	pc, #-1006632960	; 0xc4000000
    1604:	73007379 	movwvc	r7, #889	; 0x379
    1608:	64657661 	strbtvs	r7, [r5], #-1633	; 0xfffff99f
    160c:	6e6f635f 	mcrvs	3, 3, r6, cr15, cr15, {2}
    1610:	74786574 	ldrbtvc	r6, [r8], #-1396	; 0xfffffa8c
    1614:	3331725f 	teqcc	r1, #-268435451	; 0xf0000005
    1618:	6e6f6d5f 	mcrvs	13, 3, r6, cr15, cr15, {2}
    161c:	74657300 	strbtvc	r7, [r5], #-768	; 0xfffffd00
    1620:	7265735f 	rsbvc	r7, r5, #2080374785	; 0x7c000001
    1624:	5f6c6169 	svcpl	0x006c6169
    1628:	006b6c63 	rsbeq	r6, fp, r3, ror #24
    162c:	5f746573 	svcpl	0x00746573
    1630:	69726573 	ldmdbvs	r2!, {r0, r1, r4, r5, r6, r8, sl, sp, lr}^
    1634:	675f6c61 	ldrbvs	r6, [pc, -r1, ror #24]
    1638:	006f6970 	rsbeq	r6, pc, r0, ror r9	; <UNPREDICTABLE>
    163c:	69726573 	ldmdbvs	r2!, {r0, r1, r4, r5, r6, r8, sl, sp, lr}^
    1640:	675f6c61 	ldrbvs	r6, [pc, -r1, ror #24]
    1644:	00737465 	rsbseq	r7, r3, r5, ror #8
    1648:	69726573 	ldmdbvs	r2!, {r0, r1, r4, r5, r6, r8, sl, sp, lr}^
    164c:	695f6c61 	ldmdbvs	pc, {r0, r5, r6, sl, fp, sp, lr}^	; <UNPREDICTABLE>
    1650:	0074696e 	rsbseq	r6, r4, lr, ror #18
    1654:	656d6974 	strbvs	r6, [sp, #-2420]!	; 0xfffff68c
    1658:	63616200 	cmnvs	r1, #0, 4
    165c:	5f70756b 	svcpl	0x0070756b
    1660:	6f697067 	svcvs	0x00697067
    1664:	7261755f 	rsbvc	r7, r1, #398458880	; 0x17c00000
    1668:	65730074 	ldrbvs	r0, [r3, #-116]!	; 0xffffff8c
    166c:	6c616972 	stclvs	9, cr6, [r1], #-456	; 0xfffffe38
    1670:	7465675f 	strbtvc	r6, [r5], #-1887	; 0xfffff8a1
    1674:	6168635f 	cmnvs	r8, pc, asr r3
    1678:	72730072 	rsbsvc	r0, r3, #114	; 0x72
    167c:	72665f63 	rsbvc	r5, r6, #396	; 0x18c
    1680:	6d007165 	stfvss	f7, [r0, #-404]	; 0xfffffe6c
    1684:	675f6d65 	ldrbvs	r6, [pc, -r5, ror #26]
    1688:	625f7465 	subsvs	r7, pc, #1694498816	; 0x65000000
    168c:	65730061 	ldrbvs	r0, [r3, #-97]!	; 0xffffff9f
    1690:	6c616972 	stclvs	9, cr6, [r1], #-456	; 0xfffffe38
    1694:	7475705f 	ldrbtvc	r7, [r5], #-95	; 0xffffffa1
    1698:	6168635f 	cmnvs	r8, pc, asr r3
    169c:	32700072 	rsbscc	r0, r0, #114	; 0x72
    16a0:	006b6c63 	rsbeq	r6, fp, r3, ror #24
    16a4:	6b636162 	blvs	18d9c34 <__bss_end+0x18d6ab8>
    16a8:	705f7075 	subsvc	r7, pc, r5, ror r0	; <UNPREDICTABLE>
    16ac:	5f74726f 	svcpl	0x0074726f
    16b0:	73006469 	movwvc	r6, #1129	; 0x469
    16b4:	61697265 	cmnvs	r9, r5, ror #4
    16b8:	6e695f6c 	cdpvs	15, 6, cr5, cr9, cr12, {3}
    16bc:	64657469 	strbtvs	r7, [r5], #-1129	; 0xfffffb97
    16c0:	616c665f 	cmnvs	ip, pc, asr r6
    16c4:	63630067 	cmnvs	r3, #103	; 0x67
    16c8:	65725f75 	ldrbvs	r5, [r2, #-3957]!	; 0xfffff08b
    16cc:	65730067 	ldrbvs	r0, [r3, #-103]!	; 0xffffff99
    16d0:	6c616972 	stclvs	9, cr6, [r1], #-456	; 0xfffffe38
    16d4:	696e695f 	stmdbvs	lr!, {r0, r1, r2, r3, r4, r6, r8, fp, sp, lr}^
    16d8:	616d5f74 	smcvs	54772	; 0xd5f4
    16dc:	6567616e 	strbvs	r6, [r7, #-366]!	; 0xfffffe92
    16e0:	6d6d0072 	stclvs	0, cr0, [sp, #-456]!	; 0xfffffe38
    16e4:	6c665f75 	stclvs	15, cr5, [r6], #-468	; 0xfffffe2c
    16e8:	73006761 	movwvc	r6, #1889	; 0x761
    16ec:	61697265 	cmnvs	r9, r5, ror #4
    16f0:	78655f6c 	stmdavc	r5!, {r2, r3, r5, r6, r8, r9, sl, fp, ip, lr}^
    16f4:	6d5f7469 	cfldrdvs	mvd7, [pc, #-420]	; 1558 <set_ttbr0+0xc>
    16f8:	67616e61 	strbvs	r6, [r1, -r1, ror #28]!
    16fc:	73007265 	movwvc	r7, #613	; 0x265
    1700:	61697265 	cmnvs	r9, r5, ror #4
    1704:	65675f6c 	strbvs	r5, [r7, #-3948]!	; 0xfffff094
    1708:	6e5f7374 	mrcvs	3, 2, r7, cr15, cr4, {3}
    170c:	756d6d6f 	strbvc	r6, [sp, #-3439]!	; 0xfffff291
    1710:	63616200 	cmnvs	r1, #0, 4
    1714:	5f70756b 	svcpl	0x0070756b
    1718:	5f756363 	svcpl	0x00756363
    171c:	74726175 	ldrbtvc	r6, [r2], #-373	; 0xfffffe8b
    1720:	7365725f 	cmnvc	r5, #-268435451	; 0xf0000005
    1724:	61007465 	tstvs	r0, r5, ror #8
    1728:	2f686372 	svccs	0x00686372
    172c:	2f6d7261 	svccs	0x006d7261
    1730:	6863616d 	stmdavs	r3!, {r0, r2, r3, r5, r6, r8, sp, lr}^
    1734:	6e75732d 	cdpvs	3, 7, cr7, cr5, cr13, {1}
    1738:	702f6978 	eorvc	r6, pc, r8, ror r9	; <UNPREDICTABLE>
    173c:	74732f6d 	ldrbtvc	r2, [r3], #-3949	; 0xfffff093
    1740:	62646e61 	rsbvs	r6, r4, #1552	; 0x610
    1744:	2e2e2f79 	mcrcs	15, 1, r2, cr14, cr9, {3}
    1748:	6d656d2f 	stclvs	13, cr6, [r5, #-188]!	; 0xffffff44
    174c:	7265735f 	rsbvc	r7, r5, #2080374785	; 0x7c000001
    1750:	2e6c6169 	powcsez	f6, f4, #1.0
    1754:	65730063 	ldrbvs	r0, [r3, #-99]!	; 0xffffff9d
    1758:	6c616972 	stclvs	9, cr6, [r1], #-456	; 0xfffffe38
    175c:	7475705f 	ldrbtvc	r7, [r5], #-95	; 0xffffffa1
    1760:	6168635f 	cmnvs	r8, pc, asr r3
    1764:	6f6e5f72 	svcvs	0x006e5f72
    1768:	00756d6d 	rsbseq	r6, r5, sp, ror #26
    176c:	32627061 	rsbcc	r7, r2, #97	; 0x61
    1770:	6765725f 			; <UNDEFINED> instruction: 0x6765725f
    1774:	72657300 	rsbvc	r7, r5, #0, 6
    1778:	5f6c6169 	svcpl	0x006c6169
    177c:	5f746567 	svcpl	0x00746567
    1780:	72616863 	rsbvc	r6, r1, #6488064	; 0x630000
    1784:	6d6f6e5f 	stclvs	14, cr6, [pc, #-380]!	; 1610 <serial_exit+0x8>
    1788:	7000756d 	andvc	r7, r0, sp, ror #10
    178c:	0074726f 	rsbseq	r7, r4, pc, ror #4
    1790:	69726573 	ldmdbvs	r2!, {r0, r1, r4, r5, r6, r8, sl, sp, lr}^
    1794:	655f6c61 	ldrbvs	r6, [pc, #-3169]	; b3b <mem_preload_tlb+0xb>
    1798:	00746978 	rsbseq	r6, r4, r8, ror r9
    179c:	6b636162 	blvs	18d9d2c <__bss_end+0x18d6bb0>
    17a0:	635f7075 	cmpvs	pc, #117	; 0x75
    17a4:	755f7563 	ldrbvc	r7, [pc, #-1379]	; 1249 <__restore_processor_state+0x95>
    17a8:	00747261 	rsbseq	r7, r4, r1, ror #4
    17ac:	616f7475 	smcvs	63301	; 0xf745
    17b0:	7a697300 	bvc	1a5e3b8 <__bss_end+0x1a5b23c>
    17b4:	00745f65 	rsbseq	r5, r4, r5, ror #30
    17b8:	63727370 	cmnvs	r2, #112, 6	; 0xc0000001
    17bc:	726f6600 	rsbvc	r6, pc, #0, 12
    17c0:	0074616d 	rsbseq	r6, r4, sp, ror #2
    17c4:	6c6c6966 	stclvs	9, cr6, [ip], #-408	; 0xfffffe68
    17c8:	0068635f 	rsbeq	r6, r8, pc, asr r3
    17cc:	61765f5f 	cmnvs	r6, pc, asr pc
    17d0:	73696c5f 	cmnvc	r9, #24320	; 0x5f00
    17d4:	65640074 	strbvs	r0, [r4, #-116]!	; 0xffffff8c
    17d8:	67677562 	strbvs	r7, [r7, -r2, ror #10]!
    17dc:	625f7265 	subsvs	r7, pc, #1342177286	; 0x50000006
    17e0:	65666675 	strbvs	r6, [r6, #-1653]!	; 0xfffff98b
    17e4:	656e0072 	strbvs	r0, [lr, #-114]!	; 0xffffff8e
    17e8:	69746167 	ldmdbvs	r4!, {r0, r1, r2, r5, r6, r8, sp, lr}^
    17ec:	69006576 	stmdbvs	r0, {r1, r2, r4, r5, r6, r8, sl, sp, lr}
    17f0:	00616f74 	rsbeq	r6, r1, r4, ror pc
    17f4:	68637261 	stmdavs	r3!, {r0, r5, r6, r9, ip, sp, lr}^
    17f8:	6d72612f 	ldfvse	f6, [r2, #-188]!	; 0xffffff44
    17fc:	63616d2f 	cmnvs	r1, #3008	; 0xbc0
    1800:	75732d68 	ldrbvc	r2, [r3, #-3432]!	; 0xfffff298
    1804:	2f69786e 	svccs	0x0069786e
    1808:	732f6d70 			; <UNDEFINED> instruction: 0x732f6d70
    180c:	646e6174 	strbtvs	r6, [lr], #-372	; 0xfffffe8c
    1810:	2e2f7962 	cdpcs	9, 2, cr7, cr15, cr2, {3}
    1814:	656d2f2e 	strbvs	r2, [sp, #-3886]!	; 0xfffff0d2
    1818:	72705f6d 	rsbsvc	r5, r0, #436	; 0x1b4
    181c:	6b746e69 	blvs	1d1d1c8 <__bss_end+0x1d1a04c>
    1820:	7300632e 	movwvc	r6, #814	; 0x32e
    1824:	6b636174 	blvs	18d9dfc <__bss_end+0x18d6c80>
    1828:	67726100 	ldrbvs	r6, [r2, -r0, lsl #2]!
    182c:	61720073 	cmnvs	r2, r3, ror r0
    1830:	00786964 	rsbseq	r6, r8, r4, ror #18
    1834:	70615f5f 	rsbvc	r5, r1, pc, asr pc
    1838:	72747300 	rsbsvc	r7, r4, #0, 6
    183c:	006e656c 	rsbeq	r6, lr, ip, ror #10
    1840:	69676964 	stmdbvs	r7!, {r2, r5, r6, r8, fp, sp, lr}^
    1844:	74735f74 	ldrbtvc	r5, [r3], #-3956	; 0xfffff08c
    1848:	676e6972 			; <UNDEFINED> instruction: 0x676e6972
    184c:	72747300 	rsbsvc	r7, r4, #0, 6
    1850:	00797063 	rsbseq	r7, r9, r3, rrx
    1854:	73656470 	cmnvc	r5, #112, 8	; 0x70000000
    1858:	72700074 	rsbsvc	r0, r0, #116	; 0x74
    185c:	5f746e69 	svcpl	0x00746e69
    1860:	67696c61 	strbvs	r6, [r9, -r1, ror #24]!
    1864:	7270006e 	rsbsvc	r0, r0, #110	; 0x6e
    1868:	6b746e69 	blvs	1d1d214 <__bss_end+0x1d1a098>
    186c:	6d6f6e5f 	stclvs	14, cr6, [pc, #-380]!	; 16f8 <serial_puts_nommu+0x1c>
    1870:	5f00756d 	svcpl	0x0000756d
    1874:	756e675f 	strbvc	r6, [lr, #-1887]!	; 0xfffff8a1
    1878:	61765f63 	cmnvs	r6, r3, ror #30
    187c:	73696c5f 	cmnvc	r9, #24320	; 0x5f00
    1880:	74730074 	ldrbtvc	r0, [r3], #-116	; 0xffffff8c
    1884:	61636e72 	smcvs	14050	; 0x36e2
    1888:	5f5f0074 	svcpl	0x005f0074
    188c:	5f6d656d 	svcpl	0x006d656d
    1890:	30766964 	rsbscc	r6, r6, r4, ror #18
    1894:	706d7400 	rsbvc	r7, sp, r0, lsl #8
    1898:	746f7551 	strbtvc	r7, [pc], #-1361	; 18a0 <serial_init+0x60>
    189c:	76696400 	strbtvc	r6, [r9], -r0, lsl #8
    18a0:	6f697369 	svcvs	0x00697369
    18a4:	69640072 	stmdbvs	r4!, {r1, r4, r5, r6}^
    18a8:	65646976 	strbvs	r6, [r4, #-2422]!	; 0xfffff68a
    18ac:	7400646e 	strvc	r6, [r0], #-1134	; 0xfffffb92
    18b0:	6944706d 	stmdbvs	r4, {r0, r2, r3, r5, r6, ip, sp, lr}^
    18b4:	72610076 	rsbvc	r0, r1, #118	; 0x76
    18b8:	612f6863 			; <UNDEFINED> instruction: 0x612f6863
    18bc:	6d2f6d72 	stcvs	13, cr6, [pc, #-456]!	; 16fc <serial_puts_nommu+0x20>
    18c0:	2d686361 	stclcs	3, cr6, [r8, #-388]!	; 0xfffffe7c
    18c4:	786e7573 	stmdavc	lr!, {r0, r1, r4, r5, r6, r8, sl, ip, sp, lr}^
    18c8:	6d702f69 	ldclvs	15, cr2, [r0, #-420]!	; 0xfffffe5c
    18cc:	6174732f 	cmnvs	r4, pc, lsr #6
    18d0:	7962646e 	stmdbvc	r2!, {r1, r2, r3, r5, r6, sl, sp, lr}^
    18d4:	2f2e2e2f 	svccs	0x002e2e2f
    18d8:	5f6d656d 	svcpl	0x006d656d
    18dc:	6c766964 	ldclvs	9, cr6, [r6], #-400	; 0xfffffe70
    18e0:	2e636269 	cdpcs	2, 6, cr6, cr3, cr9, {3}
    18e4:	68730063 	ldmdavs	r3!, {r0, r1, r5, r6}^
    18e8:	00746669 	rsbseq	r6, r4, r9, ror #12
    18ec:	75736572 	ldrbvc	r6, [r3, #-1394]!	; 0xfffffa8e
    18f0:	6d00746c 	cfstrsvs	mvf7, [r0, #-432]	; 0xfffffe50
    18f4:	695f6d65 	ldmdbvs	pc, {r0, r2, r5, r6, r8, sl, fp, sp, lr}^	; <UNPREDICTABLE>
    18f8:	655f746e 	ldrbvs	r7, [pc, #-1134]	; 1492 <set_copro_default+0x2>
    18fc:	00746978 	rsbseq	r6, r4, r8, ror r9
    1900:	68637261 	stmdavs	r3!, {r0, r5, r6, r9, ip, sp, lr}^
    1904:	6d72612f 	ldfvse	f6, [r2, #-188]!	; 0xffffff44
    1908:	63616d2f 	cmnvs	r1, #3008	; 0xbc0
    190c:	75732d68 	ldrbvc	r2, [r3, #-3432]!	; 0xfffff298
    1910:	2f69786e 	svccs	0x0069786e
    1914:	732f6d70 			; <UNDEFINED> instruction: 0x732f6d70
    1918:	646e6174 	strbtvs	r6, [lr], #-372	; 0xfffffe8c
    191c:	2e2f7962 	cdpcs	9, 2, cr7, cr15, cr2, {3}
    1920:	656d2f2e 	strbvs	r2, [sp, #-3886]!	; 0xfffff0d2
    1924:	6e695f6d 	cdpvs	15, 6, cr5, cr9, cr13, {3}
    1928:	00632e74 	rsbeq	r2, r3, r4, ror lr
    192c:	5f544e49 	svcpl	0x00544e49
    1930:	52554f53 	subspl	r4, r5, #332	; 0x14c
    1934:	555f4543 	ldrbpl	r4, [pc, #-1347]	; 13f9 <__restore_processor_state+0x245>
    1938:	48454253 	stmdami	r5, {r0, r1, r4, r6, r9, lr}^
    193c:	00304943 	eorseq	r4, r0, r3, asr #18
    1940:	5f544e49 	svcpl	0x00544e49
    1944:	52554f53 	subspl	r4, r5, #332	; 0x14c
    1948:	555f4543 	ldrbpl	r4, [pc, #-1347]	; 140d <__restore_processor_state+0x259>
    194c:	48454253 	stmdami	r5, {r0, r1, r4, r6, r9, lr}^
    1950:	00314943 	eorseq	r4, r1, r3, asr #18
    1954:	5f544e49 	svcpl	0x00544e49
    1958:	52554f53 	subspl	r4, r5, #332	; 0x14c
    195c:	555f4543 	ldrbpl	r4, [pc, #-1347]	; 1421 <__restore_processor_state+0x26d>
    1960:	48454253 	stmdami	r5, {r0, r1, r4, r6, r9, lr}^
    1964:	00324943 	eorseq	r4, r2, r3, asr #18
    1968:	5f544e49 	svcpl	0x00544e49
    196c:	52554f53 	subspl	r4, r5, #332	; 0x14c
    1970:	545f4543 	ldrbpl	r4, [pc], #-1347	; 1978 <serial_puts+0x90>
    1974:	4843554f 	stmdami	r3, {r0, r1, r2, r3, r6, r8, sl, ip, lr}^
    1978:	004c4e50 	subeq	r4, ip, r0, asr lr
    197c:	5f6d656d 	svcpl	0x006d656d
    1980:	5f746e69 	svcpl	0x00746e69
    1984:	74696e69 	strbtvc	r6, [r9], #-3689	; 0xfffff197
    1988:	6d656d00 	stclvs	13, cr6, [r5, #-0]
    198c:	616e655f 	cmnvs	lr, pc, asr r5
    1990:	5f656c62 	svcpl	0x00656c62
    1994:	00746e69 	rsbseq	r6, r4, r9, ror #28
    1998:	65746e69 	ldrbvs	r6, [r4, #-3689]!	; 0xfffff197
    199c:	70757272 	rsbsvc	r7, r5, r2, ror r2
    19a0:	6f735f74 	svcvs	0x00735f74
    19a4:	65637275 	strbvs	r7, [r3, #-629]!	; 0xfffffd8b
    19a8:	4900655f 	stmdbmi	r0, {r0, r1, r2, r3, r4, r6, r8, sl, sp, lr}
    19ac:	535f544e 	cmppl	pc, #1308622848	; 0x4e000000
    19b0:	4352554f 	cmpmi	r2, #331350016	; 0x13c00000
    19b4:	50475f45 	subpl	r5, r7, r5, asr #30
    19b8:	00414f49 	subeq	r4, r1, r9, asr #30
    19bc:	5f544e49 	svcpl	0x00544e49
    19c0:	52554f53 	subspl	r4, r5, #332	; 0x14c
    19c4:	475f4543 	ldrbmi	r4, [pc, -r3, asr #10]
    19c8:	424f4950 	submi	r4, pc, #80, 18	; 0x140000
    19cc:	544e4900 	strbpl	r4, [lr], #-2304	; 0xfffff700
    19d0:	554f535f 	strbpl	r5, [pc, #-863]	; 1679 <serial_init_nommu+0x3d>
    19d4:	5f454352 	svcpl	0x00454352
    19d8:	4f495047 	svcmi	0x00495047
    19dc:	4e490043 	cdpmi	0, 4, cr0, cr9, cr3, {2}
    19e0:	4f535f54 	svcmi	0x00535f54
    19e4:	45435255 	strbmi	r5, [r3, #-597]	; 0xfffffdab
    19e8:	4950475f 	ldmdbmi	r0, {r0, r1, r2, r3, r4, r6, r8, r9, sl, lr}^
    19ec:	4900444f 	stmdbmi	r0, {r0, r1, r2, r3, r6, sl, lr}
    19f0:	535f544e 	cmppl	pc, #1308622848	; 0x4e000000
    19f4:	4352554f 	cmpmi	r2, #331350016	; 0x13c00000
    19f8:	50475f45 	subpl	r5, r7, r5, asr #30
    19fc:	00454f49 	subeq	r4, r5, r9, asr #30
    1a00:	5f544e49 	svcpl	0x00544e49
    1a04:	52554f53 	subspl	r4, r5, #332	; 0x14c
    1a08:	475f4543 	ldrbmi	r4, [pc, -r3, asr #10]
    1a0c:	464f4950 			; <UNDEFINED> instruction: 0x464f4950
    1a10:	544e4900 	strbpl	r4, [lr], #-2304	; 0xfffff700
    1a14:	554f535f 	strbpl	r5, [pc, #-863]	; 16bd <serial_init_nommu+0x81>
    1a18:	5f454352 	svcpl	0x00454352
    1a1c:	4f495047 	svcmi	0x00495047
    1a20:	4e490047 	cdpmi	0, 4, cr0, cr9, cr7, {2}
    1a24:	4f535f54 	svcmi	0x00535f54
    1a28:	45435255 	strbmi	r5, [r3, #-597]	; 0xfffffdab
    1a2c:	4950475f 	ldmdbmi	r0, {r0, r1, r2, r3, r4, r6, r8, r9, sl, lr}^
    1a30:	4900484f 	stmdbmi	r0, {r0, r1, r2, r3, r6, fp, lr}
    1a34:	535f544e 	cmppl	pc, #1308622848	; 0x4e000000
    1a38:	4352554f 	cmpmi	r2, #331350016	; 0x13c00000
    1a3c:	50475f45 	subpl	r5, r7, r5, asr #30
    1a40:	00494f49 	subeq	r4, r9, r9, asr #30
    1a44:	5f544e49 	svcpl	0x00544e49
    1a48:	52554f53 	subspl	r4, r5, #332	; 0x14c
    1a4c:	475f4543 	ldrbmi	r4, [pc, -r3, asr #10]
    1a50:	4a4f4950 	bmi	13d3f98 <__bss_end+0x13d0e1c>
    1a54:	544e4900 	strbpl	r4, [lr], #-2304	; 0xfffff700
    1a58:	554f535f 	strbpl	r5, [pc, #-863]	; 1701 <serial_puts_nommu+0x25>
    1a5c:	5f454352 	svcpl	0x00454352
    1a60:	4f425355 	svcmi	0x00425355
    1a64:	49004754 	stmdbmi	r0, {r2, r4, r6, r8, r9, sl, lr}
    1a68:	535f544e 	cmppl	pc, #1308622848	; 0x4e000000
    1a6c:	4352554f 	cmpmi	r2, #331350016	; 0x13c00000
    1a70:	524c5f45 	subpl	r5, ip, #276	; 0x114
    1a74:	00434441 	subeq	r4, r3, r1, asr #8
    1a78:	5f544e49 	svcpl	0x00544e49
    1a7c:	52554f53 	subspl	r4, r5, #332	; 0x14c
    1a80:	555f4543 	ldrbpl	r4, [pc, #-1347]	; 1545 <restore_processor_ttbr0+0xd>
    1a84:	484f4253 	stmdami	pc, {r0, r1, r4, r6, r9, lr}^	; <UNPREDICTABLE>
    1a88:	00304943 	eorseq	r4, r0, r3, asr #18
    1a8c:	5f544e49 	svcpl	0x00544e49
    1a90:	52554f53 	subspl	r4, r5, #332	; 0x14c
    1a94:	555f4543 	ldrbpl	r4, [pc, #-1347]	; 1559 <set_ttbr0+0xd>
    1a98:	484f4253 	stmdami	pc, {r0, r1, r4, r6, r9, lr}^	; <UNPREDICTABLE>
    1a9c:	00314943 	eorseq	r4, r1, r3, asr #18
    1aa0:	5f544e49 	svcpl	0x00544e49
    1aa4:	52554f53 	subspl	r4, r5, #332	; 0x14c
    1aa8:	555f4543 	ldrbpl	r4, [pc, #-1347]	; 156d <set_serial_clk+0x11>
    1aac:	484f4253 	stmdami	pc, {r0, r1, r4, r6, r9, lr}^	; <UNPREDICTABLE>
    1ab0:	00324943 	eorseq	r4, r2, r3, asr #18
    1ab4:	5f544e49 	svcpl	0x00544e49
    1ab8:	52554f53 	subspl	r4, r5, #332	; 0x14c
    1abc:	455f4543 	ldrbmi	r4, [pc, #-1347]	; 1581 <set_serial_clk+0x25>
    1ac0:	4d4e5458 	cfstrdmi	mvd5, [lr, #-352]	; 0xfffffea0
    1ac4:	6e650049 	cdpvs	0, 6, cr0, cr5, cr9, {2}
    1ac8:	656c6261 	strbvs	r6, [ip, #-609]!	; 0xfffffd9f
    1acc:	7469625f 	strbtvc	r6, [r9], #-607	; 0xfffffda1
    1ad0:	706d7400 	rsbvc	r7, sp, r0, lsl #8
    1ad4:	00637253 	rsbeq	r7, r3, r3, asr r2
    1ad8:	5f544e49 	svcpl	0x00544e49
    1adc:	52554f53 	subspl	r4, r5, #332	; 0x14c
    1ae0:	545f4543 	ldrbpl	r4, [pc], #-1347	; 1ae8 <utoa+0xc4>
    1ae4:	52454d49 	subpl	r4, r5, #4672	; 0x1240
    1ae8:	4e490030 	mcrmi	0, 2, r0, cr9, cr0, {1}
    1aec:	4f535f54 	svcmi	0x00535f54
    1af0:	45435255 	strbmi	r5, [r3, #-597]	; 0xfffffdab
    1af4:	4d49545f 	cfstrdmi	mvd5, [r9, #-380]	; 0xfffffe84
    1af8:	00315245 	eorseq	r5, r1, r5, asr #4
    1afc:	44636947 	strbtmi	r6, [r3], #-2375	; 0xfffff6b9
    1b00:	63736944 	cmnvs	r3, #68, 18	; 0x110000
    1b04:	6d656d00 	stclvs	13, cr6, [r5, #-0]
    1b08:	6575715f 	ldrbvs	r7, [r5, #-351]!	; 0xfffffea1
    1b0c:	695f7972 	ldmdbvs	pc, {r1, r4, r5, r6, r8, fp, ip, sp, lr}^	; <UNPREDICTABLE>
    1b10:	4900746e 	stmdbmi	r0, {r1, r2, r3, r5, r6, sl, ip, sp, lr}
    1b14:	535f544e 	cmppl	pc, #1308622848	; 0x4e000000
    1b18:	4352554f 	cmpmi	r2, #331350016	; 0x13c00000
    1b1c:	52495f45 	subpl	r5, r9, #276	; 0x114
    1b20:	4e490030 	mcrmi	0, 2, r0, cr9, cr0, {1}
    1b24:	4f535f54 	svcmi	0x00535f54
    1b28:	45435255 	strbmi	r5, [r3, #-597]	; 0xfffffdab
    1b2c:	3152495f 	cmpcc	r2, pc, asr r9
    1b30:	544e4900 	strbpl	r4, [lr], #-2304	; 0xfffff700
    1b34:	554f535f 	strbpl	r5, [pc, #-863]	; 17dd <serial_gets_nommu+0x59>
    1b38:	5f454352 	svcpl	0x00454352
    1b3c:	5f47534d 	svcpl	0x0047534d
    1b40:	00584f42 	subseq	r4, r8, r2, asr #30
    1b44:	47706d74 			; <UNDEFINED> instruction: 0x47706d74
    1b48:	49007072 	stmdbmi	r0, {r1, r4, r5, r6, ip, sp, lr}
    1b4c:	535f544e 	cmppl	pc, #1308622848	; 0x4e000000
    1b50:	4352554f 	cmpmi	r2, #331350016	; 0x13c00000
    1b54:	4c415f45 	mcrrmi	15, 4, r5, r1, cr5
    1b58:	004d5241 	subeq	r5, sp, r1, asr #4
    1b5c:	43636947 	cmnmi	r3, #1163264	; 0x11c000
    1b60:	63736944 	cmnvs	r3, #68, 18	; 0x110000
    1b64:	6d656d00 	stclvs	13, cr6, [r5, #-0]
    1b68:	6970675f 	ldmdbvs	r0!, {r0, r1, r2, r3, r4, r6, r8, r9, sl, sp, lr}^
    1b6c:	65725f6f 	ldrbvs	r5, [r2, #-3951]!	; 0xfffff091
    1b70:	726f7473 	rsbvc	r7, pc, #1929379840	; 0x73000000
    1b74:	70670065 	rsbvc	r0, r7, r5, rrx
    1b78:	725f6f69 	subsvc	r6, pc, #420	; 0x1a4
    1b7c:	625f6765 	subsvs	r6, pc, #26476544	; 0x1940000
    1b80:	006b6361 	rsbeq	r6, fp, r1, ror #6
    1b84:	69706770 	ldmdbvs	r0!, {r4, r5, r6, r8, r9, sl, sp, lr}^
    1b88:	74735f6f 	ldrbtvc	r5, [r3], #-3951	; 0xfffff091
    1b8c:	00657461 	rsbeq	r7, r5, r1, ror #8
    1b90:	68637261 	stmdavs	r3!, {r0, r5, r6, r9, ip, sp, lr}^
    1b94:	6d72612f 	ldfvse	f6, [r2, #-188]!	; 0xffffff44
    1b98:	63616d2f 	cmnvs	r1, #3008	; 0xbc0
    1b9c:	75732d68 	ldrbvc	r2, [r3, #-3432]!	; 0xfffff298
    1ba0:	2f69786e 	svccs	0x0069786e
    1ba4:	732f6d70 			; <UNDEFINED> instruction: 0x732f6d70
    1ba8:	646e6174 	strbtvs	r6, [lr], #-372	; 0xfffffe8c
    1bac:	2e2f7962 	cdpcs	9, 2, cr7, cr15, cr2, {3}
    1bb0:	656d2f2e 	strbvs	r2, [sp, #-3886]!	; 0xfffff0d2
    1bb4:	70675f6d 	rsbvc	r5, r7, sp, ror #30
    1bb8:	632e6f69 			; <UNDEFINED> instruction: 0x632e6f69
    1bbc:	6d656d00 	stclvs	13, cr6, [r5, #-0]
    1bc0:	6970675f 	ldmdbvs	r0!, {r0, r1, r2, r3, r4, r6, r8, r9, sl, sp, lr}^
    1bc4:	61735f6f 	cmnvs	r3, pc, ror #30
    1bc8:	57006576 	smlsdxpl	r0, r6, r5, r6
    1bcc:	31676f44 	cmncc	r7, r4, asr #30
    1bd0:	7172495f 	cmnvc	r2, pc, asr r9
    1bd4:	6174535f 	cmnvs	r4, pc, asr r3
    1bd8:	73764100 	cmnvc	r6, #0, 2
    1bdc:	746e4331 	strbtvc	r4, [lr], #-817	; 0xfffffccf
    1be0:	746e4900 	strbtvc	r4, [lr], #-2304	; 0xfffff700
    1be4:	006c7443 	rsbeq	r7, ip, r3, asr #8
    1be8:	30726d54 	rsbscc	r6, r2, r4, asr sp
    1bec:	56746e49 	ldrbtpl	r6, [r4], -r9, asr #28
    1bf0:	57006c61 	strpl	r6, [r0, -r1, ror #24]
    1bf4:	31676f44 	cmncc	r7, r4, asr #30
    1bf8:	7274435f 	rsbsvc	r4, r4, #2080374785	; 0x7c000001
    1bfc:	65525f6c 	ldrbvs	r5, [r2, #-3948]	; 0xfffff094
    1c00:	656d0067 	strbvs	r0, [sp, #-103]!	; 0xffffff99
    1c04:	6d745f6d 	ldclvs	15, cr5, [r4, #-436]!	; 0xfffffe4c
    1c08:	65735f72 	ldrbvs	r5, [r3, #-3954]!	; 0xfffff08e
    1c0c:	6d540074 	ldclvs	0, cr0, [r4, #-464]	; 0xfffffe30
    1c10:	74433172 	strbvc	r3, [r3], #-370	; 0xfffffe8e
    1c14:	6d54006c 	ldclvs	0, cr0, [r4, #-432]	; 0xfffffe50
    1c18:	6e433072 	mcrvs	0, 2, r3, cr3, cr2, {3}
    1c1c:	6c615674 	stclvs	6, cr5, [r1], #-464	; 0xfffffe30
    1c20:	726d5400 	rsbvc	r5, sp, #0, 8
    1c24:	6c744335 	ldclvs	3, cr4, [r4], #-212	; 0xffffff2c
    1c28:	726d5400 	rsbvc	r5, sp, #0, 8
    1c2c:	746e4932 	strbtvc	r4, [lr], #-2354	; 0xfffff6ce
    1c30:	006c6156 	rsbeq	r6, ip, r6, asr r1
    1c34:	656d5f5f 	strbvs	r5, [sp, #-3935]!	; 0xfffff0a1
    1c38:	6d745f6d 	ldclvs	15, cr5, [r4, #-436]!	; 0xfffffe4c
    1c3c:	65725f72 	ldrbvs	r5, [r2, #-3954]!	; 0xfffff08e
    1c40:	00745f67 	rsbseq	r5, r4, r7, ror #30
    1c44:	32726d54 	rsbscc	r6, r2, #84, 26	; 0x1500
    1c48:	56746e43 	ldrbtpl	r6, [r4], -r3, asr #28
    1c4c:	57006c61 	strpl	r6, [r0, -r1, ror #24]
    1c50:	68637461 	stmdavs	r3!, {r0, r5, r6, sl, ip, sp, lr}^
    1c54:	31676f44 	cmncc	r7, r4, asr #30
    1c58:	7172495f 	cmnvc	r2, pc, asr r9
    1c5c:	5f6e455f 	svcpl	0x006e455f
    1c60:	006b6142 	rsbeq	r6, fp, r2, asr #2
    1c64:	5f6d656d 	svcpl	0x006d656d
    1c68:	5f726d74 	svcpl	0x00726d74
    1c6c:	74697865 	strbtvc	r7, [r9], #-2149	; 0xfffff79b
    1c70:	63726100 	cmnvs	r2, #0, 2
    1c74:	72612f68 	rsbvc	r2, r1, #104, 30	; 0x1a0
    1c78:	616d2f6d 	cmnvs	sp, sp, ror #30
    1c7c:	732d6863 			; <UNDEFINED> instruction: 0x732d6863
    1c80:	69786e75 	ldmdbvs	r8!, {r0, r2, r4, r5, r6, r9, sl, fp, sp, lr}^
    1c84:	2f6d702f 	svccs	0x006d702f
    1c88:	6e617473 	mcrvs	4, 3, r7, cr1, cr3, {3}
    1c8c:	2f796264 	svccs	0x00796264
    1c90:	6d2f2e2e 	stcvs	14, cr2, [pc, #-184]!	; 1be0 <itoa.constprop.0+0x58>
    1c94:	745f6d65 	ldrbvc	r6, [pc], #-3429	; 1c9c <printk+0x20>
    1c98:	632e726d 			; <UNDEFINED> instruction: 0x632e726d
    1c9c:	726d5400 	rsbvc	r5, sp, #0, 8
    1ca0:	746e4934 	strbtvc	r4, [lr], #-2356	; 0xfffff6cc
    1ca4:	006c6156 	rsbeq	r6, ip, r6, asr r1
    1ca8:	34726d54 	ldrbtcc	r6, [r2], #-3412	; 0xfffff2ac
    1cac:	56746e43 	ldrbtpl	r6, [r4], -r3, asr #28
    1cb0:	57006c61 	strpl	r6, [r0, -r1, ror #24]
    1cb4:	68637461 	stmdavs	r3!, {r0, r5, r6, sl, ip, sp, lr}^
    1cb8:	31676f44 	cmncc	r7, r4, asr #30
    1cbc:	6e6f435f 	mcrvs	3, 3, r4, cr15, cr15, {2}
    1cc0:	5f676966 	svcpl	0x00676966
    1cc4:	5f676552 	svcpl	0x00676552
    1cc8:	006b6142 	rsbeq	r6, fp, r2, asr #2
    1ccc:	65736572 	ldrbvs	r6, [r3, #-1394]!	; 0xfffffa8e
    1cd0:	64657672 	strbtvs	r7, [r5], #-1650	; 0xfffff98e
    1cd4:	6d540038 	ldclvs	0, cr0, [r4, #-224]	; 0xffffff20
    1cd8:	74433272 	strbvc	r3, [r3], #-626	; 0xfffffd8e
    1cdc:	4457006c 	ldrbmi	r0, [r7], #-108	; 0xffffff94
    1ce0:	5f31676f 	svcpl	0x0031676f
    1ce4:	65646f4d 	strbvs	r6, [r4, #-3917]!	; 0xfffff0b3
    1ce8:	6765525f 			; <UNDEFINED> instruction: 0x6765525f
    1cec:	74615700 	strbtvc	r5, [r1], #-1792	; 0xfffff900
    1cf0:	6f446863 	svcvs	0x00446863
    1cf4:	4d5f3167 	ldfmie	f3, [pc, #-412]	; 1b60 <print_align+0x70>
    1cf8:	525f646f 	subspl	r6, pc, #1862270976	; 0x6f000000
    1cfc:	425f6765 	subsmi	r6, pc, #26476544	; 0x1940000
    1d00:	6d006b61 	vstrvs	d6, [r0, #-388]	; 0xfffffe7c
    1d04:	745f6d65 	ldrbvc	r6, [pc], #-3429	; 1d0c <printk+0x90>
    1d08:	655f726d 	ldrbvs	r7, [pc, #-621]	; 1aa3 <utoa+0x7f>
    1d0c:	6c62616e 	stfvse	f6, [r2], #-440	; 0xfffffe48
    1d10:	61775f65 	cmnvs	r7, r5, ror #30
    1d14:	64686374 	strbtvs	r6, [r8], #-884	; 0xfffffc8c
    1d18:	6d00676f 	stcvs	7, cr6, [r0, #-444]	; 0xfffffe44
    1d1c:	745f6d65 	ldrbvc	r6, [pc], #-3429	; 1d24 <printk+0xa8>
    1d20:	695f726d 	ldmdbvs	pc, {r0, r2, r3, r5, r6, r9, ip, sp, lr}^	; <UNPREDICTABLE>
    1d24:	0074696e 	rsbseq	r6, r4, lr, ror #18
    1d28:	676f4457 			; <UNDEFINED> instruction: 0x676f4457
    1d2c:	72495f31 	subvc	r5, r9, #49, 30	; 0xc4
    1d30:	6e455f71 	mcrvs	15, 2, r5, cr5, cr1, {3}
    1d34:	63657300 	cmnvs	r5, #0, 6
    1d38:	00646e6f 	rsbeq	r6, r4, pc, ror #28
    1d3c:	5f6d656d 	svcpl	0x006d656d
    1d40:	5f726d74 	svcpl	0x00726d74
    1d44:	74736572 	ldrbtvc	r6, [r3], #-1394	; 0xfffffa8e
    1d48:	0065726f 	rsbeq	r7, r5, pc, ror #4
    1d4c:	454d5f5f 	strbmi	r5, [sp, #-3935]	; 0xfffff0a1
    1d50:	4d545f4d 	ldclmi	15, cr5, [r4, #-308]	; 0xfffffecc
    1d54:	45525f52 	ldrbmi	r5, [r2, #-3922]	; 0xfffff0ae
    1d58:	656d0047 	strbvs	r0, [sp, #-71]!	; 0xffffffb9
    1d5c:	6d745f6d 	ldclvs	15, cr5, [r4, #-436]!	; 0xfffffe4c
    1d60:	69645f72 	stmdbvs	r4!, {r1, r4, r5, r6, r8, r9, sl, fp, ip, lr}^
    1d64:	6c626173 	stfvse	f6, [r2], #-460	; 0xfffffe34
    1d68:	61775f65 	cmnvs	r7, r5, ror #30
    1d6c:	64686374 	strbtvs	r6, [r8], #-884	; 0xfffffc8c
    1d70:	5400676f 	strpl	r6, [r0], #-1903	; 0xfffff891
    1d74:	4935726d 	ldmdbmi	r5!, {r0, r2, r3, r5, r6, r9, ip, sp, lr}
    1d78:	6156746e 	cmpvs	r6, lr, ror #8
    1d7c:	6d54006c 	ldclvs	0, cr0, [r4, #-432]	; 0xfffffe50
    1d80:	6e493172 	mcrvs	1, 2, r3, cr9, cr2, {3}
    1d84:	6c615674 	stclvs	6, cr5, [r1], #-464	; 0xfffffe30
    1d88:	6d747000 	ldclvs	0, cr7, [r4, #-0]
    1d8c:	74735f72 	ldrbtvc	r5, [r3], #-3954	; 0xfffff08e
    1d90:	00657461 	rsbeq	r7, r5, r1, ror #8
    1d94:	44737641 	ldrbtmi	r7, [r3], #-1601	; 0xfffff9bf
    1d98:	54007669 	strpl	r7, [r0], #-1641	; 0xfffff997
    1d9c:	4333726d 	teqmi	r3, #-805306362	; 0xd0000006
    1da0:	41006c74 	tstmi	r0, r4, ror ip
    1da4:	74437376 	strbvc	r7, [r3], #-886	; 0xfffffc8a
    1da8:	6e49006c 	cdpvs	0, 4, cr0, cr9, cr12, {3}
    1dac:	61745374 	cmnvs	r4, r4, ror r3
    1db0:	726d5400 	rsbvc	r5, sp, #0, 8
    1db4:	746e4331 	strbtvc	r4, [lr], #-817	; 0xfffffccf
    1db8:	006c6156 	rsbeq	r6, ip, r6, asr r1
    1dbc:	33726d54 	cmncc	r2, #84, 26	; 0x1500
    1dc0:	56746e49 	ldrbtpl	r6, [r4], -r9, asr #28
    1dc4:	57006c61 	strpl	r6, [r0, -r1, ror #24]
    1dc8:	31676f44 	cmncc	r7, r4, asr #30
    1dcc:	6766435f 			; <UNDEFINED> instruction: 0x6766435f
    1dd0:	6765525f 			; <UNDEFINED> instruction: 0x6765525f
    1dd4:	73764100 	cmnvc	r6, #0, 2
    1dd8:	746e4330 	strbtvc	r4, [lr], #-816	; 0xfffffcd0
    1ddc:	726d5400 	rsbvc	r5, sp, #0, 8
    1de0:	746e4335 	strbtvc	r4, [lr], #-821	; 0xfffffccb
    1de4:	006c6156 	rsbeq	r6, ip, r6, asr r1
    1de8:	52726d54 	rsbspl	r6, r2, #84, 26	; 0x1500
    1dec:	54006765 	strpl	r6, [r0], #-1893	; 0xfffff89b
    1df0:	4330726d 	teqmi	r0, #-805306362	; 0xd0000006
    1df4:	54006c74 	strpl	r6, [r0], #-3188	; 0xfffff38c
    1df8:	4334726d 	teqmi	r4, #-805306362	; 0xd0000006
    1dfc:	6d006c74 	stcvs	12, cr6, [r0, #-464]	; 0xfffffe30
    1e00:	745f6d65 	ldrbvc	r6, [pc], #-3429	; 1e08 <printk+0x18c>
    1e04:	735f726d 	cmpvc	pc, #-805306362	; 0xd0000006
    1e08:	00657661 	rsbeq	r7, r5, r1, ror #12
    1e0c:	68637261 	stmdavs	r3!, {r0, r5, r6, r9, ip, sp, lr}^
    1e10:	6d72612f 	ldfvse	f6, [r2, #-188]!	; 0xffffff44
    1e14:	63616d2f 	cmnvs	r1, #3008	; 0xbc0
    1e18:	75732d68 	ldrbvc	r2, [r3, #-3432]!	; 0xfffff298
    1e1c:	2f69786e 	svccs	0x0069786e
    1e20:	732f6d70 			; <UNDEFINED> instruction: 0x732f6d70
    1e24:	646e6174 	strbtvs	r6, [lr], #-372	; 0xfffffe8c
    1e28:	2e2f7962 	cdpcs	9, 2, cr7, cr15, cr2, {3}
    1e2c:	656d2f2e 	strbvs	r2, [sp, #-3886]!	; 0xfffff0d2
    1e30:	6d745f6d 	ldclvs	15, cr5, [r4, #-436]!	; 0xfffffe4c
    1e34:	706d7473 	rsbvc	r7, sp, r3, ror r4
    1e38:	6100632e 	tstvs	r0, lr, lsr #6
    1e3c:	2f686372 	svccs	0x00686372
    1e40:	2f6d7261 	svccs	0x006d7261
    1e44:	6863616d 	stmdavs	r3!, {r0, r2, r3, r5, r6, r8, sp, lr}^
    1e48:	6e75732d 	cdpvs	3, 7, cr7, cr5, cr13, {1}
    1e4c:	702f6978 	eorvc	r6, pc, r8, ror r9	; <UNPREDICTABLE>
    1e50:	74732f6d 	ldrbtvc	r2, [r3], #-3949	; 0xfffff093
    1e54:	62646e61 	rsbvs	r6, r4, #1552	; 0x610
    1e58:	2e2e2f79 	mcrcs	15, 1, r2, cr14, cr9, {3}
    1e5c:	6d656d2f 	stclvs	13, cr6, [r5, #-188]!	; 0xffffff44
    1e60:	7377685f 	cmnvc	r7, #6225920	; 0x5f0000
    1e64:	6c6e6970 	stclvs	9, cr6, [lr], #-448	; 0xfffffe40
    1e68:	2e6b636f 	cdpcs	3, 6, cr6, cr11, cr15, {3}
    1e6c:	656d0063 	strbvs	r0, [sp, #-99]!	; 0xffffff9d
    1e70:	6c635f6d 	stclvs	15, cr5, [r3], #-436	; 0xfffffe4c
    1e74:	65675f6b 	strbvs	r5, [r7, #-3947]!	; 0xfffff095
    1e78:	696d5f74 	stmdbvs	sp!, {r2, r4, r5, r6, r8, r9, sl, fp, ip, lr}^
    1e7c:	61006373 	tstvs	r0, r3, ror r3
    1e80:	2f686372 	svccs	0x00686372
    1e84:	2f6d7261 	svccs	0x006d7261
    1e88:	6863616d 	stmdavs	r3!, {r0, r2, r3, r5, r6, r8, sp, lr}^
    1e8c:	6e75732d 	cdpvs	3, 7, cr7, cr5, cr13, {1}
    1e90:	702f6978 	eorvc	r6, pc, r8, ror r9	; <UNPREDICTABLE>
    1e94:	74732f6d 	ldrbtvc	r2, [r3], #-3949	; 0xfffff093
    1e98:	62646e61 	rsbvs	r6, r4, #1552	; 0x610
    1e9c:	2e2e2f79 	mcrcs	15, 1, r2, cr14, cr9, {3}
    1ea0:	6d656d2f 	stclvs	13, cr6, [r5, #-188]!	; 0xffffff44
    1ea4:	6b6c635f 	blvs	1b1ac28 <__bss_end+0x1b17aac>
    1ea8:	4300632e 	movwmi	r6, #814	; 0x32e
    1eac:	6552756d 	ldrbvs	r7, [r2, #-1389]	; 0xfffffa93
    1eb0:	6c505f67 	mrrcvs	15, 6, r5, r0, cr7
    1eb4:	7443316c 	strbvc	r3, [r3], #-364	; 0xfffffe94
    1eb8:	6d745f6c 	ldclvs	15, cr5, [r4, #-432]!	; 0xfffffe50
    1ebc:	656d0070 	strbvs	r0, [sp, #-112]!	; 0xffffff90
    1ec0:	6c635f6d 	stclvs	15, cr5, [r3], #-436	; 0xfffffe4c
    1ec4:	65675f6b 	strbvs	r5, [r7, #-3947]!	; 0xfffff095
    1ec8:	76696474 			; <UNDEFINED> instruction: 0x76696474
    1ecc:	6d656d00 	stclvs	13, cr6, [r5, #-0]
    1ed0:	6b6c635f 	blvs	1b1ac54 <__bss_end+0x1b17ad8>
    1ed4:	7661735f 			; <UNDEFINED> instruction: 0x7661735f
    1ed8:	63630065 	cmnvs	r3, #101	; 0x65
    1edc:	65725f75 	ldrbvs	r5, [r2, #-3957]!	; 0xfffff08b
    1ee0:	61625f67 	cmnvs	r2, r7, ror #30
    1ee4:	6d006b63 	vstrvs	d6, [r0, #-396]	; 0xfffffe74
    1ee8:	635f6d65 	cmpvs	pc, #6464	; 0x1940
    1eec:	675f6b6c 	ldrbvs	r6, [pc, -ip, ror #22]
    1ef0:	705f7465 	subsvc	r7, pc, r5, ror #8
    1ef4:	665f6c6c 	ldrbvs	r6, [pc], -ip, ror #24
    1ef8:	6f746361 	svcvs	0x00746361
    1efc:	65720072 	ldrbvs	r0, [r2, #-114]!	; 0xffffff8e
    1f00:	61765f67 	cmnvs	r6, r7, ror #30
    1f04:	6370006c 	cmnvs	r0, #108	; 0x6c
    1f08:	735f6b6c 	cmpvc	pc, #108, 22	; 0x1b000
    1f0c:	65746174 	ldrbvs	r6, [r4, #-372]!	; 0xfffffe8c
    1f10:	6d656d00 	stclvs	13, cr6, [r5, #-0]
    1f14:	6b6c635f 	blvs	1b1ac98 <__bss_end+0x1b17b1c>
    1f18:	7365725f 	cmnvc	r5, #-268435451	; 0xf0000005
    1f1c:	65726f74 	ldrbvs	r6, [r2, #-3956]!	; 0xfffff08c
    1f20:	756d4300 	strbvc	r4, [sp, #-768]!	; 0xfffffd00
    1f24:	5f676552 	svcpl	0x00676552
    1f28:	43737953 	cmnmi	r3, #1359872	; 0x14c000
    1f2c:	69446b6c 	stmdbvs	r4, {r2, r3, r5, r6, r8, r9, fp, sp, lr}^
    1f30:	6d745f76 	ldclvs	15, cr5, [r4, #-472]!	; 0xfffffe28
    1f34:	Address 0x0000000000001f34 is out of bounds.


Disassembly of section .comment:

00000000 <.comment>:
   0:	3a434347 	bcc	10d0d24 <__bss_end+0x10cdba8>
   4:	704f2820 	subvc	r2, pc, r0, lsr #16
   8:	72576e65 	subsvc	r6, r7, #1616	; 0x650
   c:	43472074 	movtmi	r2, #28788	; 0x7074
  10:	2e352043 	cdpcs	0, 3, cr2, cr5, cr3, {2}
  14:	20302e32 	eorscs	r2, r0, r2, lsr lr
  18:	312d3037 			; <UNDEFINED> instruction: 0x312d3037
  1c:	2029312d 	eorcs	r3, r9, sp, lsr #2
  20:	2e322e35 	mrccs	14, 1, r2, cr2, cr5, {1}
  24:	Address 0x0000000000000024 is out of bounds.


Disassembly of section .ARM.attributes:

00000000 <.ARM.attributes>:
   0:	00002e41 	andeq	r2, r0, r1, asr #28
   4:	61656100 	cmnvs	r5, r0, lsl #2
   8:	01006962 	tsteq	r0, r2, ror #18
   c:	00000024 	andeq	r0, r0, r4, lsr #32
  10:	412d3705 			; <UNDEFINED> instruction: 0x412d3705
  14:	070a0600 	streq	r0, [sl, -r0, lsl #12]
  18:	09010841 	stmdbeq	r1, {r0, r6, fp}
  1c:	12020a02 	andne	r0, r2, #8192	; 0x2000
  20:	15011404 	strne	r1, [r1, #-1028]	; 0xfffffbfc
  24:	18031701 	stmdane	r3, {r0, r8, r9, sl, ip}
  28:	1c021a01 	stcne	10, cr1, [r2], {1}
  2c:	Address 0x000000000000002c is out of bounds.


Disassembly of section .debug_loc:

00000000 <.debug_loc>:
       0:	00000000 	andeq	r0, r0, r0
       4:	00000014 	andeq	r0, r0, r4, lsl r0
       8:	14500001 	ldrbne	r0, [r0], #-1
       c:	18000000 	stmdane	r0, {}	; <UNPREDICTABLE>
      10:	03000000 	movweq	r0, #0
      14:	9f047000 	svcls	0x00047000
      18:	00000018 	andeq	r0, r0, r8, lsl r0
      1c:	0000002c 	andeq	r0, r0, ip, lsr #32
      20:	01f30004 	mvnseq	r0, r4
      24:	00009f50 	andeq	r9, r0, r0, asr pc
	...
      30:	00180000 	andseq	r0, r8, r0
      34:	00010000 	andeq	r0, r1, r0
      38:	00001851 	andeq	r1, r0, r1, asr r8
      3c:	00002c00 	andeq	r2, r0, r0, lsl #24
      40:	f3000400 	vshl.u8	d0, d0, d0
      44:	009f5101 	addseq	r5, pc, r1, lsl #2
	...
      50:	04000000 	streq	r0, [r0], #-0
      54:	01000000 	mrseq	r0, (UNDEF: 0)
      58:	00045200 	andeq	r5, r4, r0, lsl #4
      5c:	00080000 	andeq	r0, r8, r0
      60:	00030000 	andeq	r0, r3, r0
      64:	089f7d72 	ldmeq	pc, {r1, r4, r5, r6, r8, sl, fp, ip, sp, lr}	; <UNPREDICTABLE>
      68:	18000000 	stmdane	r0, {}	; <UNPREDICTABLE>
      6c:	01000000 	mrseq	r0, (UNDEF: 0)
      70:	00005200 	andeq	r5, r0, r0, lsl #4
      74:	00000000 	andeq	r0, r0, r0
      78:	00040000 	andeq	r0, r4, r0
      7c:	001c0000 	andseq	r0, ip, r0
      80:	00010000 	andeq	r0, r1, r0
      84:	00001c51 	andeq	r1, r0, r1, asr ip
      88:	00002400 	andeq	r2, r0, r0, lsl #8
      8c:	71000300 	mrsvc	r0, LR_irq
      90:	00249f7c 	eoreq	r9, r4, ip, ror pc
      94:	002c0000 	eoreq	r0, ip, r0
      98:	00010000 	andeq	r0, r1, r0
      9c:	00000051 	andeq	r0, r0, r1, asr r0
      a0:	00000000 	andeq	r0, r0, r0
      a4:	00000400 	andeq	r0, r0, r0, lsl #8
      a8:	00001400 	andeq	r1, r0, r0, lsl #8
      ac:	50000100 	andpl	r0, r0, r0, lsl #2
      b0:	00000014 	andeq	r0, r0, r4, lsl r0
      b4:	00000018 	andeq	r0, r0, r8, lsl r0
      b8:	04700003 	ldrbteq	r0, [r0], #-3
      bc:	0000189f 	muleq	r0, pc, r8	; <UNPREDICTABLE>
      c0:	00002c00 	andeq	r2, r0, r0, lsl #24
      c4:	f3000600 	vmax.u8	d0, d0, d0
      c8:	04235001 	strteq	r5, [r3], #-1
      cc:	0000009f 	muleq	r0, pc, r0	; <UNPREDICTABLE>
      d0:	00000000 	andeq	r0, r0, r0
      d4:	00019400 	andeq	r9, r1, r0, lsl #8
      d8:	00019700 	andeq	r9, r1, r0, lsl #14
      dc:	50000100 	andpl	r0, r0, r0, lsl #2
      e0:	00000197 	muleq	r0, r7, r1
      e4:	00000244 	andeq	r0, r0, r4, asr #4
      e8:	74540001 	ldrbvc	r0, [r4], #-1
      ec:	b8000002 	stmdalt	r0, {r1}
      f0:	01000002 	tsteq	r0, r2
      f4:	00005400 	andeq	r5, r0, r0, lsl #8
      f8:	00000000 	andeq	r0, r0, r0
      fc:	014c0000 	mrseq	r0, (UNDEF: 76)
     100:	01540000 	cmpeq	r4, r0
     104:	00020000 	andeq	r0, r2, r0
     108:	01549f30 	cmpeq	r4, r0, lsr pc
     10c:	01580000 	cmpeq	r8, r0
     110:	00050000 	andeq	r0, r5, r0
     114:	1a330072 	bne	cc02e4 <__bss_end+0xcbd168>
     118:	0001589f 	muleq	r1, pc, r8	; <UNPREDICTABLE>
     11c:	00018700 	andeq	r8, r1, r0, lsl #14
     120:	52000100 	andpl	r0, r0, #0, 2
     124:	00000248 	andeq	r0, r0, r8, asr #4
     128:	00000258 	andeq	r0, r0, r8, asr r2
     12c:	58520001 	ldmdapl	r2, {r0}^
     130:	60000002 	andvs	r0, r0, r2
     134:	06000002 	streq	r0, [r0], -r2
     138:	80807200 	addhi	r7, r0, r0, lsl #4
     13c:	609f7c90 	umullsvs	r7, pc, r0, ip	; <UNPREDICTABLE>
     140:	64000002 	strvs	r0, [r0], #-2
     144:	06000002 	streq	r0, [r0], -r2
     148:	ffbf7200 			; <UNDEFINED> instruction: 0xffbf7200
     14c:	009f7c8f 	addseq	r7, pc, pc, lsl #25
     150:	00000000 	andeq	r0, r0, r0
     154:	30000000 	andcc	r0, r0, r0
     158:	40000000 	andmi	r0, r0, r0
     15c:	02000000 	andeq	r0, r0, #0
     160:	409f3000 	addsmi	r3, pc, r0
     164:	44000000 	strmi	r0, [r0], #-0
     168:	02000000 	andeq	r0, r0, #0
     16c:	449f3100 	ldrmi	r3, [pc], #256	; 174 <resume1_c_part+0x40>
     170:	48000000 	stmdami	r0, {}	; <UNPREDICTABLE>
     174:	02000000 	andeq	r0, r0, #0
     178:	489f3200 	ldmmi	pc, {r9, ip, sp}	; <UNPREDICTABLE>
     17c:	4c000000 	stcmi	0, cr0, [r0], {-0}
     180:	02000000 	andeq	r0, r0, #0
     184:	4c9f3300 	ldcmi	3, cr3, [pc], {0}
     188:	50000000 	andpl	r0, r0, r0
     18c:	02000000 	andeq	r0, r0, #0
     190:	009f3400 	addseq	r3, pc, r0, lsl #8
     194:	00000000 	andeq	r0, r0, r0
     198:	8c000000 	stchi	0, cr0, [r0], {-0}
     19c:	a0000000 	andge	r0, r0, r0
     1a0:	02000000 	andeq	r0, r0, #0
     1a4:	009f3000 	addseq	r3, pc, r0
     1a8:	00000000 	andeq	r0, r0, r0
     1ac:	44000000 	strmi	r0, [r0], #-0
     1b0:	60000001 	andvs	r0, r0, r1
     1b4:	01000001 	tsteq	r0, r1
     1b8:	01605000 	cmneq	r0, r0
     1bc:	01780000 	cmneq	r8, r0
     1c0:	00040000 	andeq	r0, r4, r0
     1c4:	9f5001f3 	svcls	0x005001f3
	...
     1d4:	0000000c 	andeq	r0, r0, ip
     1d8:	9f310002 	svcls	0x00310002
     1dc:	0000000c 	andeq	r0, r0, ip
     1e0:	00000014 	andeq	r0, r0, r4, lsl r0
     1e4:	14530001 	ldrbne	r0, [r3], #-1
     1e8:	18000000 	stmdane	r0, {}	; <UNPREDICTABLE>
     1ec:	05000000 	streq	r0, [r0, #-0]
     1f0:	40007300 	andmi	r7, r0, r0, lsl #6
     1f4:	00189f21 	andseq	r9, r8, r1, lsr #30
     1f8:	001c0000 	andseq	r0, ip, r0
     1fc:	00010000 	andeq	r0, r1, r0
     200:	00001c53 	andeq	r1, r0, r3, asr ip
     204:	00003400 	andeq	r3, r0, r0, lsl #8
     208:	9e000600 	cfmadd32ls	mvax0, mvfx0, mvfx0, mvfx0
     20c:	00000f04 	andeq	r0, r0, r4, lsl #30
     210:	00000080 	andeq	r0, r0, r0, lsl #1
     214:	00000000 	andeq	r0, r0, r0
     218:	00007400 	andeq	r7, r0, r0, lsl #8
     21c:	00007800 	andeq	r7, r0, r0, lsl #16
     220:	30000200 	andcc	r0, r0, r0, lsl #4
     224:	0000789f 	muleq	r0, pc, r8	; <UNPREDICTABLE>
     228:	00007c00 	andeq	r7, r0, r0, lsl #24
     22c:	73000500 	movwvc	r0, #1280	; 0x500
     230:	9f213400 	svcls	0x00213400
     234:	0000007c 	andeq	r0, r0, ip, ror r0
     238:	00000084 	andeq	r0, r0, r4, lsl #1
     23c:	00530001 	subseq	r0, r3, r1
     240:	00000000 	andeq	r0, r0, r0
     244:	84000000 	strhi	r0, [r0], #-0
     248:	8c000000 	stchi	0, cr0, [r0], {-0}
     24c:	02000000 	andeq	r0, r0, #0
     250:	009f3000 	addseq	r3, pc, r0
     254:	00000000 	andeq	r0, r0, r0
     258:	84000000 	strhi	r0, [r0], #-0
     25c:	90000000 	andls	r0, r0, r0
     260:	02000000 	andeq	r0, r0, #0
     264:	009f3000 	addseq	r3, pc, r0
     268:	00000000 	andeq	r0, r0, r0
     26c:	8c000000 	stchi	0, cr0, [r0], {-0}
     270:	a4000000 	strge	r0, [r0], #-0
     274:	01000000 	mrseq	r0, (UNDEF: 0)
     278:	00005300 	andeq	r5, r0, r0, lsl #6
     27c:	00000000 	andeq	r0, r0, r0
     280:	00900000 	addseq	r0, r0, r0
     284:	009c0000 	addseq	r0, ip, r0
     288:	00010000 	andeq	r0, r1, r0
     28c:	00000052 	andeq	r0, r0, r2, asr r0
     290:	00000000 	andeq	r0, r0, r0
     294:	0000b400 	andeq	fp, r0, r0, lsl #8
     298:	0000cc00 	andeq	ip, r0, r0, lsl #24
     29c:	50000100 	andpl	r0, r0, r0, lsl #2
     2a0:	000000cc 	andeq	r0, r0, ip, asr #1
     2a4:	000000d8 	ldrdeq	r0, [r0], -r8
     2a8:	01f30004 	mvnseq	r0, r4
     2ac:	00d89f50 	sbcseq	r9, r8, r0, asr pc
     2b0:	00e40000 	rsceq	r0, r4, r0
     2b4:	00010000 	andeq	r0, r1, r0
     2b8:	0000e450 	andeq	lr, r0, r0, asr r4
     2bc:	00014800 	andeq	r4, r1, r0, lsl #16
     2c0:	54000100 	strpl	r0, [r0], #-256	; 0xffffff00
	...
     2cc:	000000b4 	strheq	r0, [r0], -r4
     2d0:	000000cc 	andeq	r0, r0, ip, asr #1
     2d4:	9f300002 	svcls	0x00300002
     2d8:	000000d8 	ldrdeq	r0, [r0], -r8
     2dc:	000000e8 	andeq	r0, r0, r8, ror #1
     2e0:	9f300002 	svcls	0x00300002
     2e4:	000000e8 	andeq	r0, r0, r8, ror #1
     2e8:	000000f0 	strdeq	r0, [r0], -r0	; <UNPREDICTABLE>
     2ec:	01700006 	cmneq	r0, r6
     2f0:	9f1e0074 	svcls	0x001e0074
	...
     2fc:	000000b4 	strheq	r0, [r0], -r4
     300:	000000cc 	andeq	r0, r0, ip, asr #1
     304:	9f300002 	svcls	0x00300002
     308:	000000d8 	ldrdeq	r0, [r0], -r8
     30c:	000000ec 	andeq	r0, r0, ip, ror #1
     310:	9f300002 	svcls	0x00300002
     314:	00000138 	andeq	r0, r0, r8, lsr r1
     318:	0000013c 	andeq	r0, r0, ip, lsr r1
     31c:	00530001 	subseq	r0, r3, r1
     320:	00000000 	andeq	r0, r0, r0
     324:	b4000000 	strlt	r0, [r0], #-0
     328:	cc000000 	stcgt	0, cr0, [r0], {-0}
     32c:	02000000 	andeq	r0, r0, #0
     330:	d89f3000 	ldmle	pc, {ip, sp}	; <UNPREDICTABLE>
     334:	fc000000 	stc2	0, cr0, [r0], {-0}
     338:	02000000 	andeq	r0, r0, #0
     33c:	fc9f3000 	ldc2	0, cr3, [pc], {0}
     340:	48000000 	stmdami	r0, {}	; <UNPREDICTABLE>
     344:	01000001 	tsteq	r0, r1
     348:	00005000 	andeq	r5, r0, r0
     34c:	00000000 	andeq	r0, r0, r0
     350:	00b40000 	adcseq	r0, r4, r0
     354:	00cc0000 	sbceq	r0, ip, r0
     358:	00020000 	andeq	r0, r2, r0
     35c:	00d89f30 	sbcseq	r9, r8, r0, lsr pc
     360:	01000000 	mrseq	r0, (UNDEF: 0)
     364:	00020000 	andeq	r0, r2, r0
     368:	01009f30 	tsteq	r0, r0, lsr pc
     36c:	01040000 	mrseq	r0, (UNDEF: 4)
     370:	00010000 	andeq	r0, r1, r0
     374:	00000052 	andeq	r0, r0, r2, asr r0
     378:	00000000 	andeq	r0, r0, r0
     37c:	00010c00 	andeq	r0, r1, r0, lsl #24
     380:	00012800 	andeq	r2, r1, r0, lsl #16
     384:	30000200 	andcc	r0, r0, r0, lsl #4
     388:	0000009f 	muleq	r0, pc, r0	; <UNPREDICTABLE>
     38c:	00000000 	andeq	r0, r0, r0
     390:	00010c00 	andeq	r0, r1, r0, lsl #24
     394:	00012800 	andeq	r2, r1, r0, lsl #16
     398:	31000200 	mrscc	r0, R8_usr
     39c:	0000009f 	muleq	r0, pc, r0	; <UNPREDICTABLE>
     3a0:	00000000 	andeq	r0, r0, r0
     3a4:	00010c00 	andeq	r0, r1, r0, lsl #24
     3a8:	00011400 	andeq	r1, r1, r0, lsl #8
     3ac:	47000200 	strmi	r0, [r0, -r0, lsl #4]
     3b0:	0001149f 	muleq	r1, pc, r4	; <UNPREDICTABLE>
     3b4:	00012800 	andeq	r2, r1, r0, lsl #16
     3b8:	9e000600 	cfmadd32ls	mvax0, mvfx0, mvfx0, mvfx0
     3bc:	00000f04 	andeq	r0, r0, r4, lsl #30
     3c0:	00000080 	andeq	r0, r0, r0, lsl #1
     3c4:	00000000 	andeq	r0, r0, r0
     3c8:	00013800 	andeq	r3, r1, r0, lsl #16
     3cc:	00013c00 	andeq	r3, r1, r0, lsl #24
     3d0:	53000100 	movwpl	r0, #256	; 0x100
	...
     3dc:	00000148 	andeq	r0, r0, r8, asr #2
     3e0:	00000158 	andeq	r0, r0, r8, asr r1
     3e4:	58500001 	ldmdapl	r0, {r0}^
     3e8:	5c000001 	stcpl	0, cr0, [r0], {1}
     3ec:	01000001 	tsteq	r0, r1
     3f0:	015c5400 	cmpeq	ip, r0, lsl #8
     3f4:	01640000 	cmneq	r4, r0
     3f8:	00030000 	andeq	r0, r3, r0
     3fc:	649f0a74 	ldrvs	r0, [pc], #2676	; 404 <busy_waiting+0x18>
     400:	78000001 	stmdavc	r0, {r0}
     404:	01000001 	tsteq	r0, r1
     408:	00005400 	andeq	r5, r0, r0, lsl #8
     40c:	00000000 	andeq	r0, r0, r0
     410:	017c0000 	cmneq	ip, r0
     414:	01880000 	orreq	r0, r8, r0
     418:	00020000 	andeq	r0, r2, r0
     41c:	01889f31 	orreq	r9, r8, r1, lsr pc
     420:	01900000 	orrseq	r0, r0, r0
     424:	00010000 	andeq	r0, r1, r0
     428:	00019053 	andeq	r9, r1, r3, asr r0
     42c:	00019400 	andeq	r9, r1, r0, lsl #8
     430:	73000500 	movwvc	r0, #1280	; 0x500
     434:	9f214000 	svcls	0x00214000
     438:	00000194 	muleq	r0, r4, r1
     43c:	00000198 	muleq	r0, r8, r1
     440:	98530001 	ldmdals	r3, {r0}^
     444:	a8000001 	stmdage	r0, {r0}
     448:	06000001 	streq	r0, [r0], -r1
     44c:	0f049e00 	svceq	0x00049e00
     450:	00800000 	addeq	r0, r0, r0
     454:	00000000 	andeq	r0, r0, r0
     458:	a8000000 	stmdage	r0, {}	; <UNPREDICTABLE>
     45c:	b8000001 	stmdalt	r0, {r0}
     460:	02000001 	andeq	r0, r0, #1
     464:	009f3000 	addseq	r3, pc, r0
     468:	00000000 	andeq	r0, r0, r0
     46c:	d4000000 	strle	r0, [r0], #-0
     470:	d8000001 	stmdale	r0, {r0}
     474:	01000001 	tsteq	r0, r1
     478:	01d85000 	bicseq	r5, r8, r0
     47c:	01f40000 	mvnseq	r0, r0
     480:	00030000 	andeq	r0, r3, r0
     484:	f49f0270 			; <UNDEFINED> instruction: 0xf49f0270
     488:	00000001 	andeq	r0, r0, r1
     48c:	04000002 	streq	r0, [r0], #-2
     490:	5001f300 	andpl	pc, r1, r0, lsl #6
     494:	0000009f 	muleq	r0, pc, r0	; <UNPREDICTABLE>
     498:	00000000 	andeq	r0, r0, r0
     49c:	0001d400 	andeq	sp, r1, r0, lsl #8
     4a0:	0001ec00 	andeq	lr, r1, r0, lsl #24
     4a4:	30000200 	andcc	r0, r0, r0, lsl #4
     4a8:	0001ec9f 	muleq	r1, pc, ip	; <UNPREDICTABLE>
     4ac:	00020000 	andeq	r0, r2, r0
     4b0:	53000100 	movwpl	r0, #256	; 0x100
	...
     4bc:	000001d4 	ldrdeq	r0, [r0], -r4
     4c0:	000001f4 	strdeq	r0, [r0], -r4
     4c4:	9f300002 	svcls	0x00300002
	...
     4d0:	000006d4 	ldrdeq	r0, [r0], -r4
     4d4:	000006d8 	ldrdeq	r0, [r0], -r8
     4d8:	00720006 	rsbseq	r0, r2, r6
     4dc:	9f1afc09 	svcls	0x001afc09
     4e0:	000006d8 	ldrdeq	r0, [r0], -r8
     4e4:	000006e0 	andeq	r0, r0, r0, ror #13
     4e8:	00520001 	subseq	r0, r2, r1
     4ec:	00000000 	andeq	r0, r0, r0
     4f0:	9c000000 	stcls	0, cr0, [r0], {-0}
     4f4:	a0000007 	andge	r0, r0, r7
     4f8:	02000007 	andeq	r0, r0, #7
     4fc:	a09f3000 	addsge	r3, pc, r0
     500:	ac000007 	stcge	0, cr0, [r0], {7}
     504:	01000007 	tsteq	r0, r7
     508:	00005300 	andeq	r5, r0, r0, lsl #6
	...
     514:	000b0000 	andeq	r0, fp, r0
     518:	00010000 	andeq	r0, r1, r0
     51c:	00000b50 	andeq	r0, r0, r0, asr fp
     520:	00004400 	andeq	r4, r0, r0, lsl #8
     524:	54000100 	strpl	r0, [r0], #-256	; 0xffffff00
     528:	00000044 	andeq	r0, r0, r4, asr #32
     52c:	000000ac 	andeq	r0, r0, ip, lsr #1
     530:	01f30004 	mvnseq	r0, r4
     534:	00009f50 	andeq	r9, r0, r0, asr pc
	...
     540:	00280000 	eoreq	r0, r8, r0
     544:	00020000 	andeq	r0, r2, r0
     548:	00289f30 	eoreq	r9, r8, r0, lsr pc
     54c:	003b0000 	eorseq	r0, fp, r0
     550:	00010000 	andeq	r0, r1, r0
     554:	00000050 	andeq	r0, r0, r0, asr r0
	...
     560:	00005c00 	andeq	r5, r0, r0, lsl #24
     564:	30000200 	andcc	r0, r0, r0, lsl #4
     568:	00005c9f 	muleq	r0, pc, ip	; <UNPREDICTABLE>
     56c:	00008300 	andeq	r8, r0, r0, lsl #6
     570:	50000100 	andpl	r0, r0, r0, lsl #2
     574:	00000083 	andeq	r0, r0, r3, lsl #1
     578:	000000ac 	andeq	r0, r0, ip, lsr #1
     57c:	00550001 	subseq	r0, r5, r1
	...
     588:	68000000 	stmdavs	r0, {}	; <UNPREDICTABLE>
     58c:	02000000 	andeq	r0, r0, #0
     590:	689f3000 	ldmvs	pc, {ip, sp}	; <UNPREDICTABLE>
     594:	8c000000 	stchi	0, cr0, [r0], {-0}
     598:	06000000 	streq	r0, [r0], -r0
     59c:	02d80c00 	sbcseq	r0, r8, #0, 24
     5a0:	8c9f01c2 	ldfhis	f0, [pc], {194}	; 0xc2
     5a4:	ac000000 	stcge	0, cr0, [r0], {-0}
     5a8:	06000000 	streq	r0, [r0], -r0
     5ac:	006c0c00 	rsbeq	r0, ip, r0, lsl #24
     5b0:	009f01c2 	addseq	r0, pc, r2, asr #3
	...
     5bc:	0c000000 	stceq	0, cr0, [r0], {-0}
     5c0:	02000000 	andeq	r0, r0, #0
     5c4:	0c9f3000 	ldceq	0, cr3, [pc], {0}
     5c8:	20000000 	andcs	r0, r0, r0
     5cc:	01000000 	mrseq	r0, (UNDEF: 0)
     5d0:	00005000 	andeq	r5, r0, r0
     5d4:	00000000 	andeq	r0, r0, r0
     5d8:	00100000 	andseq	r0, r0, r0
     5dc:	00340000 	eorseq	r0, r4, r0
     5e0:	00010000 	andeq	r0, r1, r0
     5e4:	00000053 	andeq	r0, r0, r3, asr r0
     5e8:	00000000 	andeq	r0, r0, r0
     5ec:	0000e000 	andeq	lr, r0, r0
     5f0:	0000e800 	andeq	lr, r0, r0, lsl #16
     5f4:	50000100 	andpl	r0, r0, r0, lsl #2
     5f8:	000000e8 	andeq	r0, r0, r8, ror #1
     5fc:	00000180 	andeq	r0, r0, r0, lsl #3
     600:	01f30004 	mvnseq	r0, r4
     604:	00009f50 	andeq	r9, r0, r0, asr pc
     608:	00000000 	andeq	r0, r0, r0
     60c:	00e00000 	rsceq	r0, r0, r0
     610:	01580000 	cmpeq	r8, r0
     614:	00020000 	andeq	r0, r2, r0
     618:	01589f30 	cmpeq	r8, r0, lsr pc
     61c:	01800000 	orreq	r0, r0, r0
     620:	00050000 	andeq	r0, r5, r0
     624:	25440075 	strbcs	r0, [r4, #-117]	; 0xffffff8b
     628:	0000009f 	muleq	r0, pc, r0	; <UNPREDICTABLE>
     62c:	00000000 	andeq	r0, r0, r0
     630:	0000e000 	andeq	lr, r0, r0
     634:	00013000 	andeq	r3, r1, r0
     638:	30000200 	andcc	r0, r0, r0, lsl #4
     63c:	0000009f 	muleq	r0, pc, r0	; <UNPREDICTABLE>
     640:	00000000 	andeq	r0, r0, r0
     644:	0000e000 	andeq	lr, r0, r0
     648:	00012000 	andeq	r2, r1, r0
     64c:	30000200 	andcc	r0, r0, r0, lsl #4
     650:	0001209f 	muleq	r1, pc, r0	; <UNPREDICTABLE>
     654:	00015400 	andeq	r5, r1, r0, lsl #8
     658:	50000100 	andpl	r0, r0, r0, lsl #2
     65c:	00000154 	andeq	r0, r0, r4, asr r1
     660:	00000160 	andeq	r0, r0, r0, ror #2
     664:	80700005 	rsbshi	r0, r0, r5
     668:	009f47e0 	addseq	r4, pc, r0, ror #15
     66c:	00000000 	andeq	r0, r0, r0
     670:	e0000000 	and	r0, r0, r0
     674:	e8000000 	stmda	r0, {}	; <UNPREDICTABLE>
     678:	01000000 	mrseq	r0, (UNDEF: 0)
     67c:	00e85000 	rsceq	r5, r8, r0
     680:	01800000 	orreq	r0, r0, r0
     684:	00040000 	andeq	r0, r4, r0
     688:	9f5001f3 	svcls	0x005001f3
	...
     694:	00000180 	andeq	r0, r0, r0, lsl #3
     698:	000001c0 	andeq	r0, r0, r0, asr #3
     69c:	c0500001 	subsgt	r0, r0, r1
     6a0:	e0000001 	and	r0, r0, r1
     6a4:	03000001 	movweq	r0, #1
     6a8:	9f7f7000 	svcls	0x007f7000
     6ac:	000001e0 	andeq	r0, r0, r0, ror #3
     6b0:	000001f0 	strdeq	r0, [r0], -r0	; <UNPREDICTABLE>
     6b4:	f4500001 			; <UNDEFINED> instruction: 0xf4500001
     6b8:	1c000001 	stcne	0, cr0, [r0], {1}
     6bc:	01000002 	tsteq	r0, r2
     6c0:	021c5000 	andseq	r5, ip, #0
     6c4:	02200000 	eoreq	r0, r0, #0
     6c8:	00040000 	andeq	r0, r4, r0
     6cc:	9f5001f3 	svcls	0x005001f3
     6d0:	00000220 	andeq	r0, r0, r0, lsr #4
     6d4:	00000224 	andeq	r0, r0, r4, lsr #4
     6d8:	24500001 	ldrbcs	r0, [r0], #-1
     6dc:	28000002 	stmdacs	r0, {r1}
     6e0:	04000002 	streq	r0, [r0], #-2
     6e4:	5001f300 	andpl	pc, r1, r0, lsl #6
     6e8:	0000009f 	muleq	r0, pc, r0	; <UNPREDICTABLE>
     6ec:	00000000 	andeq	r0, r0, r0
     6f0:	0001c000 	andeq	ip, r1, r0
     6f4:	0001f400 	andeq	pc, r1, r0, lsl #8
     6f8:	51000100 	mrspl	r0, (UNDEF: 16)
	...
     704:	00000228 	andeq	r0, r0, r8, lsr #4
     708:	00000240 	andeq	r0, r0, r0, asr #4
     70c:	40500001 	subsmi	r0, r0, r1
     710:	44000002 	strmi	r0, [r0], #-2
     714:	04000002 	streq	r0, [r0], #-2
     718:	5001f300 	andpl	pc, r1, r0, lsl #6
     71c:	0002449f 	muleq	r2, pc, r4	; <UNPREDICTABLE>
     720:	00026000 	andeq	r6, r2, r0
     724:	50000100 	andpl	r0, r0, r0, lsl #2
     728:	00000260 	andeq	r0, r0, r0, ror #4
     72c:	000002b0 			; <UNDEFINED> instruction: 0x000002b0
     730:	01f30004 	mvnseq	r0, r4
     734:	02b09f50 	adcseq	r9, r0, #80, 30	; 0x140
     738:	02b40000 	adcseq	r0, r4, #0
     73c:	00010000 	andeq	r0, r1, r0
     740:	0002b450 	andeq	fp, r2, r0, asr r4
     744:	0002bc00 	andeq	fp, r2, r0, lsl #24
     748:	f3000400 	vshl.u8	d0, d0, d0
     74c:	009f5001 	addseq	r5, pc, r1
     750:	00000000 	andeq	r0, r0, r0
     754:	28000000 	stmdacs	r0, {}	; <UNPREDICTABLE>
     758:	60000002 	andvs	r0, r0, r2
     75c:	02000002 	andeq	r0, r0, #2
     760:	609f3000 	addsvs	r3, pc, r0
     764:	8c000002 	stchi	0, cr0, [r0], {2}
     768:	01000002 	tsteq	r0, r2
     76c:	028c5000 	addeq	r5, ip, #0
     770:	02940000 	addseq	r0, r4, #0
     774:	00030000 	andeq	r0, r3, r0
     778:	949f7f70 	ldrls	r7, [pc], #3952	; 780 <save_mmu_state>
     77c:	a4000002 	strge	r0, [r0], #-2
     780:	01000002 	tsteq	r0, r2
     784:	02a85000 	adceq	r5, r8, #0
     788:	02ac0000 	adceq	r0, ip, #0
     78c:	00010000 	andeq	r0, r1, r0
     790:	0002ac50 	andeq	sl, r2, r0, asr ip
     794:	0002b000 	andeq	fp, r2, r0
     798:	70000300 	andvc	r0, r0, r0, lsl #6
     79c:	02b09f7f 	adcseq	r9, r0, #508	; 0x1fc
     7a0:	02b80000 	adcseq	r0, r8, #0
     7a4:	00020000 	andeq	r0, r2, r0
     7a8:	02b89f30 	adcseq	r9, r8, #48, 30	; 0xc0
     7ac:	02bc0000 	adcseq	r0, ip, #0
     7b0:	00030000 	andeq	r0, r3, r0
     7b4:	009f7f70 	addseq	r7, pc, r0, ror pc	; <UNPREDICTABLE>
     7b8:	00000000 	andeq	r0, r0, r0
     7bc:	28000000 	stmdacs	r0, {}	; <UNPREDICTABLE>
     7c0:	60000002 	andvs	r0, r0, r2
     7c4:	02000002 	andeq	r0, r0, #2
     7c8:	b09f3000 	addslt	r3, pc, r0
     7cc:	b8000002 	stmdalt	r0, {r1}
     7d0:	02000002 	andeq	r0, r0, #2
     7d4:	009f3000 	addseq	r3, pc, r0
     7d8:	00000000 	andeq	r0, r0, r0
     7dc:	68000000 	stmdavs	r0, {}	; <UNPREDICTABLE>
     7e0:	6c000002 	stcvs	0, cr0, [r0], {2}
     7e4:	01000002 	tsteq	r0, r2
     7e8:	026c5300 	rsbeq	r5, ip, #0, 6
     7ec:	02700000 	rsbseq	r0, r0, #0
     7f0:	00030000 	andeq	r0, r3, r0
     7f4:	709f0173 	addsvc	r0, pc, r3, ror r1	; <UNPREDICTABLE>
     7f8:	84000002 	strhi	r0, [r0], #-2
     7fc:	01000002 	tsteq	r0, r2
     800:	02a85300 	adceq	r5, r8, #0, 6
     804:	02b00000 	adcseq	r0, r0, #0
     808:	00010000 	andeq	r0, r1, r0
     80c:	00000053 	andeq	r0, r0, r3, asr r0
     810:	00000000 	andeq	r0, r0, r0
     814:	0002e400 	andeq	lr, r2, r0, lsl #8
     818:	0002ec00 	andeq	lr, r2, r0, lsl #24
     81c:	50000100 	andpl	r0, r0, r0, lsl #2
     820:	000002ec 	andeq	r0, r0, ip, ror #5
     824:	0000038c 	andeq	r0, r0, ip, lsl #7
     828:	01f30004 	mvnseq	r0, r4
     82c:	00009f50 	andeq	r9, r0, r0, asr pc
     830:	00000000 	andeq	r0, r0, r0
     834:	02e40000 	rsceq	r0, r4, #0
     838:	03300000 	teqeq	r0, #0
     83c:	00020000 	andeq	r0, r2, r0
     840:	03309f30 	teqeq	r0, #48, 30	; 0xc0
     844:	03600000 	cmneq	r0, #0
     848:	00010000 	andeq	r0, r1, r0
     84c:	00036050 	andeq	r6, r3, r0, asr r0
     850:	00036c00 	andeq	r6, r3, r0, lsl #24
     854:	70000500 	andvc	r0, r0, r0, lsl #10
     858:	9f47e080 	svcls	0x0047e080
	...
     864:	000002e4 	andeq	r0, r0, r4, ror #5
     868:	00000364 	andeq	r0, r0, r4, ror #6
     86c:	9f300002 	svcls	0x00300002
     870:	00000364 	andeq	r0, r0, r4, ror #6
     874:	0000038c 	andeq	r0, r0, ip, lsl #7
     878:	00770005 	rsbseq	r0, r7, r5
     87c:	009f2544 	addseq	r2, pc, r4, asr #10
     880:	00000000 	andeq	r0, r0, r0
     884:	e4000000 	str	r0, [r0], #-0
     888:	48000002 	stmdami	r0, {r1}
     88c:	02000003 	andeq	r0, r0, #3
     890:	009f3000 	addseq	r3, pc, r0
     894:	00000000 	andeq	r0, r0, r0
     898:	e4000000 	str	r0, [r0], #-0
     89c:	ec000002 	stc	0, cr0, [r0], {2}
     8a0:	01000002 	tsteq	r0, r2
     8a4:	02ec5000 	rsceq	r5, ip, #0
     8a8:	038c0000 	orreq	r0, ip, #0
     8ac:	00040000 	andeq	r0, r4, r0
     8b0:	9f5001f3 	svcls	0x005001f3
	...
     8bc:	000002e4 	andeq	r0, r0, r4, ror #5
     8c0:	00000308 	andeq	r0, r0, r8, lsl #6
     8c4:	9f300002 	svcls	0x00300002
     8c8:	00000308 	andeq	r0, r0, r8, lsl #6
     8cc:	0000038c 	andeq	r0, r0, ip, lsl #7
     8d0:	049e0006 	ldreq	r0, [lr], #6
     8d4:	f1c208b4 			; <UNDEFINED> instruction: 0xf1c208b4
	...
     8e0:	0000038c 	andeq	r0, r0, ip, lsl #7
     8e4:	000003cc 	andeq	r0, r0, ip, asr #7
     8e8:	cc500001 	mrrcgt	0, 0, r0, r0, cr1	; <UNPREDICTABLE>
     8ec:	ec000003 	stc	0, cr0, [r0], {3}
     8f0:	03000003 	movweq	r0, #3
     8f4:	9f7f7000 	svcls	0x007f7000
     8f8:	000003ec 	andeq	r0, r0, ip, ror #7
     8fc:	000003fc 	strdeq	r0, [r0], -ip
     900:	00500001 	subseq	r0, r0, r1
     904:	28000004 	stmdacs	r0, {r2}
     908:	01000004 	tsteq	r0, r4
     90c:	04285000 	strteq	r5, [r8], #-0
     910:	042c0000 	strteq	r0, [ip], #-0
     914:	00040000 	andeq	r0, r4, r0
     918:	9f5001f3 	svcls	0x005001f3
     91c:	0000042c 	andeq	r0, r0, ip, lsr #8
     920:	00000430 	andeq	r0, r0, r0, lsr r4
     924:	30500001 	subscc	r0, r0, r1
     928:	34000004 	strcc	r0, [r0], #-4
     92c:	04000004 	streq	r0, [r0], #-4
     930:	5001f300 	andpl	pc, r1, r0, lsl #6
     934:	0000009f 	muleq	r0, pc, r0	; <UNPREDICTABLE>
     938:	00000000 	andeq	r0, r0, r0
     93c:	0003cc00 	andeq	ip, r3, r0, lsl #24
     940:	00040000 	andeq	r0, r4, r0
     944:	51000100 	mrspl	r0, (UNDEF: 16)
	...
     950:	00000434 	andeq	r0, r0, r4, lsr r4
     954:	0000044c 	andeq	r0, r0, ip, asr #8
     958:	4c500001 	mrrcmi	0, 0, r0, r0, cr1	; <UNPREDICTABLE>
     95c:	50000004 	andpl	r0, r0, r4
     960:	04000004 	streq	r0, [r0], #-4
     964:	5001f300 	andpl	pc, r1, r0, lsl #6
     968:	0004509f 	muleq	r4, pc, r0	; <UNPREDICTABLE>
     96c:	00046c00 	andeq	r6, r4, r0, lsl #24
     970:	50000100 	andpl	r0, r0, r0, lsl #2
     974:	0000046c 	andeq	r0, r0, ip, ror #8
     978:	000004bc 			; <UNDEFINED> instruction: 0x000004bc
     97c:	01f30004 	mvnseq	r0, r4
     980:	04bc9f50 	ldrteq	r9, [ip], #3920	; 0xf50
     984:	04c00000 	strbeq	r0, [r0], #0
     988:	00010000 	andeq	r0, r1, r0
     98c:	0004c050 	andeq	ip, r4, r0, asr r0
     990:	0004c800 	andeq	ip, r4, r0, lsl #16
     994:	f3000400 	vshl.u8	d0, d0, d0
     998:	009f5001 	addseq	r5, pc, r1
     99c:	00000000 	andeq	r0, r0, r0
     9a0:	34000000 	strcc	r0, [r0], #-0
     9a4:	6c000004 	stcvs	0, cr0, [r0], {4}
     9a8:	02000004 	andeq	r0, r0, #4
     9ac:	6c9f3000 	ldcvs	0, cr3, [pc], {0}
     9b0:	98000004 	stmdals	r0, {r2}
     9b4:	01000004 	tsteq	r0, r4
     9b8:	04985000 	ldreq	r5, [r8], #0
     9bc:	04a00000 	strteq	r0, [r0], #0
     9c0:	00030000 	andeq	r0, r3, r0
     9c4:	a09f7f70 	addsge	r7, pc, r0, ror pc	; <UNPREDICTABLE>
     9c8:	b0000004 	andlt	r0, r0, r4
     9cc:	01000004 	tsteq	r0, r4
     9d0:	04b45000 	ldrteq	r5, [r4], #0
     9d4:	04b80000 	ldrteq	r0, [r8], #0
     9d8:	00010000 	andeq	r0, r1, r0
     9dc:	0004b850 	andeq	fp, r4, r0, asr r8
     9e0:	0004bc00 	andeq	fp, r4, r0, lsl #24
     9e4:	70000300 	andvc	r0, r0, r0, lsl #6
     9e8:	04bc9f7f 	ldrteq	r9, [ip], #3967	; 0xf7f
     9ec:	04c40000 	strbeq	r0, [r4], #0
     9f0:	00020000 	andeq	r0, r2, r0
     9f4:	04c49f30 	strbeq	r9, [r4], #3888	; 0xf30
     9f8:	04c80000 	strbeq	r0, [r8], #0
     9fc:	00030000 	andeq	r0, r3, r0
     a00:	009f7f70 	addseq	r7, pc, r0, ror pc	; <UNPREDICTABLE>
     a04:	00000000 	andeq	r0, r0, r0
     a08:	34000000 	strcc	r0, [r0], #-0
     a0c:	6c000004 	stcvs	0, cr0, [r0], {4}
     a10:	02000004 	andeq	r0, r0, #4
     a14:	bc9f3000 	ldclt	0, cr3, [pc], {0}
     a18:	c4000004 	strgt	r0, [r0], #-4
     a1c:	02000004 	andeq	r0, r0, #4
     a20:	009f3000 	addseq	r3, pc, r0
     a24:	00000000 	andeq	r0, r0, r0
     a28:	74000000 	strvc	r0, [r0], #-0
     a2c:	78000004 	stmdavc	r0, {r2}
     a30:	01000004 	tsteq	r0, r4
     a34:	04785300 	ldrbteq	r5, [r8], #-768	; 0xfffffd00
     a38:	047c0000 	ldrbteq	r0, [ip], #-0
     a3c:	00030000 	andeq	r0, r3, r0
     a40:	7c9f0173 	ldfvcs	f0, [pc], {115}	; 0x73
     a44:	90000004 	andls	r0, r0, r4
     a48:	01000004 	tsteq	r0, r4
     a4c:	04b45300 	ldrteq	r5, [r4], #768	; 0x300
     a50:	04bc0000 	ldrteq	r0, [ip], #0
     a54:	00010000 	andeq	r0, r1, r0
     a58:	00000053 	andeq	r0, r0, r3, asr r0
	...
     a64:	00002000 	andeq	r2, r0, r0
     a68:	50000100 	andpl	r0, r0, r0, lsl #2
     a6c:	00000020 	andeq	r0, r0, r0, lsr #32
     a70:	00000044 	andeq	r0, r0, r4, asr #32
     a74:	44550001 	ldrbmi	r0, [r5], #-1
     a78:	48000000 	stmdami	r0, {}	; <UNPREDICTABLE>
     a7c:	01000000 	mrseq	r0, (UNDEF: 0)
     a80:	00485000 	subeq	r5, r8, r0
     a84:	00700000 	rsbseq	r0, r0, r0
     a88:	00010000 	andeq	r0, r1, r0
     a8c:	00007055 	andeq	r7, r0, r5, asr r0
     a90:	0000a800 	andeq	sl, r0, r0, lsl #16
     a94:	50000100 	andpl	r0, r0, r0, lsl #2
     a98:	000000a8 	andeq	r0, r0, r8, lsr #1
     a9c:	000000cc 	andeq	r0, r0, ip, asr #1
     aa0:	00550001 	subseq	r0, r5, r1
	...
     aac:	20000000 	andcs	r0, r0, r0
     ab0:	01000000 	mrseq	r0, (UNDEF: 0)
     ab4:	00205100 	eoreq	r5, r0, r0, lsl #2
     ab8:	00cc0000 	sbceq	r0, ip, r0
     abc:	00010000 	andeq	r0, r1, r0
     ac0:	00000058 	andeq	r0, r0, r8, asr r0
	...
     acc:	00002000 	andeq	r2, r0, r0
     ad0:	52000100 	andpl	r0, r0, #0, 2
     ad4:	00000020 	andeq	r0, r0, r0, lsr #32
     ad8:	000000cc 	andeq	r0, r0, ip, asr #1
     adc:	00570001 	subseq	r0, r7, r1
     ae0:	00000000 	andeq	r0, r0, r0
     ae4:	44000000 	strmi	r0, [r0], #-0
     ae8:	48000000 	stmdami	r0, {}	; <UNPREDICTABLE>
     aec:	01000000 	mrseq	r0, (UNDEF: 0)
     af0:	00485300 	subeq	r5, r8, r0, lsl #6
     af4:	00740000 	rsbseq	r0, r4, r0
     af8:	00010000 	andeq	r0, r1, r0
     afc:	00007456 	andeq	r7, r0, r6, asr r4
     b00:	00008800 	andeq	r8, r0, r0, lsl #16
     b04:	53000100 	movwpl	r0, #256	; 0x100
     b08:	00000088 	andeq	r0, r0, r8, lsl #1
     b0c:	0000008c 	andeq	r0, r0, ip, lsl #1
     b10:	01760003 	cmneq	r6, r3
     b14:	0000009f 	muleq	r0, pc, r0	; <UNPREDICTABLE>
     b18:	00000000 	andeq	r0, r0, r0
     b1c:	0000cc00 	andeq	ip, r0, r0, lsl #24
     b20:	0000e800 	andeq	lr, r0, r0, lsl #16
     b24:	50000100 	andpl	r0, r0, r0, lsl #2
     b28:	000000e8 	andeq	r0, r0, r8, ror #1
     b2c:	00000118 	andeq	r0, r0, r8, lsl r1
     b30:	185c0001 	ldmdane	ip, {r0}^
     b34:	64000001 	strvs	r0, [r0], #-1
     b38:	04000001 	streq	r0, [r0], #-1
     b3c:	5001f300 	andpl	pc, r1, r0, lsl #6
     b40:	0000009f 	muleq	r0, pc, r0	; <UNPREDICTABLE>
     b44:	00000000 	andeq	r0, r0, r0
     b48:	0000cc00 	andeq	ip, r0, r0, lsl #24
     b4c:	0000e800 	andeq	lr, r0, r0, lsl #16
     b50:	51000100 	mrspl	r0, (UNDEF: 16)
     b54:	000000e8 	andeq	r0, r0, r8, ror #1
     b58:	00000164 	andeq	r0, r0, r4, ror #2
     b5c:	00560001 	subseq	r0, r6, r1
     b60:	00000000 	andeq	r0, r0, r0
     b64:	cc000000 	stcgt	0, cr0, [r0], {-0}
     b68:	e8000000 	stmda	r0, {}	; <UNPREDICTABLE>
     b6c:	01000000 	mrseq	r0, (UNDEF: 0)
     b70:	00e85200 	rsceq	r5, r8, r0, lsl #4
     b74:	01640000 	cmneq	r4, r0
     b78:	00010000 	andeq	r0, r1, r0
     b7c:	00000055 	andeq	r0, r0, r5, asr r0
     b80:	00000000 	andeq	r0, r0, r0
     b84:	00011000 	andeq	r1, r1, r0
     b88:	00013400 	andeq	r3, r1, r0, lsl #8
     b8c:	50000100 	andpl	r0, r0, r0, lsl #2
     b90:	00000134 	andeq	r0, r0, r4, lsr r1
     b94:	00000138 	andeq	r0, r0, r8, lsr r1
     b98:	385e0001 	ldmdacc	lr, {r0}^
     b9c:	3c000001 	stccc	0, cr0, [r0], {1}
     ba0:	03000001 	movweq	r0, #1
     ba4:	9f017e00 	svcls	0x00017e00
     ba8:	0000013c 	andeq	r0, r0, ip, lsr r1
     bac:	00000144 	andeq	r0, r0, r4, asr #2
     bb0:	7f7e0003 	svcvc	0x007e0003
     bb4:	0001449f 	muleq	r1, pc, r4	; <UNPREDICTABLE>
     bb8:	00015000 	andeq	r5, r1, r0
     bbc:	5e000100 	adfpls	f0, f0, f0
     bc0:	00000158 	andeq	r0, r0, r8, asr r1
     bc4:	00000164 	andeq	r0, r0, r4, ror #2
     bc8:	017e0003 	cmneq	lr, r3
     bcc:	0000009f 	muleq	r0, pc, r0	; <UNPREDICTABLE>
     bd0:	00000000 	andeq	r0, r0, r0
     bd4:	00011000 	andeq	r1, r1, r0
     bd8:	00012c00 	andeq	r2, r1, r0, lsl #24
     bdc:	74000300 	strvc	r0, [r0], #-768	; 0xfffffd00
     be0:	012c9f70 			; <UNDEFINED> instruction: 0x012c9f70
     be4:	01340000 	teqeq	r4, r0
     be8:	00010000 	andeq	r0, r1, r0
     bec:	00000054 	andeq	r0, r0, r4, asr r0
     bf0:	00000000 	andeq	r0, r0, r0
     bf4:	00011000 	andeq	r1, r1, r0
     bf8:	00011800 	andeq	r1, r1, r0, lsl #16
     bfc:	5c000100 	stfpls	f0, [r0], {-0}
     c00:	00000118 	andeq	r0, r0, r8, lsl r1
     c04:	0000011c 	andeq	r0, r0, ip, lsl r1
     c08:	017c0003 	cmneq	ip, r3
     c0c:	00011c9f 	muleq	r1, pc, ip	; <UNPREDICTABLE>
     c10:	00013400 	andeq	r3, r1, r0, lsl #8
     c14:	5c000100 	stfpls	f0, [r0], {-0}
	...
     c20:	00000164 	andeq	r0, r0, r4, ror #2
     c24:	00000180 	andeq	r0, r0, r0, lsl #3
     c28:	80500001 	subshi	r0, r0, r1
     c2c:	cc000001 	stcgt	0, cr0, [r0], {1}
     c30:	01000001 	tsteq	r0, r1
     c34:	01cc5c00 	biceq	r5, ip, r0, lsl #24
     c38:	01e00000 	mvneq	r0, r0
     c3c:	00010000 	andeq	r0, r1, r0
     c40:	0001e052 	andeq	lr, r1, r2, asr r0
     c44:	0001f800 	andeq	pc, r1, r0, lsl #16
     c48:	5c000100 	stfpls	f0, [r0], {-0}
     c4c:	00000240 	andeq	r0, r0, r0, asr #4
     c50:	00000258 	andeq	r0, r0, r8, asr r2
     c54:	005c0001 	subseq	r0, ip, r1
     c58:	00000000 	andeq	r0, r0, r0
     c5c:	64000000 	strvs	r0, [r0], #-0
     c60:	80000001 	andhi	r0, r0, r1
     c64:	01000001 	tsteq	r0, r1
     c68:	01805100 	orreq	r5, r0, r0, lsl #2
     c6c:	02580000 	subseq	r0, r8, #0
     c70:	00010000 	andeq	r0, r1, r0
     c74:	0000005e 	andeq	r0, r0, lr, asr r0
     c78:	00000000 	andeq	r0, r0, r0
     c7c:	00016400 	andeq	r6, r1, r0, lsl #8
     c80:	00019800 	andeq	r9, r1, r0, lsl #16
     c84:	30000200 	andcc	r0, r0, r0, lsl #4
     c88:	0001989f 	muleq	r1, pc, r8	; <UNPREDICTABLE>
     c8c:	0001a800 	andeq	sl, r1, r0, lsl #16
     c90:	31000200 	mrscc	r0, R8_usr
     c94:	0001a89f 	muleq	r1, pc, r8	; <UNPREDICTABLE>
     c98:	0001fc00 	andeq	pc, r1, r0, lsl #24
     c9c:	55000100 	strpl	r0, [r0, #-256]	; 0xffffff00
     ca0:	000001fc 	strdeq	r0, [r0], -ip
     ca4:	00000240 	andeq	r0, r0, r0, asr #4
     ca8:	31300019 	teqcc	r0, r9, lsl r0
     cac:	01f36491 			; <UNDEFINED> instruction: 0x01f36491
     cb0:	282d3050 	stmdacs	sp!, {r4, r6, ip, sp}
     cb4:	13160001 	tstne	r6, #1
     cb8:	305001f3 	ldrshcc	r0, [r0], #-19	; 0xffffffed
     cbc:	0001282a 	andeq	r2, r1, sl, lsr #16
     cc0:	409f1316 	addsmi	r1, pc, r6, lsl r3	; <UNPREDICTABLE>
     cc4:	58000002 	stmdapl	r0, {r1}
     cc8:	02000002 	andeq	r0, r0, #2
     ccc:	009f3000 	addseq	r3, pc, r0
     cd0:	00000000 	andeq	r0, r0, r0
     cd4:	a8000000 	stmdage	r0, {}	; <UNPREDICTABLE>
     cd8:	b8000001 	stmdalt	r0, {r0}
     cdc:	02000001 	andeq	r0, r0, #1
     ce0:	b89f3000 	ldmlt	pc, {ip, sp}	; <UNPREDICTABLE>
     ce4:	bc000001 	stclt	0, cr0, [r0], {1}
     ce8:	01000001 	tsteq	r0, r1
     cec:	01bc5600 			; <UNDEFINED> instruction: 0x01bc5600
     cf0:	01cc0000 	biceq	r0, ip, r0
     cf4:	00010000 	andeq	r0, r1, r0
     cf8:	0001cc51 	andeq	ip, r1, r1, asr ip
     cfc:	00020c00 	andeq	r0, r2, r0, lsl #24
     d00:	56000100 	strpl	r0, [r0], -r0, lsl #2
     d04:	0000020c 	andeq	r0, r0, ip, lsl #4
     d08:	00000214 	andeq	r0, r0, r4, lsl r2
     d0c:	00510001 	subseq	r0, r1, r1
     d10:	00000000 	andeq	r0, r0, r0
     d14:	f0000000 			; <UNDEFINED> instruction: 0xf0000000
     d18:	f4000001 	vst4.8	{d0-d3}, [r0], r1
     d1c:	02000001 	andeq	r0, r0, #1
     d20:	f49f3000 			; <UNDEFINED> instruction: 0xf49f3000
     d24:	0c000001 	stceq	0, cr0, [r0], {1}
     d28:	02000002 	andeq	r0, r0, #2
     d2c:	0c9f3100 	ldfeqs	f3, [pc], {0}
     d30:	14000002 	strne	r0, [r0], #-2
     d34:	01000002 	tsteq	r0, r2
     d38:	00005500 	andeq	r5, r0, r0, lsl #10
     d3c:	00000000 	andeq	r0, r0, r0
     d40:	02580000 	subseq	r0, r8, #0
     d44:	02740000 	rsbseq	r0, r4, #0
     d48:	00020000 	andeq	r0, r2, r0
     d4c:	02747091 	rsbseq	r7, r4, #145	; 0x91
     d50:	02b40000 	adcseq	r0, r4, #0
     d54:	00010000 	andeq	r0, r1, r0
     d58:	0002b454 	andeq	fp, r2, r4, asr r4
     d5c:	0002c400 	andeq	ip, r2, r0, lsl #8
     d60:	74000300 	strvc	r0, [r0], #-768	; 0xfffffd00
     d64:	02d89f01 	sbcseq	r9, r8, #1, 30
     d68:	03680000 	cmneq	r8, #0
     d6c:	00010000 	andeq	r0, r1, r0
     d70:	00037054 	andeq	r7, r3, r4, asr r0
     d74:	00055400 	andeq	r5, r5, r0, lsl #8
     d78:	54000100 	strpl	r0, [r0], #-256	; 0xffffff00
	...
     d84:	00000258 	andeq	r0, r0, r8, asr r2
     d88:	00000294 	muleq	r0, r4, r2
     d8c:	70030006 	andvc	r0, r3, r6
     d90:	9f00002e 	svcls	0x0000002e
     d94:	00000294 	muleq	r0, r4, r2
     d98:	000002a4 	andeq	r0, r0, r4, lsr #5
     d9c:	a4550001 	ldrbge	r0, [r5], #-1
     da0:	b0000002 	andlt	r0, r0, r2
     da4:	03000002 	movweq	r0, #2
     da8:	9f017500 	svcls	0x00017500
     dac:	00000340 	andeq	r0, r0, r0, asr #6
     db0:	00000348 	andeq	r0, r0, r8, asr #6
     db4:	70030006 	andvc	r0, r3, r6
     db8:	9f00002e 	svcls	0x0000002e
     dbc:	00000358 	andeq	r0, r0, r8, asr r3
     dc0:	00000368 	andeq	r0, r0, r8, ror #6
     dc4:	dc550001 	mrrcle	0, 0, r0, r5, cr1
     dc8:	e0000003 	and	r0, r0, r3
     dcc:	01000003 	tsteq	r0, r3
     dd0:	042c5500 	strteq	r5, [ip], #-1280	; 0xfffffb00
     dd4:	04300000 	ldrteq	r0, [r0], #-0
     dd8:	00010000 	andeq	r0, r1, r0
     ddc:	00049c55 	andeq	r9, r4, r5, asr ip
     de0:	0004a000 	andeq	sl, r4, r0
     de4:	55000100 	strpl	r0, [r0, #-256]	; 0xffffff00
     de8:	00000508 	andeq	r0, r0, r8, lsl #10
     dec:	0000050c 	andeq	r0, r0, ip, lsl #10
     df0:	24550001 	ldrbcs	r0, [r5], #-1
     df4:	2c000005 	stccs	0, cr0, [r0], {5}
     df8:	03000005 	movweq	r0, #5
     dfc:	9f017500 	svcls	0x00017500
     e00:	0000052c 	andeq	r0, r0, ip, lsr #10
     e04:	0000053c 	andeq	r0, r0, ip, lsr r5
     e08:	00530001 	subseq	r0, r3, r1
     e0c:	00000000 	andeq	r0, r0, r0
     e10:	f4000000 	vst4.8	{d0-d3}, [r0], r0
     e14:	30000003 	andcc	r0, r0, r3
     e18:	01000004 	tsteq	r0, r4
     e1c:	00005000 	andeq	r5, r0, r0
     e20:	00000000 	andeq	r0, r0, r0
     e24:	02d80000 	sbcseq	r0, r8, #0
     e28:	03400000 	movteq	r0, #0
     e2c:	00010000 	andeq	r0, r1, r0
     e30:	00037059 	andeq	r7, r3, r9, asr r0
     e34:	00055400 	andeq	r5, r5, r0, lsl #8
     e38:	59000100 	stmdbpl	r0, {r8}
	...
     e44:	00000258 	andeq	r0, r0, r8, asr r2
     e48:	00000294 	muleq	r0, r4, r2
     e4c:	9f300002 	svcls	0x00300002
     e50:	00000340 	andeq	r0, r0, r0, asr #6
     e54:	00000348 	andeq	r0, r0, r8, asr #6
     e58:	9f300002 	svcls	0x00300002
     e5c:	000003c8 	andeq	r0, r0, r8, asr #7
     e60:	000003e0 	andeq	r0, r0, r0, ror #7
     e64:	88500001 	ldmdahi	r0, {r0}^
     e68:	a0000004 	andge	r0, r0, r4
     e6c:	01000004 	tsteq	r0, r4
     e70:	04f45000 	ldrbteq	r5, [r4], #0
     e74:	050c0000 	streq	r0, [ip, #-0]
     e78:	00010000 	andeq	r0, r1, r0
     e7c:	00000050 	andeq	r0, r0, r0, asr r0
     e80:	00000000 	andeq	r0, r0, r0
     e84:	00038c00 	andeq	r8, r3, r0, lsl #24
     e88:	0003e000 	andeq	lr, r3, r0
     e8c:	58000100 	stmdapl	r0, {r8}
     e90:	00000544 	andeq	r0, r0, r4, asr #10
     e94:	0000054c 	andeq	r0, r0, ip, asr #10
     e98:	00580001 	subseq	r0, r8, r1
     e9c:	00000000 	andeq	r0, r0, r0
     ea0:	8c000000 	stchi	0, cr0, [r0], {-0}
     ea4:	9c000003 	stcls	0, cr0, [r0], {3}
     ea8:	01000003 	tsteq	r0, r3
     eac:	039c5800 	orrseq	r5, ip, #0, 16
     eb0:	03a00000 	moveq	r0, #0
     eb4:	00010000 	andeq	r0, r1, r0
     eb8:	0003a053 	andeq	sl, r3, r3, asr r0
     ebc:	0003ac00 	andeq	sl, r3, r0, lsl #24
     ec0:	73000300 	movwvc	r0, #768	; 0x300
     ec4:	05449f7f 	strbeq	r9, [r4, #-3967]	; 0xfffff081
     ec8:	054c0000 	strbeq	r0, [ip, #-0]
     ecc:	00010000 	andeq	r0, r1, r0
     ed0:	00000058 	andeq	r0, r0, r8, asr r0
     ed4:	00000000 	andeq	r0, r0, r0
     ed8:	0003c800 	andeq	ip, r3, r0, lsl #16
     edc:	0003cc00 	andeq	ip, r3, r0, lsl #24
     ee0:	52000100 	andpl	r0, r0, #0, 2
     ee4:	000003cc 	andeq	r0, r0, ip, asr #7
     ee8:	000003e0 	andeq	r0, r0, r0, ror #7
     eec:	7f720003 	svcvc	0x00720003
     ef0:	0000009f 	muleq	r0, pc, r0	; <UNPREDICTABLE>
     ef4:	00000000 	andeq	r0, r0, r0
     ef8:	0003f400 	andeq	pc, r3, r0, lsl #8
     efc:	0003f800 	andeq	pc, r3, r0, lsl #16
     f00:	50000100 	andpl	r0, r0, r0, lsl #2
     f04:	000003f8 	strdeq	r0, [r0], -r8
     f08:	000003fc 	strdeq	r0, [r0], -ip
     f0c:	fc520001 	mrrc2	0, 0, r0, r2, cr1
     f10:	18000003 	stmdane	r0, {r0, r1}
     f14:	03000004 	movweq	r0, #4
     f18:	9f7f7200 	svcls	0x007f7200
	...
     f24:	000003f4 	strdeq	r0, [r0], -r4
     f28:	000003f8 	strdeq	r0, [r0], -r8
     f2c:	00550001 	subseq	r0, r5, r1
     f30:	00000000 	andeq	r0, r0, r0
     f34:	f4000000 	vst4.8	{d0-d3}, [r0], r0
     f38:	2c000003 	stccs	0, cr0, [r0], {3}
     f3c:	01000004 	tsteq	r0, r4
     f40:	00005500 	andeq	r5, r0, r0, lsl #10
     f44:	00000000 	andeq	r0, r0, r0
     f48:	04080000 	streq	r0, [r8], #-0
     f4c:	04180000 	ldreq	r0, [r8], #-0
     f50:	00010000 	andeq	r0, r1, r0
     f54:	00041850 	andeq	r1, r4, r0, asr r8
     f58:	00041c00 	andeq	r1, r4, r0, lsl #24
     f5c:	53000100 	movwpl	r0, #256	; 0x100
     f60:	0000041c 	andeq	r0, r0, ip, lsl r4
     f64:	00000424 	andeq	r0, r0, r4, lsr #8
     f68:	7f730003 	svcvc	0x00730003
     f6c:	0000009f 	muleq	r0, pc, r0	; <UNPREDICTABLE>
     f70:	00000000 	andeq	r0, r0, r0
     f74:	00044c00 	andeq	r4, r4, r0, lsl #24
     f78:	0004a000 	andeq	sl, r4, r0
     f7c:	58000100 	stmdapl	r0, {r8}
     f80:	0000054c 	andeq	r0, r0, ip, asr #10
     f84:	00000554 	andeq	r0, r0, r4, asr r5
     f88:	00580001 	subseq	r0, r8, r1
     f8c:	00000000 	andeq	r0, r0, r0
     f90:	4c000000 	stcmi	0, cr0, [r0], {-0}
     f94:	5c000004 	stcpl	0, cr0, [r0], {4}
     f98:	01000004 	tsteq	r0, r4
     f9c:	045c5800 	ldrbeq	r5, [ip], #-2048	; 0xfffff800
     fa0:	04600000 	strbteq	r0, [r0], #-0
     fa4:	00010000 	andeq	r0, r1, r0
     fa8:	00046053 	andeq	r6, r4, r3, asr r0
     fac:	00046c00 	andeq	r6, r4, r0, lsl #24
     fb0:	73000300 	movwvc	r0, #768	; 0x300
     fb4:	054c9f7f 	strbeq	r9, [ip, #-3967]	; 0xfffff081
     fb8:	05540000 	ldrbeq	r0, [r4, #-0]
     fbc:	00010000 	andeq	r0, r1, r0
     fc0:	00000058 	andeq	r0, r0, r8, asr r0
     fc4:	00000000 	andeq	r0, r0, r0
     fc8:	00048800 	andeq	r8, r4, r0, lsl #16
     fcc:	00048c00 	andeq	r8, r4, r0, lsl #24
     fd0:	52000100 	andpl	r0, r0, #0, 2
     fd4:	0000048c 	andeq	r0, r0, ip, lsl #9
     fd8:	000004a0 	andeq	r0, r0, r0, lsr #9
     fdc:	7f720003 	svcvc	0x00720003
     fe0:	0000009f 	muleq	r0, pc, r0	; <UNPREDICTABLE>
     fe4:	00000000 	andeq	r0, r0, r0
     fe8:	0004b800 	andeq	fp, r4, r0, lsl #16
     fec:	00050c00 	andeq	r0, r5, r0, lsl #24
     ff0:	58000100 	stmdapl	r0, {r8}
     ff4:	0000053c 	andeq	r0, r0, ip, lsr r5
     ff8:	00000544 	andeq	r0, r0, r4, asr #10
     ffc:	00580001 	subseq	r0, r8, r1
    1000:	00000000 	andeq	r0, r0, r0
    1004:	b8000000 	stmdalt	r0, {}	; <UNPREDICTABLE>
    1008:	c8000004 	stmdagt	r0, {r2}
    100c:	01000004 	tsteq	r0, r4
    1010:	04c85800 	strbeq	r5, [r8], #2048	; 0x800
    1014:	04cc0000 	strbeq	r0, [ip], #0
    1018:	00010000 	andeq	r0, r1, r0
    101c:	0004cc53 	andeq	ip, r4, r3, asr ip
    1020:	0004d800 	andeq	sp, r4, r0, lsl #16
    1024:	73000300 	movwvc	r0, #768	; 0x300
    1028:	053c9f7f 	ldreq	r9, [ip, #-3967]!	; 0xfffff081
    102c:	05440000 	strbeq	r0, [r4, #-0]
    1030:	00010000 	andeq	r0, r1, r0
    1034:	00000058 	andeq	r0, r0, r8, asr r0
    1038:	00000000 	andeq	r0, r0, r0
    103c:	0004f400 	andeq	pc, r4, r0, lsl #8
    1040:	0004f800 	andeq	pc, r4, r0, lsl #16
    1044:	52000100 	andpl	r0, r0, #0, 2
    1048:	000004f8 	strdeq	r0, [r0], -r8
    104c:	0000050c 	andeq	r0, r0, ip, lsl #10
    1050:	7f720003 	svcvc	0x00720003
    1054:	0000009f 	muleq	r0, pc, r0	; <UNPREDICTABLE>
    1058:	00000000 	andeq	r0, r0, r0
    105c:	00055400 	andeq	r5, r5, r0, lsl #8
    1060:	00057000 	andeq	r7, r5, r0
    1064:	91000200 	mrsls	r0, R8_usr
    1068:	00057070 	andeq	r7, r5, r0, ror r0
    106c:	0005b000 	andeq	fp, r5, r0
    1070:	54000100 	strpl	r0, [r0], #-256	; 0xffffff00
    1074:	000005b0 			; <UNDEFINED> instruction: 0x000005b0
    1078:	000005c0 	andeq	r0, r0, r0, asr #11
    107c:	01740003 	cmneq	r4, r3
    1080:	0005d49f 	muleq	r5, pc, r4	; <UNPREDICTABLE>
    1084:	00066400 	andeq	r6, r6, r0, lsl #8
    1088:	54000100 	strpl	r0, [r0], #-256	; 0xffffff00
    108c:	0000066c 	andeq	r0, r0, ip, ror #12
    1090:	00000850 	andeq	r0, r0, r0, asr r8
    1094:	00540001 	subseq	r0, r4, r1
    1098:	00000000 	andeq	r0, r0, r0
    109c:	54000000 	strpl	r0, [r0], #-0
    10a0:	90000005 	andls	r0, r0, r5
    10a4:	06000005 	streq	r0, [r0], -r5
    10a8:	2e700300 	cdpcs	3, 7, cr0, cr0, cr0, {0}
    10ac:	909f0000 	addsls	r0, pc, r0
    10b0:	a0000005 	andge	r0, r0, r5
    10b4:	01000005 	tsteq	r0, r5
    10b8:	05a05500 	streq	r5, [r0, #1280]!	; 0x500
    10bc:	05ac0000 	streq	r0, [ip, #0]!
    10c0:	00030000 	andeq	r0, r3, r0
    10c4:	3c9f0175 	ldfccs	f0, [pc], {117}	; 0x75
    10c8:	44000006 	strmi	r0, [r0], #-6
    10cc:	06000006 	streq	r0, [r0], -r6
    10d0:	2e700300 	cdpcs	3, 7, cr0, cr0, cr0, {0}
    10d4:	549f0000 	ldrpl	r0, [pc], #0	; 10dc <__save_processor_state+0x32c>
    10d8:	64000006 	strvs	r0, [r0], #-6
    10dc:	01000006 	tsteq	r0, r6
    10e0:	06d85500 	ldrbeq	r5, [r8], r0, lsl #10
    10e4:	06dc0000 	ldrbeq	r0, [ip], r0
    10e8:	00010000 	andeq	r0, r1, r0
    10ec:	00072855 	andeq	r2, r7, r5, asr r8
    10f0:	00072c00 	andeq	r2, r7, r0, lsl #24
    10f4:	55000100 	strpl	r0, [r0, #-256]	; 0xffffff00
    10f8:	00000798 	muleq	r0, r8, r7
    10fc:	0000079c 	muleq	r0, ip, r7
    1100:	04550001 	ldrbeq	r0, [r5], #-1
    1104:	08000008 	stmdaeq	r0, {r3}
    1108:	01000008 	tsteq	r0, r8
    110c:	08205500 	stmdaeq	r0!, {r8, sl, ip, lr}
    1110:	08280000 	stmdaeq	r8!, {}	; <UNPREDICTABLE>
    1114:	00030000 	andeq	r0, r3, r0
    1118:	289f0175 	ldmcs	pc, {r0, r2, r4, r5, r6, r8}	; <UNPREDICTABLE>
    111c:	38000008 	stmdacc	r0, {r3}
    1120:	01000008 	tsteq	r0, r8
    1124:	00005300 	andeq	r5, r0, r0, lsl #6
    1128:	00000000 	andeq	r0, r0, r0
    112c:	06f00000 	ldrbteq	r0, [r0], r0
    1130:	072c0000 	streq	r0, [ip, -r0]!
    1134:	00010000 	andeq	r0, r1, r0
    1138:	00000050 	andeq	r0, r0, r0, asr r0
    113c:	00000000 	andeq	r0, r0, r0
    1140:	0005d400 	andeq	sp, r5, r0, lsl #8
    1144:	00063c00 	andeq	r3, r6, r0, lsl #24
    1148:	59000100 	stmdbpl	r0, {r8}
    114c:	0000066c 	andeq	r0, r0, ip, ror #12
    1150:	00000850 	andeq	r0, r0, r0, asr r8
    1154:	00590001 	subseq	r0, r9, r1
    1158:	00000000 	andeq	r0, r0, r0
    115c:	54000000 	strpl	r0, [r0], #-0
    1160:	90000005 	andls	r0, r0, r5
    1164:	02000005 	andeq	r0, r0, #5
    1168:	3c9f3000 	ldccc	0, cr3, [pc], {0}
    116c:	44000006 	strmi	r0, [r0], #-6
    1170:	02000006 	andeq	r0, r0, #6
    1174:	c49f3000 	ldrgt	r3, [pc], #0	; 117c <__save_processor_state+0x3cc>
    1178:	dc000006 	stcle	0, cr0, [r0], {6}
    117c:	01000006 	tsteq	r0, r6
    1180:	07845000 	streq	r5, [r4, r0]
    1184:	079c0000 	ldreq	r0, [ip, r0]
    1188:	00010000 	andeq	r0, r1, r0
    118c:	0007f050 	andeq	pc, r7, r0, asr r0	; <UNPREDICTABLE>
    1190:	00080800 	andeq	r0, r8, r0, lsl #16
    1194:	50000100 	andpl	r0, r0, r0, lsl #2
	...
    11a0:	00000688 	andeq	r0, r0, r8, lsl #13
    11a4:	000006dc 	ldrdeq	r0, [r0], -ip
    11a8:	40580001 	subsmi	r0, r8, r1
    11ac:	48000008 	stmdami	r0, {r3}
    11b0:	01000008 	tsteq	r0, r8
    11b4:	00005800 	andeq	r5, r0, r0, lsl #16
    11b8:	00000000 	andeq	r0, r0, r0
    11bc:	06880000 	streq	r0, [r8], r0
    11c0:	06980000 	ldreq	r0, [r8], r0
    11c4:	00010000 	andeq	r0, r1, r0
    11c8:	00069858 	andeq	r9, r6, r8, asr r8
    11cc:	00069c00 	andeq	r9, r6, r0, lsl #24
    11d0:	53000100 	movwpl	r0, #256	; 0x100
    11d4:	0000069c 	muleq	r0, ip, r6
    11d8:	000006a8 	andeq	r0, r0, r8, lsr #13
    11dc:	7f730003 	svcvc	0x00730003
    11e0:	0008409f 	muleq	r8, pc, r0	; <UNPREDICTABLE>
    11e4:	00084800 	andeq	r4, r8, r0, lsl #16
    11e8:	58000100 	stmdapl	r0, {r8}
	...
    11f4:	000006c4 	andeq	r0, r0, r4, asr #13
    11f8:	000006c8 	andeq	r0, r0, r8, asr #13
    11fc:	c8520001 	ldmdagt	r2, {r0}^
    1200:	dc000006 	stcle	0, cr0, [r0], {6}
    1204:	03000006 	movweq	r0, #6
    1208:	9f7f7200 	svcls	0x007f7200
	...
    1214:	000006f0 	strdeq	r0, [r0], -r0	; <UNPREDICTABLE>
    1218:	000006f4 	strdeq	r0, [r0], -r4
    121c:	f4500001 			; <UNDEFINED> instruction: 0xf4500001
    1220:	f8000006 			; <UNDEFINED> instruction: 0xf8000006
    1224:	01000006 	tsteq	r0, r6
    1228:	06f85200 	ldrbteq	r5, [r8], r0, lsl #4
    122c:	07140000 	ldreq	r0, [r4, -r0]
    1230:	00030000 	andeq	r0, r3, r0
    1234:	009f7f72 	addseq	r7, pc, r2, ror pc	; <UNPREDICTABLE>
    1238:	00000000 	andeq	r0, r0, r0
    123c:	f0000000 			; <UNDEFINED> instruction: 0xf0000000
    1240:	f4000006 	vst4.8	{d0-d3}, [r0], r6
    1244:	01000006 	tsteq	r0, r6
    1248:	00005500 	andeq	r5, r0, r0, lsl #10
    124c:	00000000 	andeq	r0, r0, r0
    1250:	06f00000 	ldrbteq	r0, [r0], r0
    1254:	07280000 	streq	r0, [r8, -r0]!
    1258:	00010000 	andeq	r0, r1, r0
    125c:	00000055 	andeq	r0, r0, r5, asr r0
    1260:	00000000 	andeq	r0, r0, r0
    1264:	00070400 	andeq	r0, r7, r0, lsl #8
    1268:	00071400 	andeq	r1, r7, r0, lsl #8
    126c:	50000100 	andpl	r0, r0, r0, lsl #2
    1270:	00000714 	andeq	r0, r0, r4, lsl r7
    1274:	00000718 	andeq	r0, r0, r8, lsl r7
    1278:	18530001 	ldmdane	r3, {r0}^
    127c:	20000007 	andcs	r0, r0, r7
    1280:	03000007 	movweq	r0, #7
    1284:	9f7f7300 	svcls	0x007f7300
	...
    1290:	00000748 	andeq	r0, r0, r8, asr #14
    1294:	0000079c 	muleq	r0, ip, r7
    1298:	48580001 	ldmdami	r8, {r0}^
    129c:	50000008 	andpl	r0, r0, r8
    12a0:	01000008 	tsteq	r0, r8
    12a4:	00005800 	andeq	r5, r0, r0, lsl #16
    12a8:	00000000 	andeq	r0, r0, r0
    12ac:	07480000 	strbeq	r0, [r8, -r0]
    12b0:	07580000 	ldrbeq	r0, [r8, -r0]
    12b4:	00010000 	andeq	r0, r1, r0
    12b8:	00075858 	andeq	r5, r7, r8, asr r8
    12bc:	00075c00 	andeq	r5, r7, r0, lsl #24
    12c0:	53000100 	movwpl	r0, #256	; 0x100
    12c4:	0000075c 	andeq	r0, r0, ip, asr r7
    12c8:	00000768 	andeq	r0, r0, r8, ror #14
    12cc:	7f730003 	svcvc	0x00730003
    12d0:	0008489f 	muleq	r8, pc, r8	; <UNPREDICTABLE>
    12d4:	00085000 	andeq	r5, r8, r0
    12d8:	58000100 	stmdapl	r0, {r8}
	...
    12e4:	00000784 	andeq	r0, r0, r4, lsl #15
    12e8:	00000788 	andeq	r0, r0, r8, lsl #15
    12ec:	88520001 	ldmdahi	r2, {r0}^
    12f0:	9c000007 	stcls	0, cr0, [r0], {7}
    12f4:	03000007 	movweq	r0, #7
    12f8:	9f7f7200 	svcls	0x007f7200
	...
    1304:	000007b4 			; <UNDEFINED> instruction: 0x000007b4
    1308:	00000808 	andeq	r0, r0, r8, lsl #16
    130c:	38580001 	ldmdacc	r8, {r0}^
    1310:	40000008 	andmi	r0, r0, r8
    1314:	01000008 	tsteq	r0, r8
    1318:	00005800 	andeq	r5, r0, r0, lsl #16
    131c:	00000000 	andeq	r0, r0, r0
    1320:	07b40000 	ldreq	r0, [r4, r0]!
    1324:	07c40000 	strbeq	r0, [r4, r0]
    1328:	00010000 	andeq	r0, r1, r0
    132c:	0007c458 	andeq	ip, r7, r8, asr r4
    1330:	0007c800 	andeq	ip, r7, r0, lsl #16
    1334:	53000100 	movwpl	r0, #256	; 0x100
    1338:	000007c8 	andeq	r0, r0, r8, asr #15
    133c:	000007d4 	ldrdeq	r0, [r0], -r4
    1340:	7f730003 	svcvc	0x00730003
    1344:	0008389f 	muleq	r8, pc, r8	; <UNPREDICTABLE>
    1348:	00084000 	andeq	r4, r8, r0
    134c:	58000100 	stmdapl	r0, {r8}
	...
    1358:	000007f0 	strdeq	r0, [r0], -r0	; <UNPREDICTABLE>
    135c:	000007f4 	strdeq	r0, [r0], -r4
    1360:	f4520001 			; <UNDEFINED> instruction: 0xf4520001
    1364:	08000007 	stmdaeq	r0, {r0, r1, r2}
    1368:	03000008 	movweq	r0, #8
    136c:	9f7f7200 	svcls	0x007f7200
	...
    1378:	0000000c 	andeq	r0, r0, ip
    137c:	0000003c 	andeq	r0, r0, ip, lsr r0
    1380:	3c500001 	mrrccc	0, 0, r0, r0, cr1	; <UNPREDICTABLE>
    1384:	54000000 	strpl	r0, [r0], #-0
    1388:	01000000 	mrseq	r0, (UNDEF: 0)
    138c:	00585000 	subseq	r5, r8, r0
    1390:	005c0000 	subseq	r0, ip, r0
    1394:	00010000 	andeq	r0, r1, r0
    1398:	00005c50 	andeq	r5, r0, r0, asr ip
    139c:	00006000 	andeq	r6, r0, r0
    13a0:	f3000400 	vshl.u8	d0, d0, d0
    13a4:	009f5001 	addseq	r5, pc, r1
    13a8:	00000000 	andeq	r0, r0, r0
    13ac:	0c000000 	stceq	0, cr0, [r0], {-0}
    13b0:	1c000000 	stcne	0, cr0, [r0], {-0}
    13b4:	01000000 	mrseq	r0, (UNDEF: 0)
    13b8:	001c5100 	andseq	r5, ip, r0, lsl #2
    13bc:	00580000 	subseq	r0, r8, r0
    13c0:	00040000 	andeq	r0, r4, r0
    13c4:	9f5101f3 	svcls	0x005101f3
    13c8:	00000058 	andeq	r0, r0, r8, asr r0
    13cc:	00000060 	andeq	r0, r0, r0, rrx
    13d0:	00510001 	subseq	r0, r1, r1
    13d4:	00000000 	andeq	r0, r0, r0
    13d8:	0c000000 	stceq	0, cr0, [r0], {-0}
    13dc:	1c000000 	stcne	0, cr0, [r0], {-0}
    13e0:	01000000 	mrseq	r0, (UNDEF: 0)
    13e4:	001c5100 	andseq	r5, ip, r0, lsl #2
    13e8:	00200000 	eoreq	r0, r0, r0
    13ec:	00050000 	andeq	r0, r5, r0
    13f0:	24310071 	ldrtcs	r0, [r1], #-113	; 0xffffff8f
    13f4:	0000209f 	muleq	r0, pc, r0	; <UNPREDICTABLE>
    13f8:	00002400 	andeq	r2, r0, r0, lsl #8
    13fc:	51000100 	mrspl	r0, (UNDEF: 16)
    1400:	0000002c 	andeq	r0, r0, ip, lsr #32
    1404:	00000060 	andeq	r0, r0, r0, rrx
    1408:	00510001 	subseq	r0, r1, r1
    140c:	00000000 	andeq	r0, r0, r0
    1410:	0c000000 	stceq	0, cr0, [r0], {-0}
    1414:	2c000000 	stccs	0, cr0, [r0], {-0}
    1418:	02000000 	andeq	r0, r0, #0
    141c:	2c9f3000 	ldccs	0, cr3, [pc], {0}
    1420:	58000000 	stmdapl	r0, {}	; <UNPREDICTABLE>
    1424:	01000000 	mrseq	r0, (UNDEF: 0)
    1428:	00585200 	subseq	r5, r8, r0, lsl #4
    142c:	00600000 	rsbeq	r0, r0, r0
    1430:	00020000 	andeq	r0, r2, r0
    1434:	00009f30 	andeq	r9, r0, r0, lsr pc
    1438:	00000000 	andeq	r0, r0, r0
    143c:	000c0000 	andeq	r0, ip, r0
    1440:	001c0000 	andseq	r0, ip, r0
    1444:	00020000 	andeq	r0, r2, r0
    1448:	001c9f30 	andseq	r9, ip, r0, lsr pc
    144c:	00280000 	eoreq	r0, r8, r0
    1450:	00010000 	andeq	r0, r1, r0
    1454:	00002c53 	andeq	r2, r0, r3, asr ip
    1458:	00003800 	andeq	r3, r0, r0, lsl #16
    145c:	53000100 	movwpl	r0, #256	; 0x100
    1460:	00000038 	andeq	r0, r0, r8, lsr r0
    1464:	0000004c 	andeq	r0, r0, ip, asr #32
    1468:	01730003 	cmneq	r3, r3
    146c:	00004c9f 	muleq	r0, pc, ip	; <UNPREDICTABLE>
    1470:	00005800 	andeq	r5, r0, r0, lsl #16
    1474:	53000100 	movwpl	r0, #256	; 0x100
    1478:	00000058 	andeq	r0, r0, r8, asr r0
    147c:	00000060 	andeq	r0, r0, r0, rrx
    1480:	9f300002 	svcls	0x00300002
	...
    1490:	00000028 	andeq	r0, r0, r8, lsr #32
    1494:	9f300002 	svcls	0x00300002
    1498:	00000028 	andeq	r0, r0, r8, lsr #32
    149c:	0000002c 	andeq	r0, r0, ip, lsr #32
    14a0:	80730007 	rsbshi	r0, r3, r7
    14a4:	00f1dfdd 	ldrsbteq	sp, [r1], #253	; 0xfd
    14a8:	00002c9f 	muleq	r0, pc, ip	; <UNPREDICTABLE>
    14ac:	00003800 	andeq	r3, r0, r0, lsl #16
    14b0:	73000700 	movwvc	r0, #1792	; 0x700
    14b4:	f1dfdd84 			; <UNDEFINED> instruction: 0xf1dfdd84
    14b8:	00489f00 	subeq	r9, r8, r0, lsl #30
    14bc:	004c0000 	subeq	r0, ip, r0
    14c0:	00070000 	andeq	r0, r7, r0
    14c4:	dfdb8073 	svcle	0x00db8073
    14c8:	4c9f00f1 	ldcmi	0, cr0, [pc], {241}	; 0xf1
    14cc:	58000000 	stmdapl	r0, {}	; <UNPREDICTABLE>
    14d0:	07000000 	streq	r0, [r0, -r0]
    14d4:	db847300 	blle	fe11e0dc <__bss_end+0xfe11af60>
    14d8:	9f00f1df 	svcls	0x0000f1df
    14dc:	00000064 	andeq	r0, r0, r4, rrx
    14e0:	0000007f 	andeq	r0, r0, pc, ror r0
    14e4:	88510001 	ldmdahi	r1, {r0}^
    14e8:	90000000 	andls	r0, r0, r0
    14ec:	01000000 	mrseq	r0, (UNDEF: 0)
    14f0:	00005100 	andeq	r5, r0, r0, lsl #2
    14f4:	00000000 	andeq	r0, r0, r0
    14f8:	00900000 	addseq	r0, r0, r0
    14fc:	00b00000 	adcseq	r0, r0, r0
    1500:	00020000 	andeq	r0, r2, r0
    1504:	00b09f30 	adcseq	r9, r0, r0, lsr pc
    1508:	00b80000 	adcseq	r0, r8, r0
    150c:	000e0000 	andeq	r0, lr, r0
    1510:	70030073 	andvc	r0, r3, r3, ror r0
    1514:	0600002f 	streq	r0, [r0], -pc, lsr #32
    1518:	01000a1c 	tsteq	r0, ip, lsl sl
    151c:	00b89f1c 	adcseq	r9, r8, ip, lsl pc
    1520:	00cc0000 	sbceq	r0, ip, r0
    1524:	000e0000 	andeq	r0, lr, r0
    1528:	70030073 	andvc	r0, r3, r3, ror r0
    152c:	0600002f 	streq	r0, [r0], -pc, lsr #32
    1530:	01040a1c 	tsteq	r4, ip, lsl sl
    1534:	00009f1c 	andeq	r9, r0, ip, lsl pc
    1538:	00000000 	andeq	r0, r0, r0
    153c:	00e00000 	rsceq	r0, r0, r0
    1540:	01180000 	tsteq	r8, r0
    1544:	00010000 	andeq	r0, r1, r0
    1548:	00011850 	andeq	r1, r1, r0, asr r8
    154c:	00012c00 	andeq	r2, r1, r0, lsl #24
    1550:	f3000400 	vshl.u8	d0, d0, d0
    1554:	009f5001 	addseq	r5, pc, r1
    1558:	00000000 	andeq	r0, r0, r0
    155c:	e8000000 	stmda	r0, {}	; <UNPREDICTABLE>
    1560:	fc000000 	stc2	0, cr0, [r0], {-0}
    1564:	01000000 	mrseq	r0, (UNDEF: 0)
    1568:	00fc5100 	rscseq	r5, ip, r0, lsl #2
    156c:	01180000 	tsteq	r8, r0
    1570:	00050000 	andeq	r0, r5, r0
    1574:	25350070 	ldrcs	r0, [r5, #-112]!	; 0xffffff90
    1578:	0001189f 	muleq	r1, pc, r8	; <UNPREDICTABLE>
    157c:	00012c00 	andeq	r2, r1, r0, lsl #24
    1580:	f3000600 	vmax.u8	d0, d0, d0
    1584:	25355001 	ldrcs	r5, [r5, #-1]!
    1588:	0000009f 	muleq	r0, pc, r0	; <UNPREDICTABLE>
    158c:	00000000 	andeq	r0, r0, r0
    1590:	00010800 	andeq	r0, r1, r0, lsl #16
    1594:	00012400 	andeq	r2, r1, r0, lsl #8
    1598:	53000100 	movwpl	r0, #256	; 0x100
    159c:	00000124 	andeq	r0, r0, r4, lsr #2
    15a0:	0000012c 	andeq	r0, r0, ip, lsr #2
    15a4:	01f30006 	mvnseq	r0, r6
    15a8:	9f1a4f50 	svcls	0x001a4f50
	...
    15b4:	0000012c 	andeq	r0, r0, ip, lsr #2
    15b8:	00000148 	andeq	r0, r0, r8, asr #2
    15bc:	48500001 	ldmdami	r0, {r0}^
    15c0:	80000001 	andhi	r0, r0, r1
    15c4:	04000001 	streq	r0, [r0], #-1
    15c8:	5001f300 	andpl	pc, r1, r0, lsl #6
    15cc:	0000009f 	muleq	r0, pc, r0	; <UNPREDICTABLE>
    15d0:	00000000 	andeq	r0, r0, r0
    15d4:	00012c00 	andeq	r2, r1, r0, lsl #24
    15d8:	00016800 	andeq	r6, r1, r0, lsl #16
    15dc:	30000200 	andcc	r0, r0, r0, lsl #4
    15e0:	0001689f 	muleq	r1, pc, r8	; <UNPREDICTABLE>
    15e4:	00016c00 	andeq	r6, r1, r0, lsl #24
    15e8:	31000800 	tstcc	r0, r0, lsl #16
    15ec:	73240070 			; <UNDEFINED> instruction: 0x73240070
    15f0:	789f1a00 	ldmvc	pc, {r9, fp, ip}	; <UNPREDICTABLE>
    15f4:	80000001 	andhi	r0, r0, r1
    15f8:	02000001 	andeq	r0, r0, #1
    15fc:	009f3000 	addseq	r3, pc, r0
    1600:	00000000 	andeq	r0, r0, r0
    1604:	40000000 	andmi	r0, r0, r0
    1608:	54000001 	strpl	r0, [r0], #-1
    160c:	01000001 	tsteq	r0, r1
    1610:	01545200 	cmpeq	r4, r0, lsl #4
    1614:	01780000 	cmneq	r8, r0
    1618:	00060000 	andeq	r0, r6, r0
    161c:	355001f3 	ldrbcc	r0, [r0, #-499]	; 0xfffffe0d
    1620:	01789f25 	cmneq	r8, r5, lsr #30
    1624:	01800000 	orreq	r0, r0, r0
    1628:	00010000 	andeq	r0, r1, r0
    162c:	00000052 	andeq	r0, r0, r2, asr r0
    1630:	00000000 	andeq	r0, r0, r0
    1634:	00014800 	andeq	r4, r1, r0, lsl #16
    1638:	00017000 	andeq	r7, r1, r0
    163c:	50000100 	andpl	r0, r0, r0, lsl #2
    1640:	00000170 	andeq	r0, r0, r0, ror r1
    1644:	00000178 	andeq	r0, r0, r8, ror r1
    1648:	01f30006 	mvnseq	r0, r6
    164c:	9f1a4f50 	svcls	0x001a4f50
    1650:	00000178 	andeq	r0, r0, r8, ror r1
    1654:	0000017c 	andeq	r0, r0, ip, ror r1
    1658:	7c500001 	mrrcvc	0, 0, r0, r0, cr1	; <UNPREDICTABLE>
    165c:	80000001 	andhi	r0, r0, r1
    1660:	06000001 	streq	r0, [r0], -r1
    1664:	5001f300 	andpl	pc, r1, r0, lsl #6
    1668:	009f1a4f 	addseq	r1, pc, pc, asr #20
	...
    1674:	0c000000 	stceq	0, cr0, [r0], {-0}
    1678:	01000000 	mrseq	r0, (UNDEF: 0)
    167c:	000c5000 	andeq	r5, ip, r0
    1680:	00140000 	andseq	r0, r4, r0
    1684:	00030000 	andeq	r0, r3, r0
    1688:	149f0470 	ldrne	r0, [pc], #1136	; 1690 <serial_init_nommu+0x54>
    168c:	2c000000 	stccs	0, cr0, [r0], {-0}
    1690:	04000000 	streq	r0, [r0], #-0
    1694:	5001f300 	andpl	pc, r1, r0, lsl #6
    1698:	0000009f 	muleq	r0, pc, r0	; <UNPREDICTABLE>
	...
    16a4:	00001400 	andeq	r1, r0, r0, lsl #8
    16a8:	30000200 	andcc	r0, r0, r0, lsl #4
    16ac:	0000009f 	muleq	r0, pc, r0	; <UNPREDICTABLE>
    16b0:	00000000 	andeq	r0, r0, r0
    16b4:	00002c00 	andeq	r2, r0, r0, lsl #24
    16b8:	00003800 	andeq	r3, r0, r0, lsl #16
    16bc:	50000100 	andpl	r0, r0, r0, lsl #2
    16c0:	00000038 	andeq	r0, r0, r8, lsr r0
    16c4:	00000040 	andeq	r0, r0, r0, asr #32
    16c8:	04700003 	ldrbteq	r0, [r0], #-3
    16cc:	0000409f 	muleq	r0, pc, r0	; <UNPREDICTABLE>
    16d0:	00005800 	andeq	r5, r0, r0, lsl #16
    16d4:	f3000400 	vshl.u8	d0, d0, d0
    16d8:	009f5001 	addseq	r5, pc, r1
    16dc:	00000000 	andeq	r0, r0, r0
    16e0:	2c000000 	stccs	0, cr0, [r0], {-0}
    16e4:	40000000 	andmi	r0, r0, r0
    16e8:	02000000 	andeq	r0, r0, #0
    16ec:	009f3000 	addseq	r3, pc, r0
	...
    16f8:	20000000 	andcs	r0, r0, r0
    16fc:	01000000 	mrseq	r0, (UNDEF: 0)
    1700:	00205000 	eoreq	r5, r0, r0
    1704:	00580000 	subseq	r0, r8, r0
    1708:	00010000 	andeq	r0, r1, r0
    170c:	00000052 	andeq	r0, r0, r2, asr r0
    1710:	00000000 	andeq	r0, r0, r0
    1714:	00005800 	andeq	r5, r0, r0, lsl #16
    1718:	00007000 	andeq	r7, r0, r0
    171c:	50000100 	andpl	r0, r0, r0, lsl #2
    1720:	00000070 	andeq	r0, r0, r0, ror r0
    1724:	000000a0 	andeq	r0, r0, r0, lsr #1
    1728:	a0520001 	subsge	r0, r2, r1
    172c:	a8000000 	stmdage	r0, {}	; <UNPREDICTABLE>
    1730:	04000000 	streq	r0, [r0], #-0
    1734:	5001f300 	andpl	pc, r1, r0, lsl #6
    1738:	0000009f 	muleq	r0, pc, r0	; <UNPREDICTABLE>
    173c:	00000000 	andeq	r0, r0, r0
    1740:	00018c00 	andeq	r8, r1, r0, lsl #24
    1744:	0001b400 	andeq	fp, r1, r0, lsl #8
    1748:	50000100 	andpl	r0, r0, r0, lsl #2
    174c:	000001b4 			; <UNDEFINED> instruction: 0x000001b4
    1750:	000001e0 	andeq	r0, r0, r0, ror #3
    1754:	01f30004 	mvnseq	r0, r4
    1758:	00009f50 	andeq	r9, r0, r0, asr pc
	...
    1764:	00280000 	eoreq	r0, r8, r0
    1768:	00010000 	andeq	r0, r1, r0
    176c:	00002850 	andeq	r2, r0, r0, asr r8
    1770:	00003000 	andeq	r3, r0, r0
    1774:	f3000400 	vshl.u8	d0, d0, d0
    1778:	009f5001 	addseq	r5, pc, r1
    177c:	00000000 	andeq	r0, r0, r0
    1780:	40000000 	andmi	r0, r0, r0
    1784:	60000000 	andvs	r0, r0, r0
    1788:	01000000 	mrseq	r0, (UNDEF: 0)
    178c:	00605000 	rsbeq	r5, r0, r0
    1790:	007c0000 	rsbseq	r0, ip, r0
    1794:	00010000 	andeq	r0, r1, r0
    1798:	00000052 	andeq	r0, r0, r2, asr r0
    179c:	00000000 	andeq	r0, r0, r0
    17a0:	00007c00 	andeq	r7, r0, r0, lsl #24
    17a4:	00009400 	andeq	r9, r0, r0, lsl #8
    17a8:	50000100 	andpl	r0, r0, r0, lsl #2
    17ac:	00000094 	muleq	r0, r4, r0
    17b0:	000000a8 	andeq	r0, r0, r8, lsr #1
    17b4:	a8520001 	ldmdage	r2, {r0}^
    17b8:	b0000000 	andlt	r0, r0, r0
    17bc:	04000000 	streq	r0, [r0], #-0
    17c0:	5001f300 	andpl	pc, r1, r0, lsl #6
    17c4:	0000009f 	muleq	r0, pc, r0	; <UNPREDICTABLE>
    17c8:	00000000 	andeq	r0, r0, r0
    17cc:	0000b000 	andeq	fp, r0, r0
    17d0:	0000d800 	andeq	sp, r0, r0, lsl #16
    17d4:	50000100 	andpl	r0, r0, r0, lsl #2
    17d8:	000000d8 	ldrdeq	r0, [r0], -r8
    17dc:	00000124 	andeq	r0, r0, r4, lsr #2
    17e0:	24550001 	ldrbcs	r0, [r5], #-1
    17e4:	28000001 	stmdacs	r0, {r0}
    17e8:	01000001 	tsteq	r0, r1
    17ec:	01285000 			; <UNDEFINED> instruction: 0x01285000
    17f0:	012c0000 			; <UNDEFINED> instruction: 0x012c0000
    17f4:	00040000 	andeq	r0, r4, r0
    17f8:	9f5001f3 	svcls	0x005001f3
	...
    1804:	0000012c 	andeq	r0, r0, ip, lsr #2
    1808:	0000014c 	andeq	r0, r0, ip, asr #2
    180c:	4c500001 	mrrcmi	0, 0, r0, r0, cr1	; <UNPREDICTABLE>
    1810:	6c000001 	stcvs	0, cr0, [r0], {1}
    1814:	01000001 	tsteq	r0, r1
    1818:	016c5100 	cmneq	ip, r0, lsl #2
    181c:	01700000 	cmneq	r0, r0
    1820:	00010000 	andeq	r0, r1, r0
    1824:	00017050 	andeq	r7, r1, r0, asr r0
    1828:	00017400 	andeq	r7, r1, r0, lsl #8
    182c:	51000100 	mrspl	r0, (UNDEF: 16)
	...
    1838:	00000174 	andeq	r0, r0, r4, ror r1
    183c:	00000194 	muleq	r0, r4, r1
    1840:	94500001 	ldrbls	r0, [r0], #-1
    1844:	b4000001 	strlt	r0, [r0], #-1
    1848:	01000001 	tsteq	r0, r1
    184c:	01b45e00 			; <UNDEFINED> instruction: 0x01b45e00
    1850:	01e00000 	mvneq	r0, r0
    1854:	00040000 	andeq	r0, r4, r0
    1858:	9f5001f3 	svcls	0x005001f3
	...
    1864:	000001e0 	andeq	r0, r0, r0, ror #3
    1868:	00000200 	andeq	r0, r0, r0, lsl #4
    186c:	00500001 	subseq	r0, r0, r1
    1870:	30000002 	andcc	r0, r0, r2
    1874:	01000002 	tsteq	r0, r2
    1878:	00005300 	andeq	r5, r0, r0, lsl #6
    187c:	00000000 	andeq	r0, r0, r0
    1880:	02300000 	eorseq	r0, r0, #0
    1884:	02380000 	eorseq	r0, r8, #0
    1888:	00010000 	andeq	r0, r1, r0
    188c:	00023850 	andeq	r3, r2, r0, asr r8
    1890:	00029400 	andeq	r9, r2, r0, lsl #8
    1894:	51000100 	mrspl	r0, (UNDEF: 16)
    1898:	00000294 	muleq	r0, r4, r2
    189c:	000002c8 	andeq	r0, r0, r8, asr #5
    18a0:	01f30004 	mvnseq	r0, r4
    18a4:	00009f50 	andeq	r9, r0, r0, asr pc
    18a8:	00000000 	andeq	r0, r0, r0
    18ac:	02c80000 	sbceq	r0, r8, #0
    18b0:	02e80000 	rsceq	r0, r8, #0
    18b4:	00010000 	andeq	r0, r1, r0
    18b8:	0002e850 	andeq	lr, r2, r0, asr r8
    18bc:	00032800 	andeq	r2, r3, r0, lsl #16
    18c0:	52000100 	andpl	r0, r0, #0, 2
	...
    18cc:	00000328 	andeq	r0, r0, r8, lsr #6
    18d0:	00000388 	andeq	r0, r0, r8, lsl #7
    18d4:	9f310002 	svcls	0x00310002
    18d8:	00000388 	andeq	r0, r0, r8, lsl #7
    18dc:	0000039b 	muleq	r0, fp, r3
    18e0:	8d03000d 	stchi	0, cr0, [r3, #-52]	; 0xffffffcc
    18e4:	9400002f 	strls	r0, [r0], #-47	; 0xffffffd1
    18e8:	1aff0801 	bne	fffc38f4 <__bss_end+0xfffc0778>
    18ec:	9c9f0123 	ldflss	f0, [pc], {35}	; 0x23
    18f0:	a4000003 	strge	r0, [r0], #-3
    18f4:	02000003 	andeq	r0, r0, #3
    18f8:	009f3100 	addseq	r3, pc, r0, lsl #2
    18fc:	00000000 	andeq	r0, r0, r0
    1900:	28000000 	stmdacs	r0, {}	; <UNPREDICTABLE>
    1904:	88000003 	stmdahi	r0, {r0, r1}
    1908:	02000003 	andeq	r0, r0, #3
    190c:	889f3100 	ldmhi	pc, {r8, ip, sp}	; <UNPREDICTABLE>
    1910:	9b000003 	blls	1924 <serial_puts+0x3c>
    1914:	12000003 	andne	r0, r0, #3
    1918:	2f8c0300 	svccs	0x008c0300
    191c:	01940000 	orrseq	r0, r4, r0
    1920:	3224fe09 	eorcc	pc, r4, #9, 28	; 0x90
    1924:	1aff0826 	bne	fffc39c4 <__bss_end+0xfffc0848>
    1928:	9c9f0123 	ldflss	f0, [pc], {35}	; 0x23
    192c:	a4000003 	strge	r0, [r0], #-3
    1930:	02000003 	andeq	r0, r0, #3
    1934:	009f3100 	addseq	r3, pc, r0, lsl #2
    1938:	00000000 	andeq	r0, r0, r0
    193c:	28000000 	stmdacs	r0, {}	; <UNPREDICTABLE>
    1940:	88000003 	stmdahi	r0, {r0, r1}
    1944:	02000003 	andeq	r0, r0, #3
    1948:	889f3100 	ldmhi	pc, {r8, ip, sp}	; <UNPREDICTABLE>
    194c:	9b000003 	blls	1960 <serial_puts+0x78>
    1950:	0d000003 	stceq	0, cr0, [r0, #-12]
    1954:	2f8c0300 	svccs	0x008c0300
    1958:	01940000 	orrseq	r0, r4, r0
    195c:	231aff08 	tstcs	sl, #8, 30	; <UNPREDICTABLE>
    1960:	039c9f01 	orrseq	r9, ip, #1, 30
    1964:	03a40000 			; <UNDEFINED> instruction: 0x03a40000
    1968:	00020000 	andeq	r0, r2, r0
    196c:	00009f31 	andeq	r9, r0, r1, lsr pc
    1970:	00000000 	andeq	r0, r0, r0
    1974:	03280000 			; <UNDEFINED> instruction: 0x03280000
    1978:	03880000 	orreq	r0, r8, #0
    197c:	00020000 	andeq	r0, r2, r0
    1980:	03889f31 	orreq	r9, r8, #49, 30	; 0xc4
    1984:	039b0000 	orrseq	r0, fp, #0
    1988:	000d0000 	andeq	r0, sp, r0
    198c:	2f8e0331 	svccs	0x008e0331
    1990:	01940000 	orrseq	r0, r4, r0
    1994:	241aff08 	ldrcs	pc, [sl], #-3848	; 0xfffff0f8
    1998:	00039c9f 	muleq	r3, pc, ip	; <UNPREDICTABLE>
    199c:	0003a400 	andeq	sl, r3, r0, lsl #8
    19a0:	31000200 	mrscc	r0, R8_usr
    19a4:	0000009f 	muleq	r0, pc, r0	; <UNPREDICTABLE>
    19a8:	00000000 	andeq	r0, r0, r0
    19ac:	00032800 	andeq	r2, r3, r0, lsl #16
    19b0:	00033c00 	andeq	r3, r3, r0, lsl #24
    19b4:	30000200 	andcc	r0, r0, r0, lsl #4
    19b8:	00033c9f 	muleq	r3, pc, ip	; <UNPREDICTABLE>
    19bc:	00036c00 	andeq	r6, r3, r0, lsl #24
    19c0:	51000100 	mrspl	r0, (UNDEF: 16)
    19c4:	0000036c 	andeq	r0, r0, ip, ror #6
    19c8:	00000384 	andeq	r0, r0, r4, lsl #7
    19cc:	00720008 	rsbseq	r0, r2, r8
    19d0:	3224f209 	eorcc	pc, r4, #-1879048192	; 0x90000000
    19d4:	03849f25 	orreq	r9, r4, #37, 30	; 0x94
    19d8:	039b0000 	orrseq	r0, fp, #0
    19dc:	000c0000 	andeq	r0, ip, r0
    19e0:	002f8803 	eoreq	r8, pc, r3, lsl #16
    19e4:	f2090600 	vmax.s8	d0, d9, d0
    19e8:	9f253224 	svcls	0x00253224
    19ec:	0000039c 	muleq	r0, ip, r3
    19f0:	000003a4 	andeq	r0, r0, r4, lsr #7
    19f4:	00510001 	subseq	r0, r1, r1
    19f8:	00000000 	andeq	r0, r0, r0
    19fc:	28000000 	stmdacs	r0, {}	; <UNPREDICTABLE>
    1a00:	a0000003 	andge	r0, r0, r3
    1a04:	02000003 	andeq	r0, r0, #3
    1a08:	a09f3000 	addsge	r3, pc, r0
    1a0c:	a4000003 	strge	r0, [r0], #-3
    1a10:	01000003 	tsteq	r0, r3
    1a14:	00005000 	andeq	r5, r0, r0
    1a18:	00000000 	andeq	r0, r0, r0
	...

Disassembly of section .debug_frame:

00000000 <.debug_frame>:
   0:	0000000c 	andeq	r0, r0, ip
   4:	ffffffff 			; <UNDEFINED> instruction: 0xffffffff
   8:	7c020001 	stcvc	0, cr0, [r2], {1}
   c:	000d0c0e 	andeq	r0, sp, lr, lsl #24
  10:	0000000c 	andeq	r0, r0, ip
  14:	00000000 	andeq	r0, r0, r0
  18:	000000e0 	andeq	r0, r0, r0, ror #1
  1c:	0000002c 	andeq	r0, r0, ip, lsr #32
  20:	0000000c 	andeq	r0, r0, ip
  24:	ffffffff 			; <UNDEFINED> instruction: 0xffffffff
  28:	7c020001 	stcvc	0, cr0, [r2], {1}
  2c:	000d0c0e 	andeq	r0, sp, lr, lsl #24
  30:	00000018 	andeq	r0, r0, r8, lsl r0
  34:	00000020 	andeq	r0, r0, r0, lsr #32
  38:	00000134 	andeq	r0, r0, r4, lsr r1
  3c:	0000014c 	andeq	r0, r0, ip, asr #2
  40:	84100e42 	ldrhi	r0, [r0], #-3650	; 0xfffff1be
  44:	86038504 	strhi	r8, [r3], -r4, lsl #10
  48:	00018e02 	andeq	r8, r1, r2, lsl #28
  4c:	00000024 	andeq	r0, r0, r4, lsr #32
  50:	00000020 	andeq	r0, r0, r0, lsr #32
  54:	00000280 	andeq	r0, r0, r0, lsl #5
  58:	0000016c 	andeq	r0, r0, ip, ror #2
  5c:	84100e42 	ldrhi	r0, [r0], #-3650	; 0xfffff1be
  60:	86038504 	strhi	r8, [r3], -r4, lsl #10
  64:	02018e02 	andeq	r8, r1, #2, 28
  68:	c6ce0a7a 			; <UNDEFINED> instruction: 0xc6ce0a7a
  6c:	000ec4c5 	andeq	ip, lr, r5, asr #9
  70:	00000b42 	andeq	r0, r0, r2, asr #22
  74:	0000000c 	andeq	r0, r0, ip
  78:	ffffffff 			; <UNDEFINED> instruction: 0xffffffff
  7c:	7c020001 	stcvc	0, cr0, [r2], {1}
  80:	000d0c0e 	andeq	r0, sp, lr, lsl #24
  84:	00000014 	andeq	r0, r0, r4, lsl r0
  88:	00000074 	andeq	r0, r0, r4, ror r0
  8c:	000003ec 	andeq	r0, r0, ip, ror #7
  90:	00000020 	andeq	r0, r0, r0, lsr #32
  94:	4c080e42 	stcmi	14, cr0, [r8], {66}	; 0x42
  98:	0000000e 	andeq	r0, r0, lr
  9c:	0000000c 	andeq	r0, r0, ip
  a0:	00000074 	andeq	r0, r0, r4, ror r0
  a4:	0000040c 	andeq	r0, r0, ip, lsl #8
  a8:	00000004 	andeq	r0, r0, r4
  ac:	0000000c 	andeq	r0, r0, ip
  b0:	00000074 	andeq	r0, r0, r4, ror r0
  b4:	00000410 	andeq	r0, r0, r0, lsl r4
  b8:	00000004 	andeq	r0, r0, r4
  bc:	0000000c 	andeq	r0, r0, ip
  c0:	00000074 	andeq	r0, r0, r4, ror r0
  c4:	00000414 	andeq	r0, r0, r4, lsl r4
  c8:	00000004 	andeq	r0, r0, r4
  cc:	0000000c 	andeq	r0, r0, ip
  d0:	00000074 	andeq	r0, r0, r4, ror r0
  d4:	00000418 	andeq	r0, r0, r8, lsl r4
  d8:	00000004 	andeq	r0, r0, r4
  dc:	0000000c 	andeq	r0, r0, ip
  e0:	00000074 	andeq	r0, r0, r4, ror r0
  e4:	0000041c 	andeq	r0, r0, ip, lsl r4
  e8:	00000020 	andeq	r0, r0, r0, lsr #32
  ec:	0000000c 	andeq	r0, r0, ip
  f0:	00000074 	andeq	r0, r0, r4, ror r0
  f4:	0000043c 	andeq	r0, r0, ip, lsr r4
  f8:	00000004 	andeq	r0, r0, r4
  fc:	00000014 	andeq	r0, r0, r4, lsl r0
 100:	00000074 	andeq	r0, r0, r4, ror r0
 104:	00000440 	andeq	r0, r0, r0, asr #8
 108:	00000028 	andeq	r0, r0, r8, lsr #32
 10c:	50080e42 	andpl	r0, r8, r2, asr #28
 110:	0000000e 	andeq	r0, r0, lr
 114:	0000000c 	andeq	r0, r0, ip
 118:	00000074 	andeq	r0, r0, r4, ror r0
 11c:	00000468 	andeq	r0, r0, r8, ror #8
 120:	00000010 	andeq	r0, r0, r0, lsl r0
 124:	00000018 	andeq	r0, r0, r8, lsl r0
 128:	00000074 	andeq	r0, r0, r4, ror r0
 12c:	00000478 	andeq	r0, r0, r8, ror r4
 130:	00000038 	andeq	r0, r0, r8, lsr r0
 134:	84100e42 	ldrhi	r0, [r0], #-3650	; 0xfffff1be
 138:	86038504 	strhi	r8, [r3], -r4, lsl #10
 13c:	00018e02 	andeq	r8, r1, r2, lsl #28
 140:	00000014 	andeq	r0, r0, r4, lsl r0
 144:	00000074 	andeq	r0, r0, r4, ror r0
 148:	000004b0 			; <UNDEFINED> instruction: 0x000004b0
 14c:	0000001c 	andeq	r0, r0, ip, lsl r0
 150:	4a080e42 	bmi	203a60 <__bss_end+0x2008e4>
 154:	0000000e 	andeq	r0, r0, lr
 158:	00000014 	andeq	r0, r0, r4, lsl r0
 15c:	00000074 	andeq	r0, r0, r4, ror r0
 160:	000004cc 	andeq	r0, r0, ip, asr #9
 164:	0000001c 	andeq	r0, r0, ip, lsl r0
 168:	4a080e42 	bmi	203a78 <__bss_end+0x2008fc>
 16c:	0000000e 	andeq	r0, r0, lr
 170:	0000000c 	andeq	r0, r0, ip
 174:	00000074 	andeq	r0, r0, r4, ror r0
 178:	000004e8 	andeq	r0, r0, r8, ror #9
 17c:	00000018 	andeq	r0, r0, r8, lsl r0
 180:	0000000c 	andeq	r0, r0, ip
 184:	00000074 	andeq	r0, r0, r4, ror r0
 188:	00000500 	andeq	r0, r0, r0, lsl #10
 18c:	00000018 	andeq	r0, r0, r8, lsl r0
 190:	0000000c 	andeq	r0, r0, ip
 194:	00000074 	andeq	r0, r0, r4, ror r0
 198:	00000518 	andeq	r0, r0, r8, lsl r5
 19c:	00000018 	andeq	r0, r0, r8, lsl r0
 1a0:	00000018 	andeq	r0, r0, r8, lsl r0
 1a4:	00000074 	andeq	r0, r0, r4, ror r0
 1a8:	00000530 	andeq	r0, r0, r0, lsr r5
 1ac:	00000034 	andeq	r0, r0, r4, lsr r0
 1b0:	84100e42 	ldrhi	r0, [r0], #-3650	; 0xfffff1be
 1b4:	86038504 	strhi	r8, [r3], -r4, lsl #10
 1b8:	00018e02 	andeq	r8, r1, r2, lsl #28
 1bc:	0000000c 	andeq	r0, r0, ip
 1c0:	ffffffff 			; <UNDEFINED> instruction: 0xffffffff
 1c4:	7c020001 	stcvc	0, cr0, [r2], {1}
 1c8:	000d0c0e 	andeq	r0, sp, lr, lsl #24
 1cc:	0000000c 	andeq	r0, r0, ip
 1d0:	000001bc 			; <UNDEFINED> instruction: 0x000001bc
 1d4:	00000564 	andeq	r0, r0, r4, ror #10
 1d8:	00000034 	andeq	r0, r0, r4, lsr r0
 1dc:	0000000c 	andeq	r0, r0, ip
 1e0:	000001bc 			; <UNDEFINED> instruction: 0x000001bc
 1e4:	00000598 	muleq	r0, r8, r5
 1e8:	0000001c 	andeq	r0, r0, ip, lsl r0
 1ec:	0000000c 	andeq	r0, r0, ip
 1f0:	000001bc 			; <UNDEFINED> instruction: 0x000001bc
 1f4:	000005b4 			; <UNDEFINED> instruction: 0x000005b4
 1f8:	0000001c 	andeq	r0, r0, ip, lsl r0
 1fc:	0000000c 	andeq	r0, r0, ip
 200:	000001bc 			; <UNDEFINED> instruction: 0x000001bc
 204:	000005d0 	ldrdeq	r0, [r0], -r0	; <UNPREDICTABLE>
 208:	00000008 	andeq	r0, r0, r8
 20c:	0000000c 	andeq	r0, r0, ip
 210:	000001bc 			; <UNDEFINED> instruction: 0x000001bc
 214:	000005d8 	ldrdeq	r0, [r0], -r8
 218:	00000010 	andeq	r0, r0, r0, lsl r0
 21c:	00000014 	andeq	r0, r0, r4, lsl r0
 220:	000001bc 			; <UNDEFINED> instruction: 0x000001bc
 224:	000005e8 	andeq	r0, r0, r8, ror #11
 228:	00000030 	andeq	r0, r0, r0, lsr r0
 22c:	84080e42 	strhi	r0, [r8], #-3650	; 0xfffff1be
 230:	00018e02 	andeq	r8, r1, r2, lsl #28
 234:	00000018 	andeq	r0, r0, r8, lsl r0
 238:	000001bc 			; <UNDEFINED> instruction: 0x000001bc
 23c:	00000618 	andeq	r0, r0, r8, lsl r6
 240:	00000094 	muleq	r0, r4, r0
 244:	84100e42 	ldrhi	r0, [r0], #-3650	; 0xfffff1be
 248:	86038504 	strhi	r8, [r3], -r4, lsl #10
 24c:	00018e02 	andeq	r8, r1, r2, lsl #28
 250:	00000018 	andeq	r0, r0, r8, lsl r0
 254:	000001bc 			; <UNDEFINED> instruction: 0x000001bc
 258:	000006ac 	andeq	r0, r0, ip, lsr #13
 25c:	00000034 	andeq	r0, r0, r4, lsr r0
 260:	84080e44 	strhi	r0, [r8], #-3652	; 0xfffff1bc
 264:	54018e02 	strpl	r8, [r1], #-3586	; 0xfffff1fe
 268:	000ec4ce 	andeq	ip, lr, lr, asr #9
 26c:	0000000c 	andeq	r0, r0, ip
 270:	000001bc 			; <UNDEFINED> instruction: 0x000001bc
 274:	000006e0 	andeq	r0, r0, r0, ror #13
 278:	0000002c 	andeq	r0, r0, ip, lsr #32
 27c:	0000000c 	andeq	r0, r0, ip
 280:	000001bc 			; <UNDEFINED> instruction: 0x000001bc
 284:	0000070c 	andeq	r0, r0, ip, lsl #14
 288:	0000002c 	andeq	r0, r0, ip, lsr #32
 28c:	0000000c 	andeq	r0, r0, ip
 290:	000001bc 			; <UNDEFINED> instruction: 0x000001bc
 294:	00000738 	andeq	r0, r0, r8, lsr r7
 298:	0000002c 	andeq	r0, r0, ip, lsr #32
 29c:	0000000c 	andeq	r0, r0, ip
 2a0:	ffffffff 			; <UNDEFINED> instruction: 0xffffffff
 2a4:	7c020001 	stcvc	0, cr0, [r2], {1}
 2a8:	000d0c0e 	andeq	r0, sp, lr, lsl #24
 2ac:	0000000c 	andeq	r0, r0, ip
 2b0:	0000029c 	muleq	r0, ip, r2
 2b4:	00000780 	andeq	r0, r0, r0, lsl #15
 2b8:	0000003c 	andeq	r0, r0, ip, lsr r0
 2bc:	0000000c 	andeq	r0, r0, ip
 2c0:	0000029c 	muleq	r0, ip, r2
 2c4:	000007bc 			; <UNDEFINED> instruction: 0x000007bc
 2c8:	0000004c 	andeq	r0, r0, ip, asr #32
 2cc:	0000000c 	andeq	r0, r0, ip
 2d0:	0000029c 	muleq	r0, ip, r2
 2d4:	00000808 	andeq	r0, r0, r8, lsl #16
 2d8:	00000058 	andeq	r0, r0, r8, asr r0
 2dc:	0000000c 	andeq	r0, r0, ip
 2e0:	ffffffff 			; <UNDEFINED> instruction: 0xffffffff
 2e4:	7c020001 	stcvc	0, cr0, [r2], {1}
 2e8:	000d0c0e 	andeq	r0, sp, lr, lsl #24
 2ec:	0000000c 	andeq	r0, r0, ip
 2f0:	000002dc 	ldrdeq	r0, [r0], -ip
 2f4:	00000db0 			; <UNDEFINED> instruction: 0x00000db0
 2f8:	00000404 	andeq	r0, r0, r4, lsl #8
 2fc:	0000000c 	andeq	r0, r0, ip
 300:	000002dc 	ldrdeq	r0, [r0], -ip
 304:	000011b4 			; <UNDEFINED> instruction: 0x000011b4
 308:	000002c4 	andeq	r0, r0, r4, asr #5
 30c:	0000000c 	andeq	r0, r0, ip
 310:	000002dc 	ldrdeq	r0, [r0], -ip
 314:	00001478 	andeq	r1, r0, r8, ror r4
 318:	00000018 	andeq	r0, r0, r8, lsl r0
 31c:	0000000c 	andeq	r0, r0, ip
 320:	000002dc 	ldrdeq	r0, [r0], -ip
 324:	00001490 	muleq	r0, r0, r4
 328:	00000090 	muleq	r0, r0, r0
 32c:	0000000c 	andeq	r0, r0, ip
 330:	000002dc 	ldrdeq	r0, [r0], -ip
 334:	00001520 	andeq	r1, r0, r0, lsr #10
 338:	0000000c 	andeq	r0, r0, ip
 33c:	0000000c 	andeq	r0, r0, ip
 340:	000002dc 	ldrdeq	r0, [r0], -ip
 344:	0000152c 	andeq	r1, r0, ip, lsr #10
 348:	0000000c 	andeq	r0, r0, ip
 34c:	0000000c 	andeq	r0, r0, ip
 350:	000002dc 	ldrdeq	r0, [r0], -ip
 354:	00001538 	andeq	r1, r0, r8, lsr r5
 358:	00000014 	andeq	r0, r0, r4, lsl r0
 35c:	0000000c 	andeq	r0, r0, ip
 360:	000002dc 	ldrdeq	r0, [r0], -ip
 364:	0000154c 	andeq	r1, r0, ip, asr #10
 368:	00000010 	andeq	r0, r0, r0, lsl r0
 36c:	0000000c 	andeq	r0, r0, ip
 370:	ffffffff 			; <UNDEFINED> instruction: 0xffffffff
 374:	7c020001 	stcvc	0, cr0, [r2], {1}
 378:	000d0c0e 	andeq	r0, sp, lr, lsl #24
 37c:	00000018 	andeq	r0, r0, r8, lsl r0
 380:	0000036c 	andeq	r0, r0, ip, ror #6
 384:	0000155c 	andeq	r1, r0, ip, asr r5
 388:	000000ac 	andeq	r0, r0, ip, lsr #1
 38c:	84100e42 	ldrhi	r0, [r0], #-3650	; 0xfffff1be
 390:	86038504 	strhi	r8, [r3], -r4, lsl #10
 394:	00018e02 	andeq	r8, r1, r2, lsl #28
 398:	0000000c 	andeq	r0, r0, ip
 39c:	0000036c 	andeq	r0, r0, ip, ror #6
 3a0:	00001608 	andeq	r1, r0, r8, lsl #12
 3a4:	00000034 	andeq	r0, r0, r4, lsr r0
 3a8:	0000001c 	andeq	r0, r0, ip, lsl r0
 3ac:	0000036c 	andeq	r0, r0, ip, ror #6
 3b0:	0000163c 	andeq	r1, r0, ip, lsr r6
 3b4:	000000a0 	andeq	r0, r0, r0, lsr #1
 3b8:	84180e4a 	ldrhi	r0, [r8], #-3658	; 0xfffff1b6
 3bc:	86058506 	strhi	r8, [r5], -r6, lsl #10
 3c0:	88038704 	stmdahi	r3, {r2, r8, r9, sl, pc}
 3c4:	00018e02 	andeq	r8, r1, r2, lsl #28
 3c8:	00000018 	andeq	r0, r0, r8, lsl r0
 3cc:	0000036c 	andeq	r0, r0, ip, ror #6
 3d0:	000016dc 	ldrdeq	r1, [r0], -ip
 3d4:	000000a8 	andeq	r0, r0, r8, lsr #1
 3d8:	8e040e56 	mcrhi	14, 0, r0, cr4, cr6, {2}
 3dc:	000e7601 	andeq	r7, lr, r1, lsl #12
 3e0:	000000ce 	andeq	r0, r0, lr, asr #1
 3e4:	0000001c 	andeq	r0, r0, ip, lsl r0
 3e8:	0000036c 	andeq	r0, r0, ip, ror #6
 3ec:	00001784 	andeq	r1, r0, r4, lsl #15
 3f0:	00000094 	muleq	r0, r4, r0
 3f4:	8e040e56 	mcrhi	14, 0, r0, cr4, cr6, {2}
 3f8:	000e6e01 	andeq	r6, lr, r1, lsl #28
 3fc:	040e44ce 	streq	r4, [lr], #-1230	; 0xfffffb32
 400:	0000018e 	andeq	r0, r0, lr, lsl #3
 404:	0000000c 	andeq	r0, r0, ip
 408:	0000036c 	andeq	r0, r0, ip, ror #6
 40c:	00001818 	andeq	r1, r0, r8, lsl r8
 410:	00000014 	andeq	r0, r0, r4, lsl r0
 414:	0000000c 	andeq	r0, r0, ip
 418:	0000036c 	andeq	r0, r0, ip, ror #6
 41c:	0000182c 	andeq	r1, r0, ip, lsr #16
 420:	00000014 	andeq	r0, r0, r4, lsl r0
 424:	0000001c 	andeq	r0, r0, ip, lsl r0
 428:	0000036c 	andeq	r0, r0, ip, ror #6
 42c:	00001840 	andeq	r1, r0, r0, asr #16
 430:	000000a8 	andeq	r0, r0, r8, lsr #1
 434:	84180e4a 	ldrhi	r0, [r8], #-3658	; 0xfffff1b6
 438:	86058506 	strhi	r8, [r5], -r6, lsl #10
 43c:	88038704 	stmdahi	r3, {r2, r8, r9, sl, pc}
 440:	00018e02 	andeq	r8, r1, r2, lsl #28
 444:	00000018 	andeq	r0, r0, r8, lsl r0
 448:	0000036c 	andeq	r0, r0, ip, ror #6
 44c:	000018e8 	andeq	r1, r0, r8, ror #17
 450:	000000a8 	andeq	r0, r0, r8, lsr #1
 454:	8e040e56 	mcrhi	14, 0, r0, cr4, cr6, {2}
 458:	000e7601 	andeq	r7, lr, r1, lsl #12
 45c:	000000ce 	andeq	r0, r0, lr, asr #1
 460:	0000001c 	andeq	r0, r0, ip, lsl r0
 464:	0000036c 	andeq	r0, r0, ip, ror #6
 468:	00001990 	muleq	r0, r0, r9
 46c:	00000094 	muleq	r0, r4, r0
 470:	8e040e56 	mcrhi	14, 0, r0, cr4, cr6, {2}
 474:	000e6e01 	andeq	r6, lr, r1, lsl #28
 478:	040e44ce 	streq	r4, [lr], #-1230	; 0xfffffb32
 47c:	0000018e 	andeq	r0, r0, lr, lsl #3
 480:	0000000c 	andeq	r0, r0, ip
 484:	ffffffff 			; <UNDEFINED> instruction: 0xffffffff
 488:	7c020001 	stcvc	0, cr0, [r2], {1}
 48c:	000d0c0e 	andeq	r0, sp, lr, lsl #24
 490:	0000002c 	andeq	r0, r0, ip, lsr #32
 494:	00000480 	andeq	r0, r0, r0, lsl #9
 498:	00001a24 	andeq	r1, r0, r4, lsr #20
 49c:	000000cc 	andeq	r0, r0, ip, asr #1
 4a0:	841c0e48 	ldrhi	r0, [ip], #-3656	; 0xfffff1b8
 4a4:	86068507 	strhi	r8, [r6], -r7, lsl #10
 4a8:	88048705 	stmdahi	r4, {r0, r2, r8, r9, sl, pc}
 4ac:	8e028903 	cdphi	9, 0, cr8, cr2, cr3, {0}
 4b0:	480e4a01 	stmdami	lr, {r0, r9, fp, lr}
 4b4:	0e0a4602 	cfmadd32eq	mvax0, mvfx4, mvfx10, mvfx2
 4b8:	4a0b421c 	bmi	2d0d30 <__bss_end+0x2cdbb4>
 4bc:	00001c0e 	andeq	r1, r0, lr, lsl #24
 4c0:	00000024 	andeq	r0, r0, r4, lsr #32
 4c4:	00000480 	andeq	r0, r0, r0, lsl #9
 4c8:	00001af0 	strdeq	r1, [r0], -r0
 4cc:	00000098 	muleq	r0, r8, r0
 4d0:	84100e42 	ldrhi	r0, [r0], #-3650	; 0xfffff1be
 4d4:	86038504 	strhi	r8, [r3], -r4, lsl #10
 4d8:	4e018e02 	cdpmi	14, 0, cr8, cr1, cr2, {0}
 4dc:	0a74280e 	beq	1d0a51c <__bss_end+0x1d073a0>
 4e0:	0b42100e 	bleq	1084520 <__bss_end+0x10813a4>
 4e4:	00100e44 	andseq	r0, r0, r4, asr #28
 4e8:	00000024 	andeq	r0, r0, r4, lsr #32
 4ec:	00000480 	andeq	r0, r0, r0, lsl #9
 4f0:	00001b88 	andeq	r1, r0, r8, lsl #23
 4f4:	000000f4 	strdeq	r0, [r0], -r4
 4f8:	84100e42 	ldrhi	r0, [r0], #-3650	; 0xfffff1be
 4fc:	86038504 	strhi	r8, [r3], -r4, lsl #10
 500:	4a018e02 	bmi	63d10 <__bss_end+0x60b94>
 504:	6002380e 	andvs	r3, r2, lr, lsl #16
 508:	42100e0a 	andsmi	r0, r0, #10, 28	; 0xa0
 50c:	100e4a0b 	andne	r4, lr, fp, lsl #20
 510:	00000048 	andeq	r0, r0, r8, asr #32
 514:	00000480 	andeq	r0, r0, r0, lsl #9
 518:	00001c7c 	andeq	r1, r0, ip, ror ip
 51c:	000002fc 	strdeq	r0, [r0], -ip
 520:	80100e42 	andshi	r0, r0, r2, asr #28
 524:	82038104 	andhi	r8, r3, #4, 2
 528:	42018302 	andmi	r8, r1, #134217728	; 0x8000000
 52c:	0c84300e 	stceq	0, cr3, [r4], {14}
 530:	0a860b85 	beq	fe18334c <__bss_end+0xfe1801d0>
 534:	08880987 	stmeq	r8, {r0, r1, r2, r7, r8, fp}
 538:	068a0789 	streq	r0, [sl], r9, lsl #15
 53c:	0e42058e 	cdpeq	5, 4, cr0, cr2, cr14, {4}
 540:	0a800248 	beq	fe000e68 <__bss_end+0xfdffdcec>
 544:	ce42300e 	cdpgt	0, 4, cr3, cr2, cr14, {0}
 548:	c7c8c9ca 	strbgt	ip, [r8, sl, asr #19]
 54c:	0ec4c5c6 	cdpeq	5, 12, cr12, cr4, cr6, {6}
 550:	c2c34210 	sbcgt	r4, r3, #16, 4
 554:	000ec0c1 	andeq	ip, lr, r1, asr #1
 558:	00000b42 	andeq	r0, r0, r2, asr #22
 55c:	00000048 	andeq	r0, r0, r8, asr #32
 560:	00000480 	andeq	r0, r0, r0, lsl #9
 564:	00001f78 	andeq	r1, r0, r8, ror pc
 568:	000002fc 	strdeq	r0, [r0], -ip
 56c:	80100e42 	andshi	r0, r0, r2, asr #28
 570:	82038104 	andhi	r8, r3, #4, 2
 574:	42018302 	andmi	r8, r1, #134217728	; 0x8000000
 578:	0c84300e 	stceq	0, cr3, [r4], {14}
 57c:	0a860b85 	beq	fe183398 <__bss_end+0xfe18021c>
 580:	08880987 	stmeq	r8, {r0, r1, r2, r7, r8, fp}
 584:	068a0789 	streq	r0, [sl], r9, lsl #15
 588:	0e42058e 	cdpeq	5, 4, cr0, cr2, cr14, {4}
 58c:	0a800248 	beq	fe000eb4 <__bss_end+0xfdffdd38>
 590:	ce42300e 	cdpgt	0, 4, cr3, cr2, cr14, {0}
 594:	c7c8c9ca 	strbgt	ip, [r8, sl, asr #19]
 598:	0ec4c5c6 	cdpeq	5, 12, cr12, cr4, cr6, {6}
 59c:	c2c34210 	sbcgt	r4, r3, #16, 4
 5a0:	000ec0c1 	andeq	ip, lr, r1, asr #1
 5a4:	00000b42 	andeq	r0, r0, r2, asr #22
 5a8:	0000000c 	andeq	r0, r0, ip
 5ac:	ffffffff 			; <UNDEFINED> instruction: 0xffffffff
 5b0:	7c020001 	stcvc	0, cr0, [r2], {1}
 5b4:	000d0c0e 	andeq	r0, sp, lr, lsl #24
 5b8:	0000000c 	andeq	r0, r0, ip
 5bc:	000005a8 	andeq	r0, r0, r8, lsr #11
 5c0:	00002450 	andeq	r2, r0, r0, asr r4
 5c4:	0000000c 	andeq	r0, r0, ip
 5c8:	0000000c 	andeq	r0, r0, ip
 5cc:	000005a8 	andeq	r0, r0, r8, lsr #11
 5d0:	0000245c 	andeq	r2, r0, ip, asr r4
 5d4:	00000054 	andeq	r0, r0, r4, asr r0
 5d8:	0000000c 	andeq	r0, r0, ip
 5dc:	ffffffff 			; <UNDEFINED> instruction: 0xffffffff
 5e0:	7c020001 	stcvc	0, cr0, [r2], {1}
 5e4:	000d0c0e 	andeq	r0, sp, lr, lsl #24
 5e8:	00000018 	andeq	r0, r0, r8, lsl r0
 5ec:	000005d8 	ldrdeq	r0, [r0], -r8
 5f0:	000024b0 			; <UNDEFINED> instruction: 0x000024b0
 5f4:	00000090 	muleq	r0, r0, r0
 5f8:	84080e7a 	strhi	r0, [r8], #-3706	; 0xfffff186
 5fc:	4a018e02 	bmi	63e0c <__bss_end+0x60c90>
 600:	cec4000e 	cdpgt	0, 12, cr0, cr4, cr14, {0}
 604:	00000014 	andeq	r0, r0, r4, lsl r0
 608:	000005d8 	ldrdeq	r0, [r0], -r8
 60c:	00002540 	andeq	r2, r0, r0, asr #10
 610:	00000050 	andeq	r0, r0, r0, asr r0
 614:	62080e44 	andvs	r0, r8, #68, 28	; 0x440
 618:	0000000e 	andeq	r0, r0, lr
 61c:	0000000c 	andeq	r0, r0, ip
 620:	000005d8 	ldrdeq	r0, [r0], -r8
 624:	00002590 	muleq	r0, r0, r5
 628:	0000004c 	andeq	r0, r0, ip, asr #32
 62c:	0000000c 	andeq	r0, r0, ip
 630:	000005d8 	ldrdeq	r0, [r0], -r8
 634:	000025dc 	ldrdeq	r2, [r0], -ip
 638:	00000054 	andeq	r0, r0, r4, asr r0
 63c:	0000000c 	andeq	r0, r0, ip
 640:	ffffffff 			; <UNDEFINED> instruction: 0xffffffff
 644:	7c020001 	stcvc	0, cr0, [r2], {1}
 648:	000d0c0e 	andeq	r0, sp, lr, lsl #24
 64c:	0000000c 	andeq	r0, r0, ip
 650:	0000063c 	andeq	r0, r0, ip, lsr r6
 654:	00002630 	andeq	r2, r0, r0, lsr r6
 658:	0000002c 	andeq	r0, r0, ip, lsr #32
 65c:	0000000c 	andeq	r0, r0, ip
 660:	0000063c 	andeq	r0, r0, ip, lsr r6
 664:	0000265c 	andeq	r2, r0, ip, asr r6
 668:	0000002c 	andeq	r0, r0, ip, lsr #32
 66c:	0000000c 	andeq	r0, r0, ip
 670:	ffffffff 			; <UNDEFINED> instruction: 0xffffffff
 674:	7c020001 	stcvc	0, cr0, [r2], {1}
 678:	000d0c0e 	andeq	r0, sp, lr, lsl #24
 67c:	0000000c 	andeq	r0, r0, ip
 680:	0000066c 	andeq	r0, r0, ip, ror #12
 684:	00002688 	andeq	r2, r0, r8, lsl #13
 688:	00000058 	andeq	r0, r0, r8, asr r0
 68c:	0000000c 	andeq	r0, r0, ip
 690:	0000066c 	andeq	r0, r0, ip, ror #12
 694:	000026e0 	andeq	r2, r0, r0, ror #13
 698:	00000050 	andeq	r0, r0, r0, asr r0
 69c:	0000000c 	andeq	r0, r0, ip
 6a0:	0000066c 	andeq	r0, r0, ip, ror #12
 6a4:	00002730 	andeq	r2, r0, r0, lsr r7
 6a8:	00000034 	andeq	r0, r0, r4, lsr r0
 6ac:	0000000c 	andeq	r0, r0, ip
 6b0:	0000066c 	andeq	r0, r0, ip, ror #12
 6b4:	00002764 	andeq	r2, r0, r4, ror #14
 6b8:	00000028 	andeq	r0, r0, r8, lsr #32
 6bc:	0000000c 	andeq	r0, r0, ip
 6c0:	0000066c 	andeq	r0, r0, ip, ror #12
 6c4:	0000278c 	andeq	r2, r0, ip, lsl #15
 6c8:	00000048 	andeq	r0, r0, r8, asr #32
 6cc:	0000000c 	andeq	r0, r0, ip
 6d0:	0000066c 	andeq	r0, r0, ip, ror #12
 6d4:	000027d4 	ldrdeq	r2, [r0], -r4
 6d8:	00000040 	andeq	r0, r0, r0, asr #32
 6dc:	00000014 	andeq	r0, r0, r4, lsl r0
 6e0:	0000066c 	andeq	r0, r0, ip, ror #12
 6e4:	00002814 	andeq	r2, r0, r4, lsl r8
 6e8:	00000054 	andeq	r0, r0, r4, asr r0
 6ec:	8e040e4e 	cdphi	14, 0, cr0, cr4, cr14, {2}
 6f0:	00000001 	andeq	r0, r0, r1
 6f4:	0000000c 	andeq	r0, r0, ip
 6f8:	ffffffff 			; <UNDEFINED> instruction: 0xffffffff
 6fc:	7c020001 	stcvc	0, cr0, [r2], {1}
 700:	000d0c0e 	andeq	r0, sp, lr, lsl #24
 704:	0000000c 	andeq	r0, r0, ip
 708:	000006f4 	strdeq	r0, [r0], -r4
 70c:	00002868 	andeq	r2, r0, r8, ror #16
 710:	00000030 	andeq	r0, r0, r0, lsr r0
 714:	0000000c 	andeq	r0, r0, ip
 718:	000006f4 	strdeq	r0, [r0], -r4
 71c:	00002898 	muleq	r0, r8, r8
 720:	00000010 	andeq	r0, r0, r0, lsl r0
 724:	0000000c 	andeq	r0, r0, ip
 728:	000006f4 	strdeq	r0, [r0], -r4
 72c:	000028a8 	andeq	r2, r0, r8, lsr #17
 730:	0000003c 	andeq	r0, r0, ip, lsr r0
 734:	0000000c 	andeq	r0, r0, ip
 738:	000006f4 	strdeq	r0, [r0], -r4
 73c:	000028e4 	andeq	r2, r0, r4, ror #17
 740:	00000034 	andeq	r0, r0, r4, lsr r0
 744:	00000020 	andeq	r0, r0, r0, lsr #32
 748:	000006f4 	strdeq	r0, [r0], -r4
 74c:	00002918 	andeq	r2, r0, r8, lsl r9
 750:	0000007c 	andeq	r0, r0, ip, ror r0
 754:	84100e46 	ldrhi	r0, [r0], #-3654	; 0xfffff1ba
 758:	86038504 	strhi	r8, [r3], -r4, lsl #10
 75c:	74018e02 	strvc	r8, [r1], #-3586	; 0xfffff1fe
 760:	c5c4000e 	strbgt	r0, [r4, #14]
 764:	0000cec6 	andeq	ip, r0, r6, asr #29
 768:	00000018 	andeq	r0, r0, r8, lsl r0
 76c:	000006f4 	strdeq	r0, [r0], -r4
 770:	00002994 	muleq	r0, r4, r9
 774:	00000048 	andeq	r0, r0, r8, asr #32
 778:	8e040e4e 	cdphi	14, 0, cr0, cr4, cr14, {2}
 77c:	000e5201 	andeq	r5, lr, r1, lsl #4
 780:	000000ce 	andeq	r0, r0, lr, asr #1
 784:	00000018 	andeq	r0, r0, r8, lsl r0
 788:	000006f4 	strdeq	r0, [r0], -r4
 78c:	000029dc 	ldrdeq	r2, [r0], -ip
 790:	0000006c 	andeq	r0, r0, ip, rrx
 794:	84100e4a 	ldrhi	r0, [r0], #-3658	; 0xfffff1b6
 798:	86038504 	strhi	r8, [r3], -r4, lsl #10
 79c:	00018e02 	andeq	r8, r1, r2, lsl #28
 7a0:	00000014 	andeq	r0, r0, r4, lsl r0
 7a4:	000006f4 	strdeq	r0, [r0], -r4
 7a8:	00002a48 	andeq	r2, r0, r8, asr #20
 7ac:	00000050 	andeq	r0, r0, r0, asr r0
 7b0:	84080e4a 	strhi	r0, [r8], #-3658	; 0xfffff1b6
 7b4:	00018e02 	andeq	r8, r1, r2, lsl #28
 7b8:	00000014 	andeq	r0, r0, r4, lsl r0
 7bc:	000006f4 	strdeq	r0, [r0], -r4
 7c0:	00002a98 	muleq	r0, r8, sl
 7c4:	00000098 	muleq	r0, r8, r0
 7c8:	84080e4e 	strhi	r0, [r8], #-3662	; 0xfffff1b2
 7cc:	00018e02 	andeq	r8, r1, r2, lsl #28
 7d0:	0000000c 	andeq	r0, r0, ip
 7d4:	000006f4 	strdeq	r0, [r0], -r4
 7d8:	00002b30 	andeq	r2, r0, r0, lsr fp
 7dc:	00000060 	andeq	r0, r0, r0, rrx
 7e0:	0000001c 	andeq	r0, r0, ip, lsl r0
 7e4:	000006f4 	strdeq	r0, [r0], -r4
 7e8:	00002b90 	muleq	r0, r0, fp
 7ec:	0000007c 	andeq	r0, r0, ip, ror r0
 7f0:	840c0e5a 	strhi	r0, [ip], #-3674	; 0xfffff1a6
 7f4:	8e028503 	cfsh32hi	mvfx8, mvfx2, #3
 7f8:	c5ce5c01 	strbgt	r5, [lr, #3073]	; 0xc01
 7fc:	00000ec4 	andeq	r0, r0, r4, asr #29

Disassembly of section .debug_ranges:

00000000 <.debug_ranges>:
   0:	00000040 	andeq	r0, r0, r0, asr #32
   4:	00000050 	andeq	r0, r0, r0, asr r0
   8:	00000054 	andeq	r0, r0, r4, asr r0
   c:	00000058 	andeq	r0, r0, r8, asr r0
  10:	0000005c 	andeq	r0, r0, ip, asr r0
  14:	00000068 	andeq	r0, r0, r8, rrx
	...
  20:	000000c0 	andeq	r0, r0, r0, asr #1
  24:	000000c4 	andeq	r0, r0, r4, asr #1
  28:	000000d8 	ldrdeq	r0, [r0], -r8
  2c:	000000e0 	andeq	r0, r0, r0, ror #1
	...
  38:	000000e0 	andeq	r0, r0, r0, ror #1
  3c:	000000e4 	andeq	r0, r0, r4, ror #1
  40:	000000e8 	andeq	r0, r0, r8, ror #1
  44:	000000f0 	strdeq	r0, [r0], -r0	; <UNPREDICTABLE>
  48:	000000f4 	strdeq	r0, [r0], -r4
  4c:	00000104 	andeq	r0, r0, r4, lsl #2
  50:	00000110 	andeq	r0, r0, r0, lsl r1
  54:	0000011c 	andeq	r0, r0, ip, lsl r1
	...
  60:	00000144 	andeq	r0, r0, r4, asr #2
  64:	00000148 	andeq	r0, r0, r8, asr #2
  68:	0000014c 	andeq	r0, r0, ip, asr #2
  6c:	00000150 	andeq	r0, r0, r0, asr r1
  70:	00000178 	andeq	r0, r0, r8, ror r1
  74:	00000180 	andeq	r0, r0, r0, lsl #3
	...
  80:	000001a0 	andeq	r0, r0, r0, lsr #3
  84:	000001a8 	andeq	r0, r0, r8, lsr #3
  88:	000001ac 	andeq	r0, r0, ip, lsr #3
  8c:	000001b4 			; <UNDEFINED> instruction: 0x000001b4
  90:	000001f4 	strdeq	r0, [r0], -r4
  94:	00000218 	andeq	r0, r0, r8, lsl r2
	...
  a0:	0000024c 	andeq	r0, r0, ip, asr #4
  a4:	00000250 	andeq	r0, r0, r0, asr r2
  a8:	00000254 	andeq	r0, r0, r4, asr r2
  ac:	0000025c 	andeq	r0, r0, ip, asr r2
  b0:	00000268 	andeq	r0, r0, r8, ror #4
  b4:	0000028c 	andeq	r0, r0, ip, lsl #5
	...
  c0:	000002e4 	andeq	r0, r0, r4, ror #5
  c4:	000002e8 	andeq	r0, r0, r8, ror #5
  c8:	000002ec 	andeq	r0, r0, ip, ror #5
  cc:	000002f4 	strdeq	r0, [r0], -r4
  d0:	000002f8 	strdeq	r0, [r0], -r8
  d4:	00000300 	andeq	r0, r0, r0, lsl #6
  d8:	00000304 	andeq	r0, r0, r4, lsl #6
  dc:	00000308 	andeq	r0, r0, r8, lsl #6
  e0:	0000030c 	andeq	r0, r0, ip, lsl #6
  e4:	0000032c 	andeq	r0, r0, ip, lsr #6
	...
  f0:	000003ac 	andeq	r0, r0, ip, lsr #7
  f4:	000003b4 			; <UNDEFINED> instruction: 0x000003b4
  f8:	000003b8 			; <UNDEFINED> instruction: 0x000003b8
  fc:	000003c0 	andeq	r0, r0, r0, asr #7
 100:	00000400 	andeq	r0, r0, r0, lsl #8
 104:	00000424 	andeq	r0, r0, r4, lsr #8
	...
 110:	00000458 	andeq	r0, r0, r8, asr r4
 114:	0000045c 	andeq	r0, r0, ip, asr r4
 118:	00000460 	andeq	r0, r0, r0, ror #8
 11c:	00000468 	andeq	r0, r0, r8, ror #8
 120:	00000474 	andeq	r0, r0, r4, ror r4
 124:	00000498 	muleq	r0, r8, r4
	...
 130:	00000108 	andeq	r0, r0, r8, lsl #2
 134:	0000010c 	andeq	r0, r0, ip, lsl #2
 138:	00000110 	andeq	r0, r0, r0, lsl r1
 13c:	00000128 	andeq	r0, r0, r8, lsr #2
 140:	00000134 	andeq	r0, r0, r4, lsr r1
 144:	00000150 	andeq	r0, r0, r0, asr r1
 148:	00000158 	andeq	r0, r0, r8, asr r1
 14c:	0000015c 	andeq	r0, r0, ip, asr r1
	...
 158:	0000038c 	andeq	r0, r0, ip, lsl #7
 15c:	000003ac 	andeq	r0, r0, ip, lsr #7
 160:	00000544 	andeq	r0, r0, r4, asr #10
 164:	0000054c 	andeq	r0, r0, ip, asr #10
	...
 170:	0000044c 	andeq	r0, r0, ip, asr #8
 174:	0000046c 	andeq	r0, r0, ip, ror #8
 178:	0000054c 	andeq	r0, r0, ip, asr #10
 17c:	00000554 	andeq	r0, r0, r4, asr r5
	...
 188:	000004b8 			; <UNDEFINED> instruction: 0x000004b8
 18c:	000004d8 	ldrdeq	r0, [r0], -r8
 190:	0000053c 	andeq	r0, r0, ip, lsr r5
 194:	00000544 	andeq	r0, r0, r4, asr #10
	...
 1a0:	00000688 	andeq	r0, r0, r8, lsl #13
 1a4:	000006a8 	andeq	r0, r0, r8, lsr #13
 1a8:	00000840 	andeq	r0, r0, r0, asr #16
 1ac:	00000848 	andeq	r0, r0, r8, asr #16
	...
 1b8:	00000748 	andeq	r0, r0, r8, asr #14
 1bc:	00000768 	andeq	r0, r0, r8, ror #14
 1c0:	00000848 	andeq	r0, r0, r8, asr #16
 1c4:	00000850 	andeq	r0, r0, r0, asr r8
	...
 1d0:	000007b4 			; <UNDEFINED> instruction: 0x000007b4
 1d4:	000007d4 	ldrdeq	r0, [r0], -r4
 1d8:	00000838 	andeq	r0, r0, r8, lsr r8
 1dc:	00000840 	andeq	r0, r0, r0, asr #16
	...
